(dp1
S'categoria'
p2
(dp3
S'length'
p4
I255
sS'unique'
p5
I00
sS'sortable'
p6
I2
sS'sql'
p7
S'INT, INDEX categoria__idx (categoria), FOREIGN KEY (categoria) REFERENCES categorias (id) ON DELETE CASCADE'
p8
sS'notnull'
p9
I00
sS'type'
p10
S'reference categorias'
p11
ssS'id'
p12
(dp13
g4
I255
sg5
I00
sg6
I1
sg7
S'INT AUTO_INCREMENT NOT NULL'
p14
sg9
I00
sg10
g12
ssS'Tipo'
p15
(dp16
g4
I1
sg5
I00
sg6
I3
sg7
S'VARCHAR(1)'
p17
sg9
I00
sg10
S'string'
p18
ss.