(dp1
S'output'
p2
S"<class 'sqlite3.OperationalError'> Could not decode to UTF-8 column 'codigo' with text 'Actividades  de servicios relacionadas con la extracci\xf3n de petr\xf3leo y gas, excepto las actividades de prospecci\xf3n'"
p3
sS'layer'
p4
S'/home/marco/projects/contabilidad/web2py/applications/sueldos/controllers/altas.py'
p5
sS'code'
p6
S"#-*- coding: utf-8 -*-\n\ndef empleadores():\n    form = SQLFORM(db.empleadores)\n\n    if form.process().accepted:\n        response.flash='El empleado a sido agregado'\n    elif form.errors:\n        response.flash='El formulario tiene errores'\n    else:\n        response.flash='Por favor complete los datos del empleador'\n        \n    return dict(form=form)\n\n\ndef personal():\n    \n    form = SQLFORM(db.empleados)\n\n    if form.process().accepted:\n        response.flash='El empleado a sido agregado'\n    elif form.errors:\n        response.flash='El formulario tiene errores'\n    else:\n        response.flash='Por favor complete los datos del empleado'\n\n    return dict(form=form)\n\nresponse._vars=response._caller(empleadores)\n"
p7
sS'snapshot'
p8
(dp9
S'exception'
p10
(dp11
S'__module__'
p12
S"'sqlite3'"
p13
sS'__getslice__'
p14
S"<method-wrapper '__getslice__' of OperationalError object>"
p15
sS'__str__'
p16
S"<method-wrapper '__str__' of OperationalError object>"
p17
sS'__reduce__'
p18
S'<built-in method __reduce__ of OperationalError object>'
p19
sS'__dict__'
p20
S'{}'
p21
sS'__sizeof__'
p22
S'<built-in method __sizeof__ of OperationalError object>'
p23
sS'__weakref__'
p24
S'None'
p25
sS'__init__'
p26
S"<method-wrapper '__init__' of OperationalError object>"
p27
sS'__setattr__'
p28
S"<method-wrapper '__setattr__' of OperationalError object>"
p29
sS'__reduce_ex__'
p30
S'<built-in method __reduce_ex__ of OperationalError object>'
p31
sS'__new__'
p32
S'<built-in method __new__ of type object>'
p33
sS'__format__'
p34
S'<built-in method __format__ of OperationalError object>'
p35
sS'__class__'
p36
S"<class 'sqlite3.OperationalError'>"
p37
sS'__doc__'
p38
S'None'
p39
sS'__getitem__'
p40
S"<method-wrapper '__getitem__' of OperationalError object>"
p41
sS'__setstate__'
p42
S'<built-in method __setstate__ of OperationalError object>'
p43
sS'__getattribute__'
p44
S"<method-wrapper '__getattribute__' of OperationalError object>"
p45
sS'args'
p46
S'("Could not decode to UTF-8 column \'codigo\' with t...eo y gas, excepto las actividades de prospecci\\xf3n\'",)'
p47
sS'__subclasshook__'
p48
S'<built-in method __subclasshook__ of type object>'
p49
sS'__unicode__'
p50
S'<built-in method __unicode__ of OperationalError object>'
p51
sS'__delattr__'
p52
S"<method-wrapper '__delattr__' of OperationalError object>"
p53
sS'__repr__'
p54
S"<method-wrapper '__repr__' of OperationalError object>"
p55
sS'__hash__'
p56
S"<method-wrapper '__hash__' of OperationalError object>"
p57
ssS'evalue'
p58
S"Could not decode to UTF-8 column 'codigo' with text 'Actividades  de servicios relacionadas con la extracci\xf3n de petr\xf3leo y gas, excepto las actividades de prospecci\xf3n'"
p59
sS'request'
p60
ccopy_reg
_reconstructor
p61
(cgluon.html
BEAUTIFY
p62
c__builtin__
object
p63
NtRp64
(dp65
S'attributes'
p66
(dp67
sS'components'
p68
(lp69
g61
(cgluon.html
TABLE
p70
g63
NtRp71
(dp72
g66
(dp73
S'level'
p74
I5
ssS'parent'
p75
Nsg68
(lp76
g61
(cgluon.html
TR
p77
g63
NtRp78
(dp79
g66
(dp80
sg75
g71
sg68
(lp81
g61
(cgluon.html
TD
p82
g63
NtRp83
(dp84
g66
(dp85
S'_style'
p86
S'font-weight:bold;vertical-align:top'
p87
ssg75
g78
sg68
(lp88
S'ajax'
p89
asbag61
(g82
g63
NtRp90
(dp91
g66
(dp92
S'_valign'
p93
S'top'
p94
ssg75
g78
sg68
(lp95
S':'
asbag61
(g82
g63
NtRp96
(dp97
g66
(dp98
sg75
g78
sg68
(lp99
g61
(g62
g63
NtRp100
(dp101
g66
(dp102
g74
I5
ssg75
g96
sg68
(lp103
S'False'
p104
asbasbasbag61
(g77
g63
NtRp105
(dp106
g66
(dp107
sg75
g71
sg68
(lp108
g61
(g82
g63
NtRp109
(dp110
g66
(dp111
g86
g87
ssg75
g105
sg68
(lp112
S'application'
p113
asbag61
(g82
g63
NtRp114
(dp115
g66
(dp116
g93
g94
ssg75
g105
sg68
(lp117
S':'
asbag61
(g82
g63
NtRp118
(dp119
g66
(dp120
sg75
g105
sg68
(lp121
g61
(g62
g63
NtRp122
(dp123
g66
(dp124
g74
I5
ssg75
g118
sg68
(lp125
S'sueldos'
p126
asbasbasbag61
(g77
g63
NtRp127
(dp128
g66
(dp129
sg75
g71
sg68
(lp130
g61
(g82
g63
NtRp131
(dp132
g66
(dp133
g86
g87
ssg75
g127
sg68
(lp134
g46
asbag61
(g82
g63
NtRp135
(dp136
g66
(dp137
g93
g94
ssg75
g127
sg68
(lp138
S':'
asbag61
(g82
g63
NtRp139
(dp140
g66
(dp141
sg75
g127
sg68
(lp142
g61
(g62
g63
NtRp143
(dp144
g66
(dp145
g74
I5
ssg75
g139
sg68
(lp146
g61
(g70
g63
NtRp147
(dp148
g66
(dp149
g74
I4
ssg75
Nsg68
(lp150
sbasbasbasbag61
(g77
g63
NtRp151
(dp152
g66
(dp153
sg75
g71
sg68
(lp154
g61
(g82
g63
NtRp155
(dp156
g66
(dp157
g86
g87
ssg75
g151
sg68
(lp158
S'body'
p159
asbag61
(g82
g63
NtRp160
(dp161
g66
(dp162
g93
g94
ssg75
g151
sg68
(lp163
S':'
asbag61
(g82
g63
NtRp164
(dp165
g66
(dp166
sg75
g151
sg68
(lp167
g61
(g62
g63
NtRp168
(dp169
g66
(dp170
g74
I5
ssg75
g164
sg68
(lp171
S'<cStringIO.StringO object at 0x27aa6c0>'
p172
asbasbasbag61
(g77
g63
NtRp173
(dp174
g66
(dp175
sg75
g71
sg68
(lp176
g61
(g82
g63
NtRp177
(dp178
g66
(dp179
g86
g87
ssg75
g173
sg68
(lp180
S'cid'
p181
asbag61
(g82
g63
NtRp182
(dp183
g66
(dp184
g93
g94
ssg75
g173
sg68
(lp185
S':'
asbag61
(g82
g63
NtRp186
(dp187
g66
(dp188
sg75
g173
sg68
(lp189
g61
(g62
g63
NtRp190
(dp191
g66
(dp192
g74
I5
ssg75
g186
sg68
(lp193
S'None'
p194
asbasbasbag61
(g77
g63
NtRp195
(dp196
g66
(dp197
sg75
g71
sg68
(lp198
g61
(g82
g63
NtRp199
(dp200
g66
(dp201
g86
g87
ssg75
g195
sg68
(lp202
S'client'
p203
asbag61
(g82
g63
NtRp204
(dp205
g66
(dp206
g93
g94
ssg75
g195
sg68
(lp207
S':'
asbag61
(g82
g63
NtRp208
(dp209
g66
(dp210
sg75
g195
sg68
(lp211
g61
(g62
g63
NtRp212
(dp213
g66
(dp214
g74
I5
ssg75
g208
sg68
(lp215
S'127.0.0.1'
p216
asbasbasbag61
(g77
g63
NtRp217
(dp218
g66
(dp219
sg75
g71
sg68
(lp220
g61
(g82
g63
NtRp221
(dp222
g66
(dp223
g86
g87
ssg75
g217
sg68
(lp224
S'controller'
p225
asbag61
(g82
g63
NtRp226
(dp227
g66
(dp228
g93
g94
ssg75
g217
sg68
(lp229
S':'
asbag61
(g82
g63
NtRp230
(dp231
g66
(dp232
sg75
g217
sg68
(lp233
g61
(g62
g63
NtRp234
(dp235
g66
(dp236
g74
I5
ssg75
g230
sg68
(lp237
S'altas'
p238
asbasbasbag61
(g77
g63
NtRp239
(dp240
g66
(dp241
sg75
g71
sg68
(lp242
g61
(g82
g63
NtRp243
(dp244
g66
(dp245
g86
g87
ssg75
g239
sg68
(lp246
S'cookies'
p247
asbag61
(g82
g63
NtRp248
(dp249
g66
(dp250
g93
g94
ssg75
g239
sg68
(lp251
S':'
asbag61
(g82
g63
NtRp252
(dp253
g66
(dp254
sg75
g239
sg68
(lp255
g61
(g62
g63
NtRp256
(dp257
g66
(dp258
g74
I5
ssg75
g252
sg68
(lp259
g61
(g70
g63
NtRp260
(dp261
g66
(dp262
g74
I4
ssg75
Nsg68
(lp263
g61
(g77
g63
NtRp264
(dp265
g66
(dp266
sg75
g260
sg68
(lp267
g61
(g82
g63
NtRp268
(dp269
g66
(dp270
g86
g87
ssg75
g264
sg68
(lp271
S'session_id_admin'
p272
asbag61
(g82
g63
NtRp273
(dp274
g66
(dp275
g93
g94
ssg75
g264
sg68
(lp276
S':'
asbag61
(g82
g63
NtRp277
(dp278
g66
(dp279
sg75
g264
sg68
(lp280
g61
(g62
g63
NtRp281
(dp282
g66
(dp283
g74
I4
ssg75
g277
sg68
(lp284
S'127.0.0.1-24af4e14-6d96-45d7-9010-207206732bb5'
p285
ag61
(g70
g63
NtRp286
(dp287
g66
(dp288
g74
I3
ssg75
Nsg68
(lp289
g61
(g77
g63
NtRp290
(dp291
g66
(dp292
sg75
g286
sg68
(lp293
g61
(g82
g63
NtRp294
(dp295
g66
(dp296
g86
g87
ssg75
g290
sg68
(lp297
S'comment'
p298
asbag61
(g82
g63
NtRp299
(dp300
g66
(dp301
g93
g94
ssg75
g290
sg68
(lp302
S':'
asbag61
(g82
g63
NtRp303
(dp304
g66
(dp305
sg75
g290
sg68
(lp306
g61
(g62
g63
NtRp307
(dp308
g66
(dp309
g74
I3
ssg75
g303
sg68
(lp310
S''
asbasbasbag61
(g77
g63
NtRp311
(dp312
g66
(dp313
sg75
g286
sg68
(lp314
g61
(g82
g63
NtRp315
(dp316
g66
(dp317
g86
g87
ssg75
g311
sg68
(lp318
S'domain'
p319
asbag61
(g82
g63
NtRp320
(dp321
g66
(dp322
g93
g94
ssg75
g311
sg68
(lp323
S':'
asbag61
(g82
g63
NtRp324
(dp325
g66
(dp326
sg75
g311
sg68
(lp327
g61
(g62
g63
NtRp328
(dp329
g66
(dp330
g74
I3
ssg75
g324
sg68
(lp331
S''
asbasbasbag61
(g77
g63
NtRp332
(dp333
g66
(dp334
sg75
g286
sg68
(lp335
g61
(g82
g63
NtRp336
(dp337
g66
(dp338
g86
g87
ssg75
g332
sg68
(lp339
S'expires'
p340
asbag61
(g82
g63
NtRp341
(dp342
g66
(dp343
g93
g94
ssg75
g332
sg68
(lp344
S':'
asbag61
(g82
g63
NtRp345
(dp346
g66
(dp347
sg75
g332
sg68
(lp348
g61
(g62
g63
NtRp349
(dp350
g66
(dp351
g74
I3
ssg75
g345
sg68
(lp352
S''
asbasbasbag61
(g77
g63
NtRp353
(dp354
g66
(dp355
sg75
g286
sg68
(lp356
g61
(g82
g63
NtRp357
(dp358
g66
(dp359
g86
g87
ssg75
g353
sg68
(lp360
S'httponly'
p361
asbag61
(g82
g63
NtRp362
(dp363
g66
(dp364
g93
g94
ssg75
g353
sg68
(lp365
S':'
asbag61
(g82
g63
NtRp366
(dp367
g66
(dp368
sg75
g353
sg68
(lp369
g61
(g62
g63
NtRp370
(dp371
g66
(dp372
g74
I3
ssg75
g366
sg68
(lp373
S''
asbasbasbag61
(g77
g63
NtRp374
(dp375
g66
(dp376
sg75
g286
sg68
(lp377
g61
(g82
g63
NtRp378
(dp379
g66
(dp380
g86
g87
ssg75
g374
sg68
(lp381
S'max-age'
p382
asbag61
(g82
g63
NtRp383
(dp384
g66
(dp385
g93
g94
ssg75
g374
sg68
(lp386
S':'
asbag61
(g82
g63
NtRp387
(dp388
g66
(dp389
sg75
g374
sg68
(lp390
g61
(g62
g63
NtRp391
(dp392
g66
(dp393
g74
I3
ssg75
g387
sg68
(lp394
S''
asbasbasbag61
(g77
g63
NtRp395
(dp396
g66
(dp397
sg75
g286
sg68
(lp398
g61
(g82
g63
NtRp399
(dp400
g66
(dp401
g86
g87
ssg75
g395
sg68
(lp402
S'path'
p403
asbag61
(g82
g63
NtRp404
(dp405
g66
(dp406
g93
g94
ssg75
g395
sg68
(lp407
S':'
asbag61
(g82
g63
NtRp408
(dp409
g66
(dp410
sg75
g395
sg68
(lp411
g61
(g62
g63
NtRp412
(dp413
g66
(dp414
g74
I3
ssg75
g408
sg68
(lp415
S''
asbasbasbag61
(g77
g63
NtRp416
(dp417
g66
(dp418
sg75
g286
sg68
(lp419
g61
(g82
g63
NtRp420
(dp421
g66
(dp422
g86
g87
ssg75
g416
sg68
(lp423
S'secure'
p424
asbag61
(g82
g63
NtRp425
(dp426
g66
(dp427
g93
g94
ssg75
g416
sg68
(lp428
S':'
asbag61
(g82
g63
NtRp429
(dp430
g66
(dp431
sg75
g416
sg68
(lp432
g61
(g62
g63
NtRp433
(dp434
g66
(dp435
g74
I3
ssg75
g429
sg68
(lp436
S''
asbasbasbag61
(g77
g63
NtRp437
(dp438
g66
(dp439
sg75
g286
sg68
(lp440
g61
(g82
g63
NtRp441
(dp442
g66
(dp443
g86
g87
ssg75
g437
sg68
(lp444
S'version'
p445
asbag61
(g82
g63
NtRp446
(dp447
g66
(dp448
g93
g94
ssg75
g437
sg68
(lp449
S':'
asbag61
(g82
g63
NtRp450
(dp451
g66
(dp452
sg75
g437
sg68
(lp453
g61
(g62
g63
NtRp454
(dp455
g66
(dp456
g74
I3
ssg75
g450
sg68
(lp457
S''
asbasbasbasbasbasbasbag61
(g77
g63
NtRp458
(dp459
g66
(dp460
sg75
g260
sg68
(lp461
g61
(g82
g63
NtRp462
(dp463
g66
(dp464
g86
g87
ssg75
g458
sg68
(lp465
S'session_id_sueldos'
p466
asbag61
(g82
g63
NtRp467
(dp468
g66
(dp469
g93
g94
ssg75
g458
sg68
(lp470
S':'
asbag61
(g82
g63
NtRp471
(dp472
g66
(dp473
sg75
g458
sg68
(lp474
g61
(g62
g63
NtRp475
(dp476
g66
(dp477
g74
I4
ssg75
g471
sg68
(lp478
S'127.0.0.1-b5ab5c43-cb03-494e-8551-1bb3b74c2938'
p479
ag61
(g70
g63
NtRp480
(dp481
g66
(dp482
g74
I3
ssg75
Nsg68
(lp483
g61
(g77
g63
NtRp484
(dp485
g66
(dp486
sg75
g480
sg68
(lp487
g61
(g82
g63
NtRp488
(dp489
g66
(dp490
g86
g87
ssg75
g484
sg68
(lp491
g298
asbag61
(g82
g63
NtRp492
(dp493
g66
(dp494
g93
g94
ssg75
g484
sg68
(lp495
S':'
asbag61
(g82
g63
NtRp496
(dp497
g66
(dp498
sg75
g484
sg68
(lp499
g61
(g62
g63
NtRp500
(dp501
g66
(dp502
g74
I3
ssg75
g496
sg68
(lp503
S''
asbasbasbag61
(g77
g63
NtRp504
(dp505
g66
(dp506
sg75
g480
sg68
(lp507
g61
(g82
g63
NtRp508
(dp509
g66
(dp510
g86
g87
ssg75
g504
sg68
(lp511
g319
asbag61
(g82
g63
NtRp512
(dp513
g66
(dp514
g93
g94
ssg75
g504
sg68
(lp515
S':'
asbag61
(g82
g63
NtRp516
(dp517
g66
(dp518
sg75
g504
sg68
(lp519
g61
(g62
g63
NtRp520
(dp521
g66
(dp522
g74
I3
ssg75
g516
sg68
(lp523
S''
asbasbasbag61
(g77
g63
NtRp524
(dp525
g66
(dp526
sg75
g480
sg68
(lp527
g61
(g82
g63
NtRp528
(dp529
g66
(dp530
g86
g87
ssg75
g524
sg68
(lp531
g340
asbag61
(g82
g63
NtRp532
(dp533
g66
(dp534
g93
g94
ssg75
g524
sg68
(lp535
S':'
asbag61
(g82
g63
NtRp536
(dp537
g66
(dp538
sg75
g524
sg68
(lp539
g61
(g62
g63
NtRp540
(dp541
g66
(dp542
g74
I3
ssg75
g536
sg68
(lp543
S''
asbasbasbag61
(g77
g63
NtRp544
(dp545
g66
(dp546
sg75
g480
sg68
(lp547
g61
(g82
g63
NtRp548
(dp549
g66
(dp550
g86
g87
ssg75
g544
sg68
(lp551
g361
asbag61
(g82
g63
NtRp552
(dp553
g66
(dp554
g93
g94
ssg75
g544
sg68
(lp555
S':'
asbag61
(g82
g63
NtRp556
(dp557
g66
(dp558
sg75
g544
sg68
(lp559
g61
(g62
g63
NtRp560
(dp561
g66
(dp562
g74
I3
ssg75
g556
sg68
(lp563
S''
asbasbasbag61
(g77
g63
NtRp564
(dp565
g66
(dp566
sg75
g480
sg68
(lp567
g61
(g82
g63
NtRp568
(dp569
g66
(dp570
g86
g87
ssg75
g564
sg68
(lp571
g382
asbag61
(g82
g63
NtRp572
(dp573
g66
(dp574
g93
g94
ssg75
g564
sg68
(lp575
S':'
asbag61
(g82
g63
NtRp576
(dp577
g66
(dp578
sg75
g564
sg68
(lp579
g61
(g62
g63
NtRp580
(dp581
g66
(dp582
g74
I3
ssg75
g576
sg68
(lp583
S''
asbasbasbag61
(g77
g63
NtRp584
(dp585
g66
(dp586
sg75
g480
sg68
(lp587
g61
(g82
g63
NtRp588
(dp589
g66
(dp590
g86
g87
ssg75
g584
sg68
(lp591
g403
asbag61
(g82
g63
NtRp592
(dp593
g66
(dp594
g93
g94
ssg75
g584
sg68
(lp595
S':'
asbag61
(g82
g63
NtRp596
(dp597
g66
(dp598
sg75
g584
sg68
(lp599
g61
(g62
g63
NtRp600
(dp601
g66
(dp602
g74
I3
ssg75
g596
sg68
(lp603
S''
asbasbasbag61
(g77
g63
NtRp604
(dp605
g66
(dp606
sg75
g480
sg68
(lp607
g61
(g82
g63
NtRp608
(dp609
g66
(dp610
g86
g87
ssg75
g604
sg68
(lp611
g424
asbag61
(g82
g63
NtRp612
(dp613
g66
(dp614
g93
g94
ssg75
g604
sg68
(lp615
S':'
asbag61
(g82
g63
NtRp616
(dp617
g66
(dp618
sg75
g604
sg68
(lp619
g61
(g62
g63
NtRp620
(dp621
g66
(dp622
g74
I3
ssg75
g616
sg68
(lp623
S''
asbasbasbag61
(g77
g63
NtRp624
(dp625
g66
(dp626
sg75
g480
sg68
(lp627
g61
(g82
g63
NtRp628
(dp629
g66
(dp630
g86
g87
ssg75
g624
sg68
(lp631
g445
asbag61
(g82
g63
NtRp632
(dp633
g66
(dp634
g93
g94
ssg75
g624
sg68
(lp635
S':'
asbag61
(g82
g63
NtRp636
(dp637
g66
(dp638
sg75
g624
sg68
(lp639
g61
(g62
g63
NtRp640
(dp641
g66
(dp642
g74
I3
ssg75
g636
sg68
(lp643
S''
asbasbasbasbasbasbasbasbasbasbasbag61
(g77
g63
NtRp644
(dp645
g66
(dp646
sg75
g71
sg68
(lp647
g61
(g82
g63
NtRp648
(dp649
g66
(dp650
g86
g87
ssg75
g644
sg68
(lp651
S'env'
p652
asbag61
(g82
g63
NtRp653
(dp654
g66
(dp655
g93
g94
ssg75
g644
sg68
(lp656
S':'
asbag61
(g82
g63
NtRp657
(dp658
g66
(dp659
sg75
g644
sg68
(lp660
g61
(g62
g63
NtRp661
(dp662
g66
(dp663
g74
I5
ssg75
g657
sg68
(lp664
g61
(g70
g63
NtRp665
(dp666
g66
(dp667
g74
I4
ssg75
Nsg68
(lp668
g61
(g77
g63
NtRp669
(dp670
g66
(dp671
sg75
g665
sg68
(lp672
g61
(g82
g63
NtRp673
(dp674
g66
(dp675
g86
g87
ssg75
g669
sg68
(lp676
S'app_folders'
p677
asbag61
(g82
g63
NtRp678
(dp679
g66
(dp680
g93
g94
ssg75
g669
sg68
(lp681
S':'
asbag61
(g82
g63
NtRp682
(dp683
g66
(dp684
sg75
g669
sg68
(lp685
g61
(g62
g63
NtRp686
(dp687
g66
(dp688
g74
I4
ssg75
g682
sg68
(lp689
S"set(['/home/marco/projects/contabilidad/web2py/applications/admin/', '/home/marco/projects/contabilidad/web2py/applications/sueldos/'])"
p690
asbasbasbag61
(g77
g63
NtRp691
(dp692
g66
(dp693
sg75
g665
sg68
(lp694
g61
(g82
g63
NtRp695
(dp696
g66
(dp697
g86
g87
ssg75
g691
sg68
(lp698
S'applications_parent'
p699
asbag61
(g82
g63
NtRp700
(dp701
g66
(dp702
g93
g94
ssg75
g691
sg68
(lp703
S':'
asbag61
(g82
g63
NtRp704
(dp705
g66
(dp706
sg75
g691
sg68
(lp707
g61
(g62
g63
NtRp708
(dp709
g66
(dp710
g74
I4
ssg75
g704
sg68
(lp711
S'/home/marco/projects/contabilidad/web2py'
p712
asbasbasbag61
(g77
g63
NtRp713
(dp714
g66
(dp715
sg75
g665
sg68
(lp716
g61
(g82
g63
NtRp717
(dp718
g66
(dp719
g86
g87
ssg75
g713
sg68
(lp720
S'cmd_args'
p721
asbag61
(g82
g63
NtRp722
(dp723
g66
(dp724
g93
g94
ssg75
g713
sg68
(lp725
S':'
asbag61
(g82
g63
NtRp726
(dp727
g66
(dp728
sg75
g713
sg68
(lp729
g61
(g62
g63
NtRp730
(dp731
g66
(dp732
g74
I4
ssg75
g726
sg68
(lp733
g61
(g70
g63
NtRp734
(dp735
g66
(dp736
g74
I3
ssg75
Nsg68
(lp737
sbasbasbasbag61
(g77
g63
NtRp738
(dp739
g66
(dp740
sg75
g665
sg68
(lp741
g61
(g82
g63
NtRp742
(dp743
g66
(dp744
g86
g87
ssg75
g738
sg68
(lp745
S'cmd_options'
p746
asbag61
(g82
g63
NtRp747
(dp748
g66
(dp749
g93
g94
ssg75
g738
sg68
(lp750
S':'
asbag61
(g82
g63
NtRp751
(dp752
g66
(dp753
sg75
g738
sg68
(lp754
g61
(g62
g63
NtRp755
(dp756
g66
(dp757
g74
I4
ssg75
g751
sg68
(lp758
S"<Values at 0x160b320: {'verbose': False, 'ip': '127.0.0.1', 'with_scheduler': False, 'ips': [], 'shutdown_timeout': 5, 'taskbar': False, 'port': 8000, 'maxthreads': None, 'softcron': False, 'server_name': 'malena', 'bpython': False, 'nogui': False, 'pid_filename': 'httpserver.pid', 'extcron': False, 'runcron': False, 'run_system_tests': False, 'test': None, 'folder': '/home/marco/projects/contabilidad/web2py', 'config': '', 'minthreads': None, 'winservice': '', 'shell': None, 'run': '', 'log_filename': 'httpserver.log', 'debuglevel': 30, 'args': [''], 'socket_timeout': 5, 'ssl_ca_certificate': None, 'scheduler': None, 'profiler_filename': None, 'ssl_private_key': '', 'scheduler_groups': None, 'password': 'asd', 'request_queue_size': 5, 'ssl_certificate': '', 'cronjob': False, 'numthreads': None, 'quiet': False, 'interfaces': None, 'import_models': False, 'timeout': 10, 'plain': False, 'nobanner': False}>"
p759
asbasbasbag61
(g77
g63
NtRp760
(dp761
g66
(dp762
sg75
g665
sg68
(lp763
g61
(g82
g63
NtRp764
(dp765
g66
(dp766
g86
g87
ssg75
g760
sg68
(lp767
S'db_sessions'
p768
asbag61
(g82
g63
NtRp769
(dp770
g66
(dp771
g93
g94
ssg75
g760
sg68
(lp772
S':'
asbag61
(g82
g63
NtRp773
(dp774
g66
(dp775
sg75
g760
sg68
(lp776
g61
(g62
g63
NtRp777
(dp778
g66
(dp779
g74
I4
ssg75
g773
sg68
(lp780
S'set([])'
p781
asbasbasbag61
(g77
g63
NtRp782
(dp783
g66
(dp784
sg75
g665
sg68
(lp785
g61
(g82
g63
NtRp786
(dp787
g66
(dp788
g86
g87
ssg75
g782
sg68
(lp789
S'debugging'
p790
asbag61
(g82
g63
NtRp791
(dp792
g66
(dp793
g93
g94
ssg75
g782
sg68
(lp794
S':'
asbag61
(g82
g63
NtRp795
(dp796
g66
(dp797
sg75
g782
sg68
(lp798
g61
(g62
g63
NtRp799
(dp800
g66
(dp801
g74
I4
ssg75
g795
sg68
(lp802
g104
asbasbasbag61
(g77
g63
NtRp803
(dp804
g66
(dp805
sg75
g665
sg68
(lp806
g61
(g82
g63
NtRp807
(dp808
g66
(dp809
g86
g87
ssg75
g803
sg68
(lp810
S'gluon_parent'
p811
asbag61
(g82
g63
NtRp812
(dp813
g66
(dp814
g93
g94
ssg75
g803
sg68
(lp815
S':'
asbag61
(g82
g63
NtRp816
(dp817
g66
(dp818
sg75
g803
sg68
(lp819
g61
(g62
g63
NtRp820
(dp821
g66
(dp822
g74
I4
ssg75
g816
sg68
(lp823
S'/home/marco/projects/contabilidad/web2py'
p824
asbasbasbag61
(g77
g63
NtRp825
(dp826
g66
(dp827
sg75
g665
sg68
(lp828
g61
(g82
g63
NtRp829
(dp830
g66
(dp831
g86
g87
ssg75
g825
sg68
(lp832
S'http_accept'
p833
asbag61
(g82
g63
NtRp834
(dp835
g66
(dp836
g93
g94
ssg75
g825
sg68
(lp837
S':'
asbag61
(g82
g63
NtRp838
(dp839
g66
(dp840
sg75
g825
sg68
(lp841
g61
(g62
g63
NtRp842
(dp843
g66
(dp844
g74
I4
ssg75
g838
sg68
(lp845
S'text/html,application/xhtml+xml,application/xml;q=0.9,*/*;q=0.8'
p846
asbasbasbag61
(g77
g63
NtRp847
(dp848
g66
(dp849
sg75
g665
sg68
(lp850
g61
(g82
g63
NtRp851
(dp852
g66
(dp853
g86
g87
ssg75
g847
sg68
(lp854
S'http_accept_encoding'
p855
asbag61
(g82
g63
NtRp856
(dp857
g66
(dp858
g93
g94
ssg75
g847
sg68
(lp859
S':'
asbag61
(g82
g63
NtRp860
(dp861
g66
(dp862
sg75
g847
sg68
(lp863
g61
(g62
g63
NtRp864
(dp865
g66
(dp866
g74
I4
ssg75
g860
sg68
(lp867
S'gzip, deflate'
p868
asbasbasbag61
(g77
g63
NtRp869
(dp870
g66
(dp871
sg75
g665
sg68
(lp872
g61
(g82
g63
NtRp873
(dp874
g66
(dp875
g86
g87
ssg75
g869
sg68
(lp876
S'http_accept_language'
p877
asbag61
(g82
g63
NtRp878
(dp879
g66
(dp880
g93
g94
ssg75
g869
sg68
(lp881
S':'
asbag61
(g82
g63
NtRp882
(dp883
g66
(dp884
sg75
g869
sg68
(lp885
g61
(g62
g63
NtRp886
(dp887
g66
(dp888
g74
I4
ssg75
g882
sg68
(lp889
S'en-US,en;q=0.5'
p890
asbasbasbag61
(g77
g63
NtRp891
(dp892
g66
(dp893
sg75
g665
sg68
(lp894
g61
(g82
g63
NtRp895
(dp896
g66
(dp897
g86
g87
ssg75
g891
sg68
(lp898
S'http_cache_control'
p899
asbag61
(g82
g63
NtRp900
(dp901
g66
(dp902
g93
g94
ssg75
g891
sg68
(lp903
S':'
asbag61
(g82
g63
NtRp904
(dp905
g66
(dp906
sg75
g891
sg68
(lp907
g61
(g62
g63
NtRp908
(dp909
g66
(dp910
g74
I4
ssg75
g904
sg68
(lp911
S'max-age=0'
p912
asbasbasbag61
(g77
g63
NtRp913
(dp914
g66
(dp915
sg75
g665
sg68
(lp916
g61
(g82
g63
NtRp917
(dp918
g66
(dp919
g86
g87
ssg75
g913
sg68
(lp920
S'http_connection'
p921
asbag61
(g82
g63
NtRp922
(dp923
g66
(dp924
g93
g94
ssg75
g913
sg68
(lp925
S':'
asbag61
(g82
g63
NtRp926
(dp927
g66
(dp928
sg75
g913
sg68
(lp929
g61
(g62
g63
NtRp930
(dp931
g66
(dp932
g74
I4
ssg75
g926
sg68
(lp933
S'keep-alive'
p934
asbasbasbag61
(g77
g63
NtRp935
(dp936
g66
(dp937
sg75
g665
sg68
(lp938
g61
(g82
g63
NtRp939
(dp940
g66
(dp941
g86
g87
ssg75
g935
sg68
(lp942
S'http_cookie'
p943
asbag61
(g82
g63
NtRp944
(dp945
g66
(dp946
g93
g94
ssg75
g935
sg68
(lp947
S':'
asbag61
(g82
g63
NtRp948
(dp949
g66
(dp950
sg75
g935
sg68
(lp951
g61
(g62
g63
NtRp952
(dp953
g66
(dp954
g74
I4
ssg75
g948
sg68
(lp955
S'session_id_sueldos=127.0.0.1-b5ab5c43-cb03-494e-8551-1bb3b74c2938; session_id_admin=127.0.0.1-24af4e14-6d96-45d7-9010-207206732bb5'
p956
asbasbasbag61
(g77
g63
NtRp957
(dp958
g66
(dp959
sg75
g665
sg68
(lp960
g61
(g82
g63
NtRp961
(dp962
g66
(dp963
g86
g87
ssg75
g957
sg68
(lp964
S'http_host'
p965
asbag61
(g82
g63
NtRp966
(dp967
g66
(dp968
g93
g94
ssg75
g957
sg68
(lp969
S':'
asbag61
(g82
g63
NtRp970
(dp971
g66
(dp972
sg75
g957
sg68
(lp973
g61
(g62
g63
NtRp974
(dp975
g66
(dp976
g74
I4
ssg75
g970
sg68
(lp977
S'127.0.0.1:8000'
p978
asbasbasbag61
(g77
g63
NtRp979
(dp980
g66
(dp981
sg75
g665
sg68
(lp982
g61
(g82
g63
NtRp983
(dp984
g66
(dp985
g86
g87
ssg75
g979
sg68
(lp986
S'http_user_agent'
p987
asbag61
(g82
g63
NtRp988
(dp989
g66
(dp990
g93
g94
ssg75
g979
sg68
(lp991
S':'
asbag61
(g82
g63
NtRp992
(dp993
g66
(dp994
sg75
g979
sg68
(lp995
g61
(g62
g63
NtRp996
(dp997
g66
(dp998
g74
I4
ssg75
g992
sg68
(lp999
S'Mozilla/5.0 (X11; Linux x86_64; rv:17.0) Gecko/20100101 Firefox/17.0 Iceweasel/17.0.1'
p1000
asbasbasbag61
(g77
g63
NtRp1001
(dp1002
g66
(dp1003
sg75
g665
sg68
(lp1004
g61
(g82
g63
NtRp1005
(dp1006
g66
(dp1007
g86
g87
ssg75
g1001
sg68
(lp1008
S'is_jython'
p1009
asbag61
(g82
g63
NtRp1010
(dp1011
g66
(dp1012
g93
g94
ssg75
g1001
sg68
(lp1013
S':'
asbag61
(g82
g63
NtRp1014
(dp1015
g66
(dp1016
sg75
g1001
sg68
(lp1017
g61
(g62
g63
NtRp1018
(dp1019
g66
(dp1020
g74
I4
ssg75
g1014
sg68
(lp1021
g104
asbasbasbag61
(g77
g63
NtRp1022
(dp1023
g66
(dp1024
sg75
g665
sg68
(lp1025
g61
(g82
g63
NtRp1026
(dp1027
g66
(dp1028
g86
g87
ssg75
g1022
sg68
(lp1029
S'is_pypy'
p1030
asbag61
(g82
g63
NtRp1031
(dp1032
g66
(dp1033
g93
g94
ssg75
g1022
sg68
(lp1034
S':'
asbag61
(g82
g63
NtRp1035
(dp1036
g66
(dp1037
sg75
g1022
sg68
(lp1038
g61
(g62
g63
NtRp1039
(dp1040
g66
(dp1041
g74
I4
ssg75
g1035
sg68
(lp1042
g104
asbasbasbag61
(g77
g63
NtRp1043
(dp1044
g66
(dp1045
sg75
g665
sg68
(lp1046
g61
(g82
g63
NtRp1047
(dp1048
g66
(dp1049
g86
g87
ssg75
g1043
sg68
(lp1050
S'local_hosts'
p1051
asbag61
(g82
g63
NtRp1052
(dp1053
g66
(dp1054
g93
g94
ssg75
g1043
sg68
(lp1055
S':'
asbag61
(g82
g63
NtRp1056
(dp1057
g66
(dp1058
sg75
g1043
sg68
(lp1059
g61
(g62
g63
NtRp1060
(dp1061
g66
(dp1062
g74
I4
ssg75
g1056
sg68
(lp1063
g61
(g70
g63
NtRp1064
(dp1065
g66
(dp1066
g74
I3
ssg75
Nsg68
(lp1067
g61
(g77
g63
NtRp1068
(dp1069
g66
(dp1070
sg75
g1064
sg68
(lp1071
g61
(g82
g63
NtRp1072
(dp1073
g66
(dp1074
sg75
g1068
sg68
(lp1075
g61
(g62
g63
NtRp1076
(dp1077
g66
(dp1078
g74
I3
ssg75
g1072
sg68
(lp1079
S'malena'
p1080
asbasbasbag61
(g77
g63
NtRp1081
(dp1082
g66
(dp1083
sg75
g1064
sg68
(lp1084
g61
(g82
g63
NtRp1085
(dp1086
g66
(dp1087
sg75
g1081
sg68
(lp1088
g61
(g62
g63
NtRp1089
(dp1090
g66
(dp1091
g74
I3
ssg75
g1085
sg68
(lp1092
S'::1'
p1093
asbasbasbag61
(g77
g63
NtRp1094
(dp1095
g66
(dp1096
sg75
g1064
sg68
(lp1097
g61
(g82
g63
NtRp1098
(dp1099
g66
(dp1100
sg75
g1094
sg68
(lp1101
g61
(g62
g63
NtRp1102
(dp1103
g66
(dp1104
g74
I3
ssg75
g1098
sg68
(lp1105
S'127.0.1.1'
p1106
asbasbasbag61
(g77
g63
NtRp1107
(dp1108
g66
(dp1109
sg75
g1064
sg68
(lp1110
g61
(g82
g63
NtRp1111
(dp1112
g66
(dp1113
sg75
g1107
sg68
(lp1114
g61
(g62
g63
NtRp1115
(dp1116
g66
(dp1117
g74
I3
ssg75
g1111
sg68
(lp1118
S'::ffff:127.0.0.1'
p1119
asbasbasbag61
(g77
g63
NtRp1120
(dp1121
g66
(dp1122
sg75
g1064
sg68
(lp1123
g61
(g82
g63
NtRp1124
(dp1125
g66
(dp1126
sg75
g1120
sg68
(lp1127
g61
(g62
g63
NtRp1128
(dp1129
g66
(dp1130
g74
I3
ssg75
g1124
sg68
(lp1131
S'127.0.0.1'
p1132
asbasbasbasbasbasbasbag61
(g77
g63
NtRp1133
(dp1134
g66
(dp1135
sg75
g665
sg68
(lp1136
g61
(g82
g63
NtRp1137
(dp1138
g66
(dp1139
g86
g87
ssg75
g1133
sg68
(lp1140
S'path_info'
p1141
asbag61
(g82
g63
NtRp1142
(dp1143
g66
(dp1144
g93
g94
ssg75
g1133
sg68
(lp1145
S':'
asbag61
(g82
g63
NtRp1146
(dp1147
g66
(dp1148
sg75
g1133
sg68
(lp1149
g61
(g62
g63
NtRp1150
(dp1151
g66
(dp1152
g74
I4
ssg75
g1146
sg68
(lp1153
S'/sueldos/altas/empleadores'
p1154
asbasbasbag61
(g77
g63
NtRp1155
(dp1156
g66
(dp1157
sg75
g665
sg68
(lp1158
g61
(g82
g63
NtRp1159
(dp1160
g66
(dp1161
g86
g87
ssg75
g1155
sg68
(lp1162
S'query_string'
p1163
asbag61
(g82
g63
NtRp1164
(dp1165
g66
(dp1166
g93
g94
ssg75
g1155
sg68
(lp1167
S':'
asbag61
(g82
g63
NtRp1168
(dp1169
g66
(dp1170
sg75
g1155
sg68
(lp1171
g61
(g62
g63
NtRp1172
(dp1173
g66
(dp1174
g74
I4
ssg75
g1168
sg68
(lp1175
S''
asbasbasbag61
(g77
g63
NtRp1176
(dp1177
g66
(dp1178
sg75
g665
sg68
(lp1179
g61
(g82
g63
NtRp1180
(dp1181
g66
(dp1182
g86
g87
ssg75
g1176
sg68
(lp1183
S'remote_addr'
p1184
asbag61
(g82
g63
NtRp1185
(dp1186
g66
(dp1187
g93
g94
ssg75
g1176
sg68
(lp1188
S':'
asbag61
(g82
g63
NtRp1189
(dp1190
g66
(dp1191
sg75
g1176
sg68
(lp1192
g61
(g62
g63
NtRp1193
(dp1194
g66
(dp1195
g74
I4
ssg75
g1189
sg68
(lp1196
g216
asbasbasbag61
(g77
g63
NtRp1197
(dp1198
g66
(dp1199
sg75
g665
sg68
(lp1200
g61
(g82
g63
NtRp1201
(dp1202
g66
(dp1203
g86
g87
ssg75
g1197
sg68
(lp1204
S'remote_port'
p1205
asbag61
(g82
g63
NtRp1206
(dp1207
g66
(dp1208
g93
g94
ssg75
g1197
sg68
(lp1209
S':'
asbag61
(g82
g63
NtRp1210
(dp1211
g66
(dp1212
sg75
g1197
sg68
(lp1213
g61
(g62
g63
NtRp1214
(dp1215
g66
(dp1216
g74
I4
ssg75
g1210
sg68
(lp1217
S'57290'
p1218
asbasbasbag61
(g77
g63
NtRp1219
(dp1220
g66
(dp1221
sg75
g665
sg68
(lp1222
g61
(g82
g63
NtRp1223
(dp1224
g66
(dp1225
g86
g87
ssg75
g1219
sg68
(lp1226
S'request_method'
p1227
asbag61
(g82
g63
NtRp1228
(dp1229
g66
(dp1230
g93
g94
ssg75
g1219
sg68
(lp1231
S':'
asbag61
(g82
g63
NtRp1232
(dp1233
g66
(dp1234
sg75
g1219
sg68
(lp1235
g61
(g62
g63
NtRp1236
(dp1237
g66
(dp1238
g74
I4
ssg75
g1232
sg68
(lp1239
S'GET'
p1240
asbasbasbag61
(g77
g63
NtRp1241
(dp1242
g66
(dp1243
sg75
g665
sg68
(lp1244
g61
(g82
g63
NtRp1245
(dp1246
g66
(dp1247
g86
g87
ssg75
g1241
sg68
(lp1248
S'request_uri'
p1249
asbag61
(g82
g63
NtRp1250
(dp1251
g66
(dp1252
g93
g94
ssg75
g1241
sg68
(lp1253
S':'
asbag61
(g82
g63
NtRp1254
(dp1255
g66
(dp1256
sg75
g1241
sg68
(lp1257
g61
(g62
g63
NtRp1258
(dp1259
g66
(dp1260
g74
I4
ssg75
g1254
sg68
(lp1261
g1154
asbasbasbag61
(g77
g63
NtRp1262
(dp1263
g66
(dp1264
sg75
g665
sg68
(lp1265
g61
(g82
g63
NtRp1266
(dp1267
g66
(dp1268
g86
g87
ssg75
g1262
sg68
(lp1269
S'script_name'
p1270
asbag61
(g82
g63
NtRp1271
(dp1272
g66
(dp1273
g93
g94
ssg75
g1262
sg68
(lp1274
S':'
asbag61
(g82
g63
NtRp1275
(dp1276
g66
(dp1277
sg75
g1262
sg68
(lp1278
g61
(g62
g63
NtRp1279
(dp1280
g66
(dp1281
g74
I4
ssg75
g1275
sg68
(lp1282
S''
asbasbasbag61
(g77
g63
NtRp1283
(dp1284
g66
(dp1285
sg75
g665
sg68
(lp1286
g61
(g82
g63
NtRp1287
(dp1288
g66
(dp1289
g86
g87
ssg75
g1283
sg68
(lp1290
S'server_name'
p1291
asbag61
(g82
g63
NtRp1292
(dp1293
g66
(dp1294
g93
g94
ssg75
g1283
sg68
(lp1295
S':'
asbag61
(g82
g63
NtRp1296
(dp1297
g66
(dp1298
sg75
g1283
sg68
(lp1299
g61
(g62
g63
NtRp1300
(dp1301
g66
(dp1302
g74
I4
ssg75
g1296
sg68
(lp1303
S'malena'
p1304
asbasbasbag61
(g77
g63
NtRp1305
(dp1306
g66
(dp1307
sg75
g665
sg68
(lp1308
g61
(g82
g63
NtRp1309
(dp1310
g66
(dp1311
g86
g87
ssg75
g1305
sg68
(lp1312
S'server_port'
p1313
asbag61
(g82
g63
NtRp1314
(dp1315
g66
(dp1316
g93
g94
ssg75
g1305
sg68
(lp1317
S':'
asbag61
(g82
g63
NtRp1318
(dp1319
g66
(dp1320
sg75
g1305
sg68
(lp1321
g61
(g62
g63
NtRp1322
(dp1323
g66
(dp1324
g74
I4
ssg75
g1318
sg68
(lp1325
S'8000'
p1326
asbasbasbag61
(g77
g63
NtRp1327
(dp1328
g66
(dp1329
sg75
g665
sg68
(lp1330
g61
(g82
g63
NtRp1331
(dp1332
g66
(dp1333
g86
g87
ssg75
g1327
sg68
(lp1334
S'server_protocol'
p1335
asbag61
(g82
g63
NtRp1336
(dp1337
g66
(dp1338
g93
g94
ssg75
g1327
sg68
(lp1339
S':'
asbag61
(g82
g63
NtRp1340
(dp1341
g66
(dp1342
sg75
g1327
sg68
(lp1343
g61
(g62
g63
NtRp1344
(dp1345
g66
(dp1346
g74
I4
ssg75
g1340
sg68
(lp1347
S'HTTP/1.1'
p1348
asbasbasbag61
(g77
g63
NtRp1349
(dp1350
g66
(dp1351
sg75
g665
sg68
(lp1352
g61
(g82
g63
NtRp1353
(dp1354
g66
(dp1355
g86
g87
ssg75
g1349
sg68
(lp1356
S'server_software'
p1357
asbag61
(g82
g63
NtRp1358
(dp1359
g66
(dp1360
g93
g94
ssg75
g1349
sg68
(lp1361
S':'
asbag61
(g82
g63
NtRp1362
(dp1363
g66
(dp1364
sg75
g1349
sg68
(lp1365
g61
(g62
g63
NtRp1366
(dp1367
g66
(dp1368
g74
I4
ssg75
g1362
sg68
(lp1369
S'Rocket 1.2.6'
p1370
asbasbasbag61
(g77
g63
NtRp1371
(dp1372
g66
(dp1373
sg75
g665
sg68
(lp1374
g61
(g82
g63
NtRp1375
(dp1376
g66
(dp1377
g86
g87
ssg75
g1371
sg68
(lp1378
S'web2py_path'
p1379
asbag61
(g82
g63
NtRp1380
(dp1381
g66
(dp1382
g93
g94
ssg75
g1371
sg68
(lp1383
S':'
asbag61
(g82
g63
NtRp1384
(dp1385
g66
(dp1386
sg75
g1371
sg68
(lp1387
g61
(g62
g63
NtRp1388
(dp1389
g66
(dp1390
g74
I4
ssg75
g1384
sg68
(lp1391
g712
asbasbasbag61
(g77
g63
NtRp1392
(dp1393
g66
(dp1394
sg75
g665
sg68
(lp1395
g61
(g82
g63
NtRp1396
(dp1397
g66
(dp1398
g86
g87
ssg75
g1392
sg68
(lp1399
S'web2py_version'
p1400
asbag61
(g82
g63
NtRp1401
(dp1402
g66
(dp1403
g93
g94
ssg75
g1392
sg68
(lp1404
S':'
asbag61
(g82
g63
NtRp1405
(dp1406
g66
(dp1407
sg75
g1392
sg68
(lp1408
g61
(g62
g63
NtRp1409
(dp1410
g66
(dp1411
g74
I4
ssg75
g1405
sg68
(lp1412
g61
(g70
g63
NtRp1413
(dp1414
g66
(dp1415
g74
I3
ssg75
Nsg68
(lp1416
g61
(g77
g63
NtRp1417
(dp1418
g66
(dp1419
sg75
g1413
sg68
(lp1420
g61
(g82
g63
NtRp1421
(dp1422
g66
(dp1423
sg75
g1417
sg68
(lp1424
g61
(g62
g63
NtRp1425
(dp1426
g66
(dp1427
g74
I3
ssg75
g1421
sg68
(lp1428
S'2'
asbasbasbag61
(g77
g63
NtRp1429
(dp1430
g66
(dp1431
sg75
g1413
sg68
(lp1432
g61
(g82
g63
NtRp1433
(dp1434
g66
(dp1435
sg75
g1429
sg68
(lp1436
g61
(g62
g63
NtRp1437
(dp1438
g66
(dp1439
g74
I3
ssg75
g1433
sg68
(lp1440
S'3'
asbasbasbag61
(g77
g63
NtRp1441
(dp1442
g66
(dp1443
sg75
g1413
sg68
(lp1444
g61
(g82
g63
NtRp1445
(dp1446
g66
(dp1447
sg75
g1441
sg68
(lp1448
g61
(g62
g63
NtRp1449
(dp1450
g66
(dp1451
g74
I3
ssg75
g1445
sg68
(lp1452
S'0'
asbasbasbag61
(g77
g63
NtRp1453
(dp1454
g66
(dp1455
sg75
g1413
sg68
(lp1456
g61
(g82
g63
NtRp1457
(dp1458
g66
(dp1459
sg75
g1453
sg68
(lp1460
g61
(g62
g63
NtRp1461
(dp1462
g66
(dp1463
g74
I3
ssg75
g1457
sg68
(lp1464
S'datetime.datetime(2012, 12, 4, 10, 55, 53)'
p1465
asbasbasbag61
(g77
g63
NtRp1466
(dp1467
g66
(dp1468
sg75
g1413
sg68
(lp1469
g61
(g82
g63
NtRp1470
(dp1471
g66
(dp1472
sg75
g1466
sg68
(lp1473
g61
(g62
g63
NtRp1474
(dp1475
g66
(dp1476
g74
I3
ssg75
g1470
sg68
(lp1477
S'rc'
p1478
asbasbasbasbasbasbasbag61
(g77
g63
NtRp1479
(dp1480
g66
(dp1481
sg75
g665
sg68
(lp1482
g61
(g82
g63
NtRp1483
(dp1484
g66
(dp1485
g86
g87
ssg75
g1479
sg68
(lp1486
S'wsgi_errors'
p1487
asbag61
(g82
g63
NtRp1488
(dp1489
g66
(dp1490
g93
g94
ssg75
g1479
sg68
(lp1491
S':'
asbag61
(g82
g63
NtRp1492
(dp1493
g66
(dp1494
sg75
g1479
sg68
(lp1495
g61
(g62
g63
NtRp1496
(dp1497
g66
(dp1498
g74
I4
ssg75
g1492
sg68
(lp1499
S"<open file '<stderr>', mode 'w' at 0x7f516074c270>"
p1500
asbasbasbag61
(g77
g63
NtRp1501
(dp1502
g66
(dp1503
sg75
g665
sg68
(lp1504
g61
(g82
g63
NtRp1505
(dp1506
g66
(dp1507
g86
g87
ssg75
g1501
sg68
(lp1508
S'wsgi_file_wrapper'
p1509
asbag61
(g82
g63
NtRp1510
(dp1511
g66
(dp1512
g93
g94
ssg75
g1501
sg68
(lp1513
S':'
asbag61
(g82
g63
NtRp1514
(dp1515
g66
(dp1516
sg75
g1501
sg68
(lp1517
g61
(g62
g63
NtRp1518
(dp1519
g66
(dp1520
g74
I4
ssg75
g1514
sg68
(lp1521
S'<class wsgiref.util.FileWrapper at 0x1568c18>'
p1522
asbasbasbag61
(g77
g63
NtRp1523
(dp1524
g66
(dp1525
sg75
g665
sg68
(lp1526
g61
(g82
g63
NtRp1527
(dp1528
g66
(dp1529
g86
g87
ssg75
g1523
sg68
(lp1530
S'wsgi_input'
p1531
asbag61
(g82
g63
NtRp1532
(dp1533
g66
(dp1534
g93
g94
ssg75
g1523
sg68
(lp1535
S':'
asbag61
(g82
g63
NtRp1536
(dp1537
g66
(dp1538
sg75
g1523
sg68
(lp1539
g61
(g62
g63
NtRp1540
(dp1541
g66
(dp1542
g74
I4
ssg75
g1536
sg68
(lp1543
S'<socket._fileobject object at 0x2613f50>'
p1544
asbasbasbag61
(g77
g63
NtRp1545
(dp1546
g66
(dp1547
sg75
g665
sg68
(lp1548
g61
(g82
g63
NtRp1549
(dp1550
g66
(dp1551
g86
g87
ssg75
g1545
sg68
(lp1552
S'wsgi_multiprocess'
p1553
asbag61
(g82
g63
NtRp1554
(dp1555
g66
(dp1556
g93
g94
ssg75
g1545
sg68
(lp1557
S':'
asbag61
(g82
g63
NtRp1558
(dp1559
g66
(dp1560
sg75
g1545
sg68
(lp1561
g61
(g62
g63
NtRp1562
(dp1563
g66
(dp1564
g74
I4
ssg75
g1558
sg68
(lp1565
g104
asbasbasbag61
(g77
g63
NtRp1566
(dp1567
g66
(dp1568
sg75
g665
sg68
(lp1569
g61
(g82
g63
NtRp1570
(dp1571
g66
(dp1572
g86
g87
ssg75
g1566
sg68
(lp1573
S'wsgi_multithread'
p1574
asbag61
(g82
g63
NtRp1575
(dp1576
g66
(dp1577
g93
g94
ssg75
g1566
sg68
(lp1578
S':'
asbag61
(g82
g63
NtRp1579
(dp1580
g66
(dp1581
sg75
g1566
sg68
(lp1582
g61
(g62
g63
NtRp1583
(dp1584
g66
(dp1585
g74
I4
ssg75
g1579
sg68
(lp1586
S'True'
p1587
asbasbasbag61
(g77
g63
NtRp1588
(dp1589
g66
(dp1590
sg75
g665
sg68
(lp1591
g61
(g82
g63
NtRp1592
(dp1593
g66
(dp1594
g86
g87
ssg75
g1588
sg68
(lp1595
S'wsgi_run_once'
p1596
asbag61
(g82
g63
NtRp1597
(dp1598
g66
(dp1599
g93
g94
ssg75
g1588
sg68
(lp1600
S':'
asbag61
(g82
g63
NtRp1601
(dp1602
g66
(dp1603
sg75
g1588
sg68
(lp1604
g61
(g62
g63
NtRp1605
(dp1606
g66
(dp1607
g74
I4
ssg75
g1601
sg68
(lp1608
g104
asbasbasbag61
(g77
g63
NtRp1609
(dp1610
g66
(dp1611
sg75
g665
sg68
(lp1612
g61
(g82
g63
NtRp1613
(dp1614
g66
(dp1615
g86
g87
ssg75
g1609
sg68
(lp1616
S'wsgi_url_scheme'
p1617
asbag61
(g82
g63
NtRp1618
(dp1619
g66
(dp1620
g93
g94
ssg75
g1609
sg68
(lp1621
S':'
asbag61
(g82
g63
NtRp1622
(dp1623
g66
(dp1624
sg75
g1609
sg68
(lp1625
g61
(g62
g63
NtRp1626
(dp1627
g66
(dp1628
g74
I4
ssg75
g1622
sg68
(lp1629
S'http'
p1630
asbasbasbag61
(g77
g63
NtRp1631
(dp1632
g66
(dp1633
sg75
g665
sg68
(lp1634
g61
(g82
g63
NtRp1635
(dp1636
g66
(dp1637
g86
g87
ssg75
g1631
sg68
(lp1638
S'wsgi_version'
p1639
asbag61
(g82
g63
NtRp1640
(dp1641
g66
(dp1642
g93
g94
ssg75
g1631
sg68
(lp1643
S':'
asbag61
(g82
g63
NtRp1644
(dp1645
g66
(dp1646
sg75
g1631
sg68
(lp1647
g61
(g62
g63
NtRp1648
(dp1649
g66
(dp1650
g74
I4
ssg75
g1644
sg68
(lp1651
g61
(g70
g63
NtRp1652
(dp1653
g66
(dp1654
g74
I3
ssg75
Nsg68
(lp1655
g61
(g77
g63
NtRp1656
(dp1657
g66
(dp1658
sg75
g1652
sg68
(lp1659
g61
(g82
g63
NtRp1660
(dp1661
g66
(dp1662
sg75
g1656
sg68
(lp1663
g61
(g62
g63
NtRp1664
(dp1665
g66
(dp1666
g74
I3
ssg75
g1660
sg68
(lp1667
S'1'
asbasbasbag61
(g77
g63
NtRp1668
(dp1669
g66
(dp1670
sg75
g1652
sg68
(lp1671
g61
(g82
g63
NtRp1672
(dp1673
g66
(dp1674
sg75
g1668
sg68
(lp1675
g61
(g62
g63
NtRp1676
(dp1677
g66
(dp1678
g74
I3
ssg75
g1672
sg68
(lp1679
S'0'
asbasbasbasbasbasbasbasbasbasbasbag61
(g77
g63
NtRp1680
(dp1681
g66
(dp1682
sg75
g71
sg68
(lp1683
g61
(g82
g63
NtRp1684
(dp1685
g66
(dp1686
g86
g87
ssg75
g1680
sg68
(lp1687
S'extension'
p1688
asbag61
(g82
g63
NtRp1689
(dp1690
g66
(dp1691
g93
g94
ssg75
g1680
sg68
(lp1692
S':'
asbag61
(g82
g63
NtRp1693
(dp1694
g66
(dp1695
sg75
g1680
sg68
(lp1696
g61
(g62
g63
NtRp1697
(dp1698
g66
(dp1699
g74
I5
ssg75
g1693
sg68
(lp1700
S'html'
p1701
asbasbasbag61
(g77
g63
NtRp1702
(dp1703
g66
(dp1704
sg75
g71
sg68
(lp1705
g61
(g82
g63
NtRp1706
(dp1707
g66
(dp1708
g86
g87
ssg75
g1702
sg68
(lp1709
S'folder'
p1710
asbag61
(g82
g63
NtRp1711
(dp1712
g66
(dp1713
g93
g94
ssg75
g1702
sg68
(lp1714
S':'
asbag61
(g82
g63
NtRp1715
(dp1716
g66
(dp1717
sg75
g1702
sg68
(lp1718
g61
(g62
g63
NtRp1719
(dp1720
g66
(dp1721
g74
I5
ssg75
g1715
sg68
(lp1722
S'/home/marco/projects/contabilidad/web2py/applications/sueldos/'
p1723
asbasbasbag61
(g77
g63
NtRp1724
(dp1725
g66
(dp1726
sg75
g71
sg68
(lp1727
g61
(g82
g63
NtRp1728
(dp1729
g66
(dp1730
g86
g87
ssg75
g1724
sg68
(lp1731
S'function'
p1732
asbag61
(g82
g63
NtRp1733
(dp1734
g66
(dp1735
g93
g94
ssg75
g1724
sg68
(lp1736
S':'
asbag61
(g82
g63
NtRp1737
(dp1738
g66
(dp1739
sg75
g1724
sg68
(lp1740
g61
(g62
g63
NtRp1741
(dp1742
g66
(dp1743
g74
I5
ssg75
g1737
sg68
(lp1744
S'empleadores'
p1745
asbasbasbag61
(g77
g63
NtRp1746
(dp1747
g66
(dp1748
sg75
g71
sg68
(lp1749
g61
(g82
g63
NtRp1750
(dp1751
g66
(dp1752
g86
g87
ssg75
g1746
sg68
(lp1753
S'get_vars'
p1754
asbag61
(g82
g63
NtRp1755
(dp1756
g66
(dp1757
g93
g94
ssg75
g1746
sg68
(lp1758
S':'
asbag61
(g82
g63
NtRp1759
(dp1760
g66
(dp1761
sg75
g1746
sg68
(lp1762
g61
(g62
g63
NtRp1763
(dp1764
g66
(dp1765
g74
I5
ssg75
g1759
sg68
(lp1766
g61
(g70
g63
NtRp1767
(dp1768
g66
(dp1769
g74
I4
ssg75
Nsg68
(lp1770
sbasbasbasbag61
(g77
g63
NtRp1771
(dp1772
g66
(dp1773
sg75
g71
sg68
(lp1774
g61
(g82
g63
NtRp1775
(dp1776
g66
(dp1777
g86
g87
ssg75
g1771
sg68
(lp1778
S'global_settings'
p1779
asbag61
(g82
g63
NtRp1780
(dp1781
g66
(dp1782
g93
g94
ssg75
g1771
sg68
(lp1783
S':'
asbag61
(g82
g63
NtRp1784
(dp1785
g66
(dp1786
sg75
g1771
sg68
(lp1787
g61
(g62
g63
NtRp1788
(dp1789
g66
(dp1790
g74
I5
ssg75
g1784
sg68
(lp1791
g61
(g70
g63
NtRp1792
(dp1793
g66
(dp1794
g74
I4
ssg75
Nsg68
(lp1795
g61
(g77
g63
NtRp1796
(dp1797
g66
(dp1798
sg75
g1792
sg68
(lp1799
g61
(g82
g63
NtRp1800
(dp1801
g66
(dp1802
g86
g87
ssg75
g1796
sg68
(lp1803
g677
asbag61
(g82
g63
NtRp1804
(dp1805
g66
(dp1806
g93
g94
ssg75
g1796
sg68
(lp1807
S':'
asbag61
(g82
g63
NtRp1808
(dp1809
g66
(dp1810
sg75
g1796
sg68
(lp1811
g61
(g62
g63
NtRp1812
(dp1813
g66
(dp1814
g74
I4
ssg75
g1808
sg68
(lp1815
S"set(['/home/marco/projects/contabilidad/web2py/applications/admin/', '/home/marco/projects/contabilidad/web2py/applications/sueldos/'])"
p1816
asbasbasbag61
(g77
g63
NtRp1817
(dp1818
g66
(dp1819
sg75
g1792
sg68
(lp1820
g61
(g82
g63
NtRp1821
(dp1822
g66
(dp1823
g86
g87
ssg75
g1817
sg68
(lp1824
g699
asbag61
(g82
g63
NtRp1825
(dp1826
g66
(dp1827
g93
g94
ssg75
g1817
sg68
(lp1828
S':'
asbag61
(g82
g63
NtRp1829
(dp1830
g66
(dp1831
sg75
g1817
sg68
(lp1832
g61
(g62
g63
NtRp1833
(dp1834
g66
(dp1835
g74
I4
ssg75
g1829
sg68
(lp1836
g712
asbasbasbag61
(g77
g63
NtRp1837
(dp1838
g66
(dp1839
sg75
g1792
sg68
(lp1840
g61
(g82
g63
NtRp1841
(dp1842
g66
(dp1843
g86
g87
ssg75
g1837
sg68
(lp1844
g721
asbag61
(g82
g63
NtRp1845
(dp1846
g66
(dp1847
g93
g94
ssg75
g1837
sg68
(lp1848
S':'
asbag61
(g82
g63
NtRp1849
(dp1850
g66
(dp1851
sg75
g1837
sg68
(lp1852
g61
(g62
g63
NtRp1853
(dp1854
g66
(dp1855
g74
I4
ssg75
g1849
sg68
(lp1856
g61
(g70
g63
NtRp1857
(dp1858
g66
(dp1859
g74
I3
ssg75
Nsg68
(lp1860
sbasbasbasbag61
(g77
g63
NtRp1861
(dp1862
g66
(dp1863
sg75
g1792
sg68
(lp1864
g61
(g82
g63
NtRp1865
(dp1866
g66
(dp1867
g86
g87
ssg75
g1861
sg68
(lp1868
g746
asbag61
(g82
g63
NtRp1869
(dp1870
g66
(dp1871
g93
g94
ssg75
g1861
sg68
(lp1872
S':'
asbag61
(g82
g63
NtRp1873
(dp1874
g66
(dp1875
sg75
g1861
sg68
(lp1876
g61
(g62
g63
NtRp1877
(dp1878
g66
(dp1879
g74
I4
ssg75
g1873
sg68
(lp1880
S"<Values at 0x160b320: {'verbose': False, 'ip': '127.0.0.1', 'with_scheduler': False, 'ips': [], 'shutdown_timeout': 5, 'taskbar': False, 'port': 8000, 'maxthreads': None, 'softcron': False, 'server_name': 'malena', 'bpython': False, 'nogui': False, 'pid_filename': 'httpserver.pid', 'extcron': False, 'runcron': False, 'run_system_tests': False, 'test': None, 'folder': '/home/marco/projects/contabilidad/web2py', 'config': '', 'minthreads': None, 'winservice': '', 'shell': None, 'run': '', 'log_filename': 'httpserver.log', 'debuglevel': 30, 'args': [''], 'socket_timeout': 5, 'ssl_ca_certificate': None, 'scheduler': None, 'profiler_filename': None, 'ssl_private_key': '', 'scheduler_groups': None, 'password': 'asd', 'request_queue_size': 5, 'ssl_certificate': '', 'cronjob': False, 'numthreads': None, 'quiet': False, 'interfaces': None, 'import_models': False, 'timeout': 10, 'plain': False, 'nobanner': False}>"
p1881
asbasbasbag61
(g77
g63
NtRp1882
(dp1883
g66
(dp1884
sg75
g1792
sg68
(lp1885
g61
(g82
g63
NtRp1886
(dp1887
g66
(dp1888
g86
g87
ssg75
g1882
sg68
(lp1889
g768
asbag61
(g82
g63
NtRp1890
(dp1891
g66
(dp1892
g93
g94
ssg75
g1882
sg68
(lp1893
S':'
asbag61
(g82
g63
NtRp1894
(dp1895
g66
(dp1896
sg75
g1882
sg68
(lp1897
g61
(g62
g63
NtRp1898
(dp1899
g66
(dp1900
g74
I4
ssg75
g1894
sg68
(lp1901
S'set([])'
p1902
asbasbasbag61
(g77
g63
NtRp1903
(dp1904
g66
(dp1905
sg75
g1792
sg68
(lp1906
g61
(g82
g63
NtRp1907
(dp1908
g66
(dp1909
g86
g87
ssg75
g1903
sg68
(lp1910
g790
asbag61
(g82
g63
NtRp1911
(dp1912
g66
(dp1913
g93
g94
ssg75
g1903
sg68
(lp1914
S':'
asbag61
(g82
g63
NtRp1915
(dp1916
g66
(dp1917
sg75
g1903
sg68
(lp1918
g61
(g62
g63
NtRp1919
(dp1920
g66
(dp1921
g74
I4
ssg75
g1915
sg68
(lp1922
g104
asbasbasbag61
(g77
g63
NtRp1923
(dp1924
g66
(dp1925
sg75
g1792
sg68
(lp1926
g61
(g82
g63
NtRp1927
(dp1928
g66
(dp1929
g86
g87
ssg75
g1923
sg68
(lp1930
g811
asbag61
(g82
g63
NtRp1931
(dp1932
g66
(dp1933
g93
g94
ssg75
g1923
sg68
(lp1934
S':'
asbag61
(g82
g63
NtRp1935
(dp1936
g66
(dp1937
sg75
g1923
sg68
(lp1938
g61
(g62
g63
NtRp1939
(dp1940
g66
(dp1941
g74
I4
ssg75
g1935
sg68
(lp1942
g824
asbasbasbag61
(g77
g63
NtRp1943
(dp1944
g66
(dp1945
sg75
g1792
sg68
(lp1946
g61
(g82
g63
NtRp1947
(dp1948
g66
(dp1949
g86
g87
ssg75
g1943
sg68
(lp1950
g1009
asbag61
(g82
g63
NtRp1951
(dp1952
g66
(dp1953
g93
g94
ssg75
g1943
sg68
(lp1954
S':'
asbag61
(g82
g63
NtRp1955
(dp1956
g66
(dp1957
sg75
g1943
sg68
(lp1958
g61
(g62
g63
NtRp1959
(dp1960
g66
(dp1961
g74
I4
ssg75
g1955
sg68
(lp1962
g104
asbasbasbag61
(g77
g63
NtRp1963
(dp1964
g66
(dp1965
sg75
g1792
sg68
(lp1966
g61
(g82
g63
NtRp1967
(dp1968
g66
(dp1969
g86
g87
ssg75
g1963
sg68
(lp1970
g1030
asbag61
(g82
g63
NtRp1971
(dp1972
g66
(dp1973
g93
g94
ssg75
g1963
sg68
(lp1974
S':'
asbag61
(g82
g63
NtRp1975
(dp1976
g66
(dp1977
sg75
g1963
sg68
(lp1978
g61
(g62
g63
NtRp1979
(dp1980
g66
(dp1981
g74
I4
ssg75
g1975
sg68
(lp1982
g104
asbasbasbag61
(g77
g63
NtRp1983
(dp1984
g66
(dp1985
sg75
g1792
sg68
(lp1986
g61
(g82
g63
NtRp1987
(dp1988
g66
(dp1989
g86
g87
ssg75
g1983
sg68
(lp1990
g1051
asbag61
(g82
g63
NtRp1991
(dp1992
g66
(dp1993
g93
g94
ssg75
g1983
sg68
(lp1994
S':'
asbag61
(g82
g63
NtRp1995
(dp1996
g66
(dp1997
sg75
g1983
sg68
(lp1998
g61
(g62
g63
NtRp1999
(dp2000
g66
(dp2001
g74
I4
ssg75
g1995
sg68
(lp2002
g61
(g70
g63
NtRp2003
(dp2004
g66
(dp2005
g74
I3
ssg75
Nsg68
(lp2006
g61
(g77
g63
NtRp2007
(dp2008
g66
(dp2009
sg75
g2003
sg68
(lp2010
g61
(g82
g63
NtRp2011
(dp2012
g66
(dp2013
sg75
g2007
sg68
(lp2014
g61
(g62
g63
NtRp2015
(dp2016
g66
(dp2017
g74
I3
ssg75
g2011
sg68
(lp2018
g1080
asbasbasbag61
(g77
g63
NtRp2019
(dp2020
g66
(dp2021
sg75
g2003
sg68
(lp2022
g61
(g82
g63
NtRp2023
(dp2024
g66
(dp2025
sg75
g2019
sg68
(lp2026
g61
(g62
g63
NtRp2027
(dp2028
g66
(dp2029
g74
I3
ssg75
g2023
sg68
(lp2030
g1093
asbasbasbag61
(g77
g63
NtRp2031
(dp2032
g66
(dp2033
sg75
g2003
sg68
(lp2034
g61
(g82
g63
NtRp2035
(dp2036
g66
(dp2037
sg75
g2031
sg68
(lp2038
g61
(g62
g63
NtRp2039
(dp2040
g66
(dp2041
g74
I3
ssg75
g2035
sg68
(lp2042
g1106
asbasbasbag61
(g77
g63
NtRp2043
(dp2044
g66
(dp2045
sg75
g2003
sg68
(lp2046
g61
(g82
g63
NtRp2047
(dp2048
g66
(dp2049
sg75
g2043
sg68
(lp2050
g61
(g62
g63
NtRp2051
(dp2052
g66
(dp2053
g74
I3
ssg75
g2047
sg68
(lp2054
g1119
asbasbasbag61
(g77
g63
NtRp2055
(dp2056
g66
(dp2057
sg75
g2003
sg68
(lp2058
g61
(g82
g63
NtRp2059
(dp2060
g66
(dp2061
sg75
g2055
sg68
(lp2062
g61
(g62
g63
NtRp2063
(dp2064
g66
(dp2065
g74
I3
ssg75
g2059
sg68
(lp2066
g1132
asbasbasbasbasbasbasbag61
(g77
g63
NtRp2067
(dp2068
g66
(dp2069
sg75
g1792
sg68
(lp2070
g61
(g82
g63
NtRp2071
(dp2072
g66
(dp2073
g86
g87
ssg75
g2067
sg68
(lp2074
g1400
asbag61
(g82
g63
NtRp2075
(dp2076
g66
(dp2077
g93
g94
ssg75
g2067
sg68
(lp2078
S':'
asbag61
(g82
g63
NtRp2079
(dp2080
g66
(dp2081
sg75
g2067
sg68
(lp2082
g61
(g62
g63
NtRp2083
(dp2084
g66
(dp2085
g74
I4
ssg75
g2079
sg68
(lp2086
g61
(g70
g63
NtRp2087
(dp2088
g66
(dp2089
g74
I3
ssg75
Nsg68
(lp2090
g61
(g77
g63
NtRp2091
(dp2092
g66
(dp2093
sg75
g2087
sg68
(lp2094
g61
(g82
g63
NtRp2095
(dp2096
g66
(dp2097
sg75
g2091
sg68
(lp2098
g61
(g62
g63
NtRp2099
(dp2100
g66
(dp2101
g74
I3
ssg75
g2095
sg68
(lp2102
S'2'
asbasbasbag61
(g77
g63
NtRp2103
(dp2104
g66
(dp2105
sg75
g2087
sg68
(lp2106
g61
(g82
g63
NtRp2107
(dp2108
g66
(dp2109
sg75
g2103
sg68
(lp2110
g61
(g62
g63
NtRp2111
(dp2112
g66
(dp2113
g74
I3
ssg75
g2107
sg68
(lp2114
S'3'
asbasbasbag61
(g77
g63
NtRp2115
(dp2116
g66
(dp2117
sg75
g2087
sg68
(lp2118
g61
(g82
g63
NtRp2119
(dp2120
g66
(dp2121
sg75
g2115
sg68
(lp2122
g61
(g62
g63
NtRp2123
(dp2124
g66
(dp2125
g74
I3
ssg75
g2119
sg68
(lp2126
S'0'
asbasbasbag61
(g77
g63
NtRp2127
(dp2128
g66
(dp2129
sg75
g2087
sg68
(lp2130
g61
(g82
g63
NtRp2131
(dp2132
g66
(dp2133
sg75
g2127
sg68
(lp2134
g61
(g62
g63
NtRp2135
(dp2136
g66
(dp2137
g74
I3
ssg75
g2131
sg68
(lp2138
S'datetime.datetime(2012, 12, 4, 10, 55, 53)'
p2139
asbasbasbag61
(g77
g63
NtRp2140
(dp2141
g66
(dp2142
sg75
g2087
sg68
(lp2143
g61
(g82
g63
NtRp2144
(dp2145
g66
(dp2146
sg75
g2140
sg68
(lp2147
g61
(g62
g63
NtRp2148
(dp2149
g66
(dp2150
g74
I3
ssg75
g2144
sg68
(lp2151
g1478
asbasbasbasbasbasbasbasbasbasbasbag61
(g77
g63
NtRp2152
(dp2153
g66
(dp2154
sg75
g71
sg68
(lp2155
g61
(g82
g63
NtRp2156
(dp2157
g66
(dp2158
g86
g87
ssg75
g2152
sg68
(lp2159
S'is_https'
p2160
asbag61
(g82
g63
NtRp2161
(dp2162
g66
(dp2163
g93
g94
ssg75
g2152
sg68
(lp2164
S':'
asbag61
(g82
g63
NtRp2165
(dp2166
g66
(dp2167
sg75
g2152
sg68
(lp2168
g61
(g62
g63
NtRp2169
(dp2170
g66
(dp2171
g74
I5
ssg75
g2165
sg68
(lp2172
g104
asbasbasbag61
(g77
g63
NtRp2173
(dp2174
g66
(dp2175
sg75
g71
sg68
(lp2176
g61
(g82
g63
NtRp2177
(dp2178
g66
(dp2179
g86
g87
ssg75
g2173
sg68
(lp2180
S'is_local'
p2181
asbag61
(g82
g63
NtRp2182
(dp2183
g66
(dp2184
g93
g94
ssg75
g2173
sg68
(lp2185
S':'
asbag61
(g82
g63
NtRp2186
(dp2187
g66
(dp2188
sg75
g2173
sg68
(lp2189
g61
(g62
g63
NtRp2190
(dp2191
g66
(dp2192
g74
I5
ssg75
g2186
sg68
(lp2193
g1587
asbasbasbag61
(g77
g63
NtRp2194
(dp2195
g66
(dp2196
sg75
g71
sg68
(lp2197
g61
(g82
g63
NtRp2198
(dp2199
g66
(dp2200
g86
g87
ssg75
g2194
sg68
(lp2201
S'is_restful'
p2202
asbag61
(g82
g63
NtRp2203
(dp2204
g66
(dp2205
g93
g94
ssg75
g2194
sg68
(lp2206
S':'
asbag61
(g82
g63
NtRp2207
(dp2208
g66
(dp2209
sg75
g2194
sg68
(lp2210
g61
(g62
g63
NtRp2211
(dp2212
g66
(dp2213
g74
I5
ssg75
g2207
sg68
(lp2214
g104
asbasbasbag61
(g77
g63
NtRp2215
(dp2216
g66
(dp2217
sg75
g71
sg68
(lp2218
g61
(g82
g63
NtRp2219
(dp2220
g66
(dp2221
g86
g87
ssg75
g2215
sg68
(lp2222
S'now'
p2223
asbag61
(g82
g63
NtRp2224
(dp2225
g66
(dp2226
g93
g94
ssg75
g2215
sg68
(lp2227
S':'
asbag61
(g82
g63
NtRp2228
(dp2229
g66
(dp2230
sg75
g2215
sg68
(lp2231
g61
(g62
g63
NtRp2232
(dp2233
g66
(dp2234
g74
I5
ssg75
g2228
sg68
(lp2235
S'datetime.datetime(2013, 1, 5, 13, 34, 36, 79907)'
p2236
asbasbasbag61
(g77
g63
NtRp2237
(dp2238
g66
(dp2239
sg75
g71
sg68
(lp2240
g61
(g82
g63
NtRp2241
(dp2242
g66
(dp2243
g86
g87
ssg75
g2237
sg68
(lp2244
S'post_vars'
p2245
asbag61
(g82
g63
NtRp2246
(dp2247
g66
(dp2248
g93
g94
ssg75
g2237
sg68
(lp2249
S':'
asbag61
(g82
g63
NtRp2250
(dp2251
g66
(dp2252
sg75
g2237
sg68
(lp2253
g61
(g62
g63
NtRp2254
(dp2255
g66
(dp2256
g74
I5
ssg75
g2250
sg68
(lp2257
g61
(g70
g63
NtRp2258
(dp2259
g66
(dp2260
g74
I4
ssg75
Nsg68
(lp2261
sbasbasbasbag61
(g77
g63
NtRp2262
(dp2263
g66
(dp2264
sg75
g71
sg68
(lp2265
g61
(g82
g63
NtRp2266
(dp2267
g66
(dp2268
g86
g87
ssg75
g2262
sg68
(lp2269
S'raw_args'
p2270
asbag61
(g82
g63
NtRp2271
(dp2272
g66
(dp2273
g93
g94
ssg75
g2262
sg68
(lp2274
S':'
asbag61
(g82
g63
NtRp2275
(dp2276
g66
(dp2277
sg75
g2262
sg68
(lp2278
g61
(g62
g63
NtRp2279
(dp2280
g66
(dp2281
g74
I5
ssg75
g2275
sg68
(lp2282
S''
asbasbasbag61
(g77
g63
NtRp2283
(dp2284
g66
(dp2285
sg75
g71
sg68
(lp2286
g61
(g82
g63
NtRp2287
(dp2288
g66
(dp2289
g86
g87
ssg75
g2283
sg68
(lp2290
S'raw_extension'
p2291
asbag61
(g82
g63
NtRp2292
(dp2293
g66
(dp2294
g93
g94
ssg75
g2283
sg68
(lp2295
S':'
asbag61
(g82
g63
NtRp2296
(dp2297
g66
(dp2298
sg75
g2283
sg68
(lp2299
g61
(g62
g63
NtRp2300
(dp2301
g66
(dp2302
g74
I5
ssg75
g2296
sg68
(lp2303
S'None'
p2304
asbasbasbag61
(g77
g63
NtRp2305
(dp2306
g66
(dp2307
sg75
g71
sg68
(lp2308
g61
(g82
g63
NtRp2309
(dp2310
g66
(dp2311
g86
g87
ssg75
g2305
sg68
(lp2312
S'url'
p2313
asbag61
(g82
g63
NtRp2314
(dp2315
g66
(dp2316
g93
g94
ssg75
g2305
sg68
(lp2317
S':'
asbag61
(g82
g63
NtRp2318
(dp2319
g66
(dp2320
sg75
g2305
sg68
(lp2321
g61
(g62
g63
NtRp2322
(dp2323
g66
(dp2324
g74
I5
ssg75
g2318
sg68
(lp2325
g1154
asbasbasbag61
(g77
g63
NtRp2326
(dp2327
g66
(dp2328
sg75
g71
sg68
(lp2329
g61
(g82
g63
NtRp2330
(dp2331
g66
(dp2332
g86
g87
ssg75
g2326
sg68
(lp2333
S'utcnow'
p2334
asbag61
(g82
g63
NtRp2335
(dp2336
g66
(dp2337
g93
g94
ssg75
g2326
sg68
(lp2338
S':'
asbag61
(g82
g63
NtRp2339
(dp2340
g66
(dp2341
sg75
g2326
sg68
(lp2342
g61
(g62
g63
NtRp2343
(dp2344
g66
(dp2345
g74
I5
ssg75
g2339
sg68
(lp2346
S'datetime.datetime(2013, 1, 5, 16, 34, 36, 79941)'
p2347
asbasbasbag61
(g77
g63
NtRp2348
(dp2349
g66
(dp2350
sg75
g71
sg68
(lp2351
g61
(g82
g63
NtRp2352
(dp2353
g66
(dp2354
g86
g87
ssg75
g2348
sg68
(lp2355
S'uuid'
p2356
asbag61
(g82
g63
NtRp2357
(dp2358
g66
(dp2359
g93
g94
ssg75
g2348
sg68
(lp2360
S':'
asbag61
(g82
g63
NtRp2361
(dp2362
g66
(dp2363
sg75
g2348
sg68
(lp2364
g61
(g62
g63
NtRp2365
(dp2366
g66
(dp2367
g74
I5
ssg75
g2361
sg68
(lp2368
S'sueldos/127.0.0.1.2013-01-05.13-34-36.570fab0d-cdde-4eda-b93c-1a39dbe004f4'
p2369
asbasbasbag61
(g77
g63
NtRp2370
(dp2371
g66
(dp2372
sg75
g71
sg68
(lp2373
g61
(g82
g63
NtRp2374
(dp2375
g66
(dp2376
g86
g87
ssg75
g2370
sg68
(lp2377
S'vars'
p2378
asbag61
(g82
g63
NtRp2379
(dp2380
g66
(dp2381
g93
g94
ssg75
g2370
sg68
(lp2382
S':'
asbag61
(g82
g63
NtRp2383
(dp2384
g66
(dp2385
sg75
g2370
sg68
(lp2386
g61
(g62
g63
NtRp2387
(dp2388
g66
(dp2389
g74
I5
ssg75
g2383
sg68
(lp2390
g61
(g70
g63
NtRp2391
(dp2392
g66
(dp2393
g74
I4
ssg75
Nsg68
(lp2394
sbasbasbasbag61
(g77
g63
NtRp2395
(dp2396
g66
(dp2397
sg75
g71
sg68
(lp2398
g61
(g82
g63
NtRp2399
(dp2400
g66
(dp2401
g86
g87
ssg75
g2395
sg68
(lp2402
S'wsgi'
p2403
asbag61
(g82
g63
NtRp2404
(dp2405
g66
(dp2406
g93
g94
ssg75
g2395
sg68
(lp2407
S':'
asbag61
(g82
g63
NtRp2408
(dp2409
g66
(dp2410
sg75
g2395
sg68
(lp2411
g61
(g62
g63
NtRp2412
(dp2413
g66
(dp2414
g74
I5
ssg75
g2408
sg68
(lp2415
g61
(g70
g63
NtRp2416
(dp2417
g66
(dp2418
g74
I4
ssg75
Nsg68
(lp2419
g61
(g77
g63
NtRp2420
(dp2421
g66
(dp2422
sg75
g2416
sg68
(lp2423
g61
(g82
g63
NtRp2424
(dp2425
g66
(dp2426
g86
g87
ssg75
g2420
sg68
(lp2427
S'environ'
p2428
asbag61
(g82
g63
NtRp2429
(dp2430
g66
(dp2431
g93
g94
ssg75
g2420
sg68
(lp2432
S':'
asbag61
(g82
g63
NtRp2433
(dp2434
g66
(dp2435
sg75
g2420
sg68
(lp2436
g61
(g62
g63
NtRp2437
(dp2438
g66
(dp2439
g74
I4
ssg75
g2433
sg68
(lp2440
g61
(g70
g63
NtRp2441
(dp2442
g66
(dp2443
g74
I3
ssg75
Nsg68
(lp2444
g61
(g77
g63
NtRp2445
(dp2446
g66
(dp2447
sg75
g2441
sg68
(lp2448
g61
(g82
g63
NtRp2449
(dp2450
g66
(dp2451
g86
g87
ssg75
g2445
sg68
(lp2452
S'HTTP_ACCEPT'
p2453
asbag61
(g82
g63
NtRp2454
(dp2455
g66
(dp2456
g93
g94
ssg75
g2445
sg68
(lp2457
S':'
asbag61
(g82
g63
NtRp2458
(dp2459
g66
(dp2460
sg75
g2445
sg68
(lp2461
g61
(g62
g63
NtRp2462
(dp2463
g66
(dp2464
g74
I3
ssg75
g2458
sg68
(lp2465
g846
asbasbasbag61
(g77
g63
NtRp2466
(dp2467
g66
(dp2468
sg75
g2441
sg68
(lp2469
g61
(g82
g63
NtRp2470
(dp2471
g66
(dp2472
g86
g87
ssg75
g2466
sg68
(lp2473
S'HTTP_ACCEPT_ENCODING'
p2474
asbag61
(g82
g63
NtRp2475
(dp2476
g66
(dp2477
g93
g94
ssg75
g2466
sg68
(lp2478
S':'
asbag61
(g82
g63
NtRp2479
(dp2480
g66
(dp2481
sg75
g2466
sg68
(lp2482
g61
(g62
g63
NtRp2483
(dp2484
g66
(dp2485
g74
I3
ssg75
g2479
sg68
(lp2486
g868
asbasbasbag61
(g77
g63
NtRp2487
(dp2488
g66
(dp2489
sg75
g2441
sg68
(lp2490
g61
(g82
g63
NtRp2491
(dp2492
g66
(dp2493
g86
g87
ssg75
g2487
sg68
(lp2494
S'HTTP_ACCEPT_LANGUAGE'
p2495
asbag61
(g82
g63
NtRp2496
(dp2497
g66
(dp2498
g93
g94
ssg75
g2487
sg68
(lp2499
S':'
asbag61
(g82
g63
NtRp2500
(dp2501
g66
(dp2502
sg75
g2487
sg68
(lp2503
g61
(g62
g63
NtRp2504
(dp2505
g66
(dp2506
g74
I3
ssg75
g2500
sg68
(lp2507
g890
asbasbasbag61
(g77
g63
NtRp2508
(dp2509
g66
(dp2510
sg75
g2441
sg68
(lp2511
g61
(g82
g63
NtRp2512
(dp2513
g66
(dp2514
g86
g87
ssg75
g2508
sg68
(lp2515
S'HTTP_CACHE_CONTROL'
p2516
asbag61
(g82
g63
NtRp2517
(dp2518
g66
(dp2519
g93
g94
ssg75
g2508
sg68
(lp2520
S':'
asbag61
(g82
g63
NtRp2521
(dp2522
g66
(dp2523
sg75
g2508
sg68
(lp2524
g61
(g62
g63
NtRp2525
(dp2526
g66
(dp2527
g74
I3
ssg75
g2521
sg68
(lp2528
g912
asbasbasbag61
(g77
g63
NtRp2529
(dp2530
g66
(dp2531
sg75
g2441
sg68
(lp2532
g61
(g82
g63
NtRp2533
(dp2534
g66
(dp2535
g86
g87
ssg75
g2529
sg68
(lp2536
S'HTTP_CONNECTION'
p2537
asbag61
(g82
g63
NtRp2538
(dp2539
g66
(dp2540
g93
g94
ssg75
g2529
sg68
(lp2541
S':'
asbag61
(g82
g63
NtRp2542
(dp2543
g66
(dp2544
sg75
g2529
sg68
(lp2545
g61
(g62
g63
NtRp2546
(dp2547
g66
(dp2548
g74
I3
ssg75
g2542
sg68
(lp2549
g934
asbasbasbag61
(g77
g63
NtRp2550
(dp2551
g66
(dp2552
sg75
g2441
sg68
(lp2553
g61
(g82
g63
NtRp2554
(dp2555
g66
(dp2556
g86
g87
ssg75
g2550
sg68
(lp2557
S'HTTP_COOKIE'
p2558
asbag61
(g82
g63
NtRp2559
(dp2560
g66
(dp2561
g93
g94
ssg75
g2550
sg68
(lp2562
S':'
asbag61
(g82
g63
NtRp2563
(dp2564
g66
(dp2565
sg75
g2550
sg68
(lp2566
g61
(g62
g63
NtRp2567
(dp2568
g66
(dp2569
g74
I3
ssg75
g2563
sg68
(lp2570
g956
asbasbasbag61
(g77
g63
NtRp2571
(dp2572
g66
(dp2573
sg75
g2441
sg68
(lp2574
g61
(g82
g63
NtRp2575
(dp2576
g66
(dp2577
g86
g87
ssg75
g2571
sg68
(lp2578
S'HTTP_HOST'
p2579
asbag61
(g82
g63
NtRp2580
(dp2581
g66
(dp2582
g93
g94
ssg75
g2571
sg68
(lp2583
S':'
asbag61
(g82
g63
NtRp2584
(dp2585
g66
(dp2586
sg75
g2571
sg68
(lp2587
g61
(g62
g63
NtRp2588
(dp2589
g66
(dp2590
g74
I3
ssg75
g2584
sg68
(lp2591
g978
asbasbasbag61
(g77
g63
NtRp2592
(dp2593
g66
(dp2594
sg75
g2441
sg68
(lp2595
g61
(g82
g63
NtRp2596
(dp2597
g66
(dp2598
g86
g87
ssg75
g2592
sg68
(lp2599
S'HTTP_USER_AGENT'
p2600
asbag61
(g82
g63
NtRp2601
(dp2602
g66
(dp2603
g93
g94
ssg75
g2592
sg68
(lp2604
S':'
asbag61
(g82
g63
NtRp2605
(dp2606
g66
(dp2607
sg75
g2592
sg68
(lp2608
g61
(g62
g63
NtRp2609
(dp2610
g66
(dp2611
g74
I3
ssg75
g2605
sg68
(lp2612
g1000
asbasbasbag61
(g77
g63
NtRp2613
(dp2614
g66
(dp2615
sg75
g2441
sg68
(lp2616
g61
(g82
g63
NtRp2617
(dp2618
g66
(dp2619
g86
g87
ssg75
g2613
sg68
(lp2620
S'PATH_INFO'
p2621
asbag61
(g82
g63
NtRp2622
(dp2623
g66
(dp2624
g93
g94
ssg75
g2613
sg68
(lp2625
S':'
asbag61
(g82
g63
NtRp2626
(dp2627
g66
(dp2628
sg75
g2613
sg68
(lp2629
g61
(g62
g63
NtRp2630
(dp2631
g66
(dp2632
g74
I3
ssg75
g2626
sg68
(lp2633
g1154
asbasbasbag61
(g77
g63
NtRp2634
(dp2635
g66
(dp2636
sg75
g2441
sg68
(lp2637
g61
(g82
g63
NtRp2638
(dp2639
g66
(dp2640
g86
g87
ssg75
g2634
sg68
(lp2641
S'QUERY_STRING'
p2642
asbag61
(g82
g63
NtRp2643
(dp2644
g66
(dp2645
g93
g94
ssg75
g2634
sg68
(lp2646
S':'
asbag61
(g82
g63
NtRp2647
(dp2648
g66
(dp2649
sg75
g2634
sg68
(lp2650
g61
(g62
g63
NtRp2651
(dp2652
g66
(dp2653
g74
I3
ssg75
g2647
sg68
(lp2654
S''
asbasbasbag61
(g77
g63
NtRp2655
(dp2656
g66
(dp2657
sg75
g2441
sg68
(lp2658
g61
(g82
g63
NtRp2659
(dp2660
g66
(dp2661
g86
g87
ssg75
g2655
sg68
(lp2662
S'REMOTE_ADDR'
p2663
asbag61
(g82
g63
NtRp2664
(dp2665
g66
(dp2666
g93
g94
ssg75
g2655
sg68
(lp2667
S':'
asbag61
(g82
g63
NtRp2668
(dp2669
g66
(dp2670
sg75
g2655
sg68
(lp2671
g61
(g62
g63
NtRp2672
(dp2673
g66
(dp2674
g74
I3
ssg75
g2668
sg68
(lp2675
g216
asbasbasbag61
(g77
g63
NtRp2676
(dp2677
g66
(dp2678
sg75
g2441
sg68
(lp2679
g61
(g82
g63
NtRp2680
(dp2681
g66
(dp2682
g86
g87
ssg75
g2676
sg68
(lp2683
S'REMOTE_PORT'
p2684
asbag61
(g82
g63
NtRp2685
(dp2686
g66
(dp2687
g93
g94
ssg75
g2676
sg68
(lp2688
S':'
asbag61
(g82
g63
NtRp2689
(dp2690
g66
(dp2691
sg75
g2676
sg68
(lp2692
g61
(g62
g63
NtRp2693
(dp2694
g66
(dp2695
g74
I3
ssg75
g2689
sg68
(lp2696
g1218
asbasbasbag61
(g77
g63
NtRp2697
(dp2698
g66
(dp2699
sg75
g2441
sg68
(lp2700
g61
(g82
g63
NtRp2701
(dp2702
g66
(dp2703
g86
g87
ssg75
g2697
sg68
(lp2704
S'REQUEST_METHOD'
p2705
asbag61
(g82
g63
NtRp2706
(dp2707
g66
(dp2708
g93
g94
ssg75
g2697
sg68
(lp2709
S':'
asbag61
(g82
g63
NtRp2710
(dp2711
g66
(dp2712
sg75
g2697
sg68
(lp2713
g61
(g62
g63
NtRp2714
(dp2715
g66
(dp2716
g74
I3
ssg75
g2710
sg68
(lp2717
g1240
asbasbasbag61
(g77
g63
NtRp2718
(dp2719
g66
(dp2720
sg75
g2441
sg68
(lp2721
g61
(g82
g63
NtRp2722
(dp2723
g66
(dp2724
g86
g87
ssg75
g2718
sg68
(lp2725
S'REQUEST_URI'
p2726
asbag61
(g82
g63
NtRp2727
(dp2728
g66
(dp2729
g93
g94
ssg75
g2718
sg68
(lp2730
S':'
asbag61
(g82
g63
NtRp2731
(dp2732
g66
(dp2733
sg75
g2718
sg68
(lp2734
g61
(g62
g63
NtRp2735
(dp2736
g66
(dp2737
g74
I3
ssg75
g2731
sg68
(lp2738
g1154
asbasbasbag61
(g77
g63
NtRp2739
(dp2740
g66
(dp2741
sg75
g2441
sg68
(lp2742
g61
(g82
g63
NtRp2743
(dp2744
g66
(dp2745
g86
g87
ssg75
g2739
sg68
(lp2746
S'SCRIPT_NAME'
p2747
asbag61
(g82
g63
NtRp2748
(dp2749
g66
(dp2750
g93
g94
ssg75
g2739
sg68
(lp2751
S':'
asbag61
(g82
g63
NtRp2752
(dp2753
g66
(dp2754
sg75
g2739
sg68
(lp2755
g61
(g62
g63
NtRp2756
(dp2757
g66
(dp2758
g74
I3
ssg75
g2752
sg68
(lp2759
S''
asbasbasbag61
(g77
g63
NtRp2760
(dp2761
g66
(dp2762
sg75
g2441
sg68
(lp2763
g61
(g82
g63
NtRp2764
(dp2765
g66
(dp2766
g86
g87
ssg75
g2760
sg68
(lp2767
S'SERVER_NAME'
p2768
asbag61
(g82
g63
NtRp2769
(dp2770
g66
(dp2771
g93
g94
ssg75
g2760
sg68
(lp2772
S':'
asbag61
(g82
g63
NtRp2773
(dp2774
g66
(dp2775
sg75
g2760
sg68
(lp2776
g61
(g62
g63
NtRp2777
(dp2778
g66
(dp2779
g74
I3
ssg75
g2773
sg68
(lp2780
g1304
asbasbasbag61
(g77
g63
NtRp2781
(dp2782
g66
(dp2783
sg75
g2441
sg68
(lp2784
g61
(g82
g63
NtRp2785
(dp2786
g66
(dp2787
g86
g87
ssg75
g2781
sg68
(lp2788
S'SERVER_PORT'
p2789
asbag61
(g82
g63
NtRp2790
(dp2791
g66
(dp2792
g93
g94
ssg75
g2781
sg68
(lp2793
S':'
asbag61
(g82
g63
NtRp2794
(dp2795
g66
(dp2796
sg75
g2781
sg68
(lp2797
g61
(g62
g63
NtRp2798
(dp2799
g66
(dp2800
g74
I3
ssg75
g2794
sg68
(lp2801
g1326
asbasbasbag61
(g77
g63
NtRp2802
(dp2803
g66
(dp2804
sg75
g2441
sg68
(lp2805
g61
(g82
g63
NtRp2806
(dp2807
g66
(dp2808
g86
g87
ssg75
g2802
sg68
(lp2809
S'SERVER_PROTOCOL'
p2810
asbag61
(g82
g63
NtRp2811
(dp2812
g66
(dp2813
g93
g94
ssg75
g2802
sg68
(lp2814
S':'
asbag61
(g82
g63
NtRp2815
(dp2816
g66
(dp2817
sg75
g2802
sg68
(lp2818
g61
(g62
g63
NtRp2819
(dp2820
g66
(dp2821
g74
I3
ssg75
g2815
sg68
(lp2822
g1348
asbasbasbag61
(g77
g63
NtRp2823
(dp2824
g66
(dp2825
sg75
g2441
sg68
(lp2826
g61
(g82
g63
NtRp2827
(dp2828
g66
(dp2829
g86
g87
ssg75
g2823
sg68
(lp2830
S'SERVER_SOFTWARE'
p2831
asbag61
(g82
g63
NtRp2832
(dp2833
g66
(dp2834
g93
g94
ssg75
g2823
sg68
(lp2835
S':'
asbag61
(g82
g63
NtRp2836
(dp2837
g66
(dp2838
sg75
g2823
sg68
(lp2839
g61
(g62
g63
NtRp2840
(dp2841
g66
(dp2842
g74
I3
ssg75
g2836
sg68
(lp2843
g1370
asbasbasbag61
(g77
g63
NtRp2844
(dp2845
g66
(dp2846
sg75
g2441
sg68
(lp2847
g61
(g82
g63
NtRp2848
(dp2849
g66
(dp2850
g86
g87
ssg75
g2844
sg68
(lp2851
S'wsgi.errors'
p2852
asbag61
(g82
g63
NtRp2853
(dp2854
g66
(dp2855
g93
g94
ssg75
g2844
sg68
(lp2856
S':'
asbag61
(g82
g63
NtRp2857
(dp2858
g66
(dp2859
sg75
g2844
sg68
(lp2860
g61
(g62
g63
NtRp2861
(dp2862
g66
(dp2863
g74
I3
ssg75
g2857
sg68
(lp2864
S"<open file '<stderr>', mode 'w' at 0x7f516074c270>"
p2865
asbasbasbag61
(g77
g63
NtRp2866
(dp2867
g66
(dp2868
sg75
g2441
sg68
(lp2869
g61
(g82
g63
NtRp2870
(dp2871
g66
(dp2872
g86
g87
ssg75
g2866
sg68
(lp2873
S'wsgi.file_wrapper'
p2874
asbag61
(g82
g63
NtRp2875
(dp2876
g66
(dp2877
g93
g94
ssg75
g2866
sg68
(lp2878
S':'
asbag61
(g82
g63
NtRp2879
(dp2880
g66
(dp2881
sg75
g2866
sg68
(lp2882
g61
(g62
g63
NtRp2883
(dp2884
g66
(dp2885
g74
I3
ssg75
g2879
sg68
(lp2886
S'<class wsgiref.util.FileWrapper at 0x1568c18>'
p2887
asbasbasbag61
(g77
g63
NtRp2888
(dp2889
g66
(dp2890
sg75
g2441
sg68
(lp2891
g61
(g82
g63
NtRp2892
(dp2893
g66
(dp2894
g86
g87
ssg75
g2888
sg68
(lp2895
S'wsgi.input'
p2896
asbag61
(g82
g63
NtRp2897
(dp2898
g66
(dp2899
g93
g94
ssg75
g2888
sg68
(lp2900
S':'
asbag61
(g82
g63
NtRp2901
(dp2902
g66
(dp2903
sg75
g2888
sg68
(lp2904
g61
(g62
g63
NtRp2905
(dp2906
g66
(dp2907
g74
I3
ssg75
g2901
sg68
(lp2908
S'<cStringIO.StringO object at 0x27aa6c0>'
p2909
asbasbasbag61
(g77
g63
NtRp2910
(dp2911
g66
(dp2912
sg75
g2441
sg68
(lp2913
g61
(g82
g63
NtRp2914
(dp2915
g66
(dp2916
g86
g87
ssg75
g2910
sg68
(lp2917
S'wsgi.multiprocess'
p2918
asbag61
(g82
g63
NtRp2919
(dp2920
g66
(dp2921
g93
g94
ssg75
g2910
sg68
(lp2922
S':'
asbag61
(g82
g63
NtRp2923
(dp2924
g66
(dp2925
sg75
g2910
sg68
(lp2926
g61
(g62
g63
NtRp2927
(dp2928
g66
(dp2929
g74
I3
ssg75
g2923
sg68
(lp2930
g104
asbasbasbag61
(g77
g63
NtRp2931
(dp2932
g66
(dp2933
sg75
g2441
sg68
(lp2934
g61
(g82
g63
NtRp2935
(dp2936
g66
(dp2937
g86
g87
ssg75
g2931
sg68
(lp2938
S'wsgi.multithread'
p2939
asbag61
(g82
g63
NtRp2940
(dp2941
g66
(dp2942
g93
g94
ssg75
g2931
sg68
(lp2943
S':'
asbag61
(g82
g63
NtRp2944
(dp2945
g66
(dp2946
sg75
g2931
sg68
(lp2947
g61
(g62
g63
NtRp2948
(dp2949
g66
(dp2950
g74
I3
ssg75
g2944
sg68
(lp2951
g1587
asbasbasbag61
(g77
g63
NtRp2952
(dp2953
g66
(dp2954
sg75
g2441
sg68
(lp2955
g61
(g82
g63
NtRp2956
(dp2957
g66
(dp2958
g86
g87
ssg75
g2952
sg68
(lp2959
S'wsgi.run_once'
p2960
asbag61
(g82
g63
NtRp2961
(dp2962
g66
(dp2963
g93
g94
ssg75
g2952
sg68
(lp2964
S':'
asbag61
(g82
g63
NtRp2965
(dp2966
g66
(dp2967
sg75
g2952
sg68
(lp2968
g61
(g62
g63
NtRp2969
(dp2970
g66
(dp2971
g74
I3
ssg75
g2965
sg68
(lp2972
g104
asbasbasbag61
(g77
g63
NtRp2973
(dp2974
g66
(dp2975
sg75
g2441
sg68
(lp2976
g61
(g82
g63
NtRp2977
(dp2978
g66
(dp2979
g86
g87
ssg75
g2973
sg68
(lp2980
S'wsgi.url_scheme'
p2981
asbag61
(g82
g63
NtRp2982
(dp2983
g66
(dp2984
g93
g94
ssg75
g2973
sg68
(lp2985
S':'
asbag61
(g82
g63
NtRp2986
(dp2987
g66
(dp2988
sg75
g2973
sg68
(lp2989
g61
(g62
g63
NtRp2990
(dp2991
g66
(dp2992
g74
I3
ssg75
g2986
sg68
(lp2993
g1630
asbasbasbag61
(g77
g63
NtRp2994
(dp2995
g66
(dp2996
sg75
g2441
sg68
(lp2997
g61
(g82
g63
NtRp2998
(dp2999
g66
(dp3000
g86
g87
ssg75
g2994
sg68
(lp3001
S'wsgi.version'
p3002
asbag61
(g82
g63
NtRp3003
(dp3004
g66
(dp3005
g93
g94
ssg75
g2994
sg68
(lp3006
S':'
asbag61
(g82
g63
NtRp3007
(dp3008
g66
(dp3009
sg75
g2994
sg68
(lp3010
g61
(g62
g63
NtRp3011
(dp3012
g66
(dp3013
g74
I3
ssg75
g3007
sg68
(lp3014
S'1'
asbasbasbasbasbasbasbasbasbasbasbasbasbsS'frames'
p3015
(lp3016
(dp3017
S'file'
p3018
S'/home/marco/projects/contabilidad/web2py/gluon/restricted.py'
p3019
sS'dump'
p3020
(dp3021
S'environment'
p3022
S"{'A': <class 'gluon.html.A'>, 'Auth': <class 'gluon.tools.Auth'>, 'B': <class 'gluon.html.B'>, 'BEAUTIFY': <class 'gluon.html.BEAUTIFY'>, 'BODY': <class 'gluon.html.BODY'>, 'BR': <class 'gluon.html.BR'>, 'BUTTON': <class 'gluon.html.BUTTON'>, 'CAT': <class 'gluon.html.CAT'>, 'CENTER': <class 'gluon.html.CENTER'>, 'CLEANUP': <class 'gluon.validators.CLEANUP'>, ...}"
p3023
sS'ccode'
p3024
S'<code object <module> at 0x277e330, file "/home/...plications/sueldos/controllers/altas.py", line 3>'
p3025
ssS'lnum'
p3026
I212
sS'lines'
p3027
(dp3028
I207
S'    try:'
p3029
sI208
S'        if isinstance(code, types.CodeType):'
p3030
sI209
S'            ccode = code'
p3031
sI210
S'        else:'
p3032
sI211
S'            ccode = compile2(code, layer)'
p3033
sI212
S'        exec ccode in environment'
p3034
sI213
S'    except HTTP:'
p3035
sI214
S'        raise'
p3036
sI215
S'    except RestrictedError:'
p3037
sI216
S'        # do not encapsulate (obfuscate) the original RestrictedError'
p3038
ssS'call'
p3039
S"(code='#-*- coding: utf-8 -*-\\n\\ndef empleadores():\\n    f...m)\\n\\nresponse._vars=response._caller(empleadores)\\n', environment={'A': <class 'gluon.html.A'>, 'Auth': <class 'gluon.tools.Auth'>, 'B': <class 'gluon.html.B'>, 'BEAUTIFY': <class 'gluon.html.BEAUTIFY'>, 'BODY': <class 'gluon.html.BODY'>, 'BR': <class 'gluon.html.BR'>, 'BUTTON': <class 'gluon.html.BUTTON'>, 'CAT': <class 'gluon.html.CAT'>, 'CENTER': <class 'gluon.html.CENTER'>, 'CLEANUP': <class 'gluon.validators.CLEANUP'>, ...}, layer='/home/marco/projects/contabilidad/web2py/applications/sueldos/controllers/altas.py')"
p3040
sS'func'
p3041
S'restricted'
p3042
sa(dp3043
g3018
S'/home/marco/projects/contabilidad/web2py/applications/sueldos/controllers/altas.py'
p3044
sg3020
(dp3045
sg3026
I29
sg3027
(dp3046
I18
S'    form = SQLFORM(db.empleados)'
p3047
sI19
S''
sI20
S'    if form.process().accepted:'
p3048
sI21
S"        response.flash='El empleado a sido agregado'"
p3049
sI22
S'    elif form.errors:'
p3050
sI23
S"        response.flash='El formulario tiene errores'"
p3051
sI24
S'    else:'
p3052
sI25
S"        response.flash='Por favor complete los datos del empleado'"
p3053
sI26
S''
sI27
S'    return dict(form=form)'
p3054
ssg3039
S'()'
p3055
sg3041
S'<module>'
p3056
sa(dp3057
g3018
S'/home/marco/projects/contabilidad/web2py/gluon/globals.py'
p3058
sg3020
(dp3059
S'self'
p3060
S'undefined'
p3061
sS'f'
S'<function empleadores>'
p3062
ssg3026
I193
sg3027
(dp3063
I192
S'        self._vars = None'
p3064
sI193
S'        self._caller = lambda f: f()'
p3065
sI194
S'        self._view_environment = None'
p3066
sI195
S'        self._custom_commit = None'
p3067
sI196
S'        self._custom_rollback = None'
p3068
sI197
S''
sI188
S'        self.menu = []             # used by the default view layout'
p3069
sI189
S'        self.files = []            # used by web2py_ajax.html'
p3070
sI190
S'        self.generic_patterns = []  # patterns to allow generic views'
p3071
sI191
S"        self.delimiters = ('{{', '}}')"
p3072
ssg3039
S'(f=<function empleadores>)'
p3073
sg3041
S'<lambda>'
p3074
sa(dp3075
g3018
S'/home/marco/projects/contabilidad/web2py/applications/sueldos/controllers/altas.py'
p3076
sg3020
(dp3077
S'global db'
p3078
S'<DAL uri="sqlite://storage.sqlite">'
p3079
sS'global SQLFORM'
p3080
S"<class 'gluon.sqlhtml.SQLFORM'>"
p3081
sS'form'
p3082
g3061
sS'db.empleadores'
p3083
S'<Table empleadores (id,nombre,cuit,domicilio,pro...calidad,cp,cactividad,nactividad,telefono,email)>'
p3084
ssg3026
I4
sg3027
(dp3085
I2
S''
sI3
S'def empleadores():'
p3086
sI4
S'    form = SQLFORM(db.empleadores)'
p3087
sI5
S''
sI6
S'    if form.process().accepted:'
p3088
sI7
S"        response.flash='El empleado a sido agregado'"
p3089
sI8
S'    elif form.errors:'
p3090
sI9
S"        response.flash='El formulario tiene errores'"
p3091
sI10
S'    else:'
p3092
sI11
S"        response.flash='Por favor complete los datos del empleador'"
p3093
ssg3039
S'()'
p3094
sg3041
S'empleadores'
p3095
sa(dp3096
g3018
S'/home/marco/projects/contabilidad/web2py/gluon/sqlhtml.py'
p3097
sg3020
(dp3098
S'default'
p3099
S'None'
p3100
sS'self.widgets.options.widget'
p3101
S"<bound method type.widget of <class 'gluon.sqlhtml.OptionsWidget'>>"
p3102
sS'self'
p3103
S'<gluon.sqlhtml.SQLFORM object>'
p3104
sS'inp'
p3105
S'<gluon.html.INPUT object>'
p3106
sS'self.widgets'
p3107
S"<Storage {'multiple': <class 'gluon.sqlhtml.Mult...ss 'gluon.sqlhtml.OptionsWidget'>, 'blob': None}>"
p3108
sS'field'
p3109
S'<gluon.dal.Field object>'
p3110
sS'self.widgets.options'
p3111
S"<class 'gluon.sqlhtml.OptionsWidget'>"
p3112
ssg3026
I1067
sg3027
(dp3113
I1062
S"                    inpval = 'checked'"
p3114
sI1063
S'                else:'
p3115
sI1064
S"                    inpval = ''"
p3116
sI1065
S'            elif OptionsWidget.has_options(field):'
p3117
sI1066
S'                if not field.requires.multiple:'
p3118
sI1067
S'                    inp = self.widgets.options.widget(field, default)'
p3119
sI1068
S'                else:'
p3120
sI1069
S'                    inp = self.widgets.multiple.widget(field, default)'
p3121
sI1070
S'                if fieldname in keepopts:'
p3122
sI1071
S"                    inpval = TAG[''](*inp.components)"
p3123
ssg3039
S"(self=<gluon.sqlhtml.SQLFORM object>, table=<Table empleadores (id,nombre,cuit,domicilio,pro...calidad,cp,cactividad,nactividad,telefono,email)>, record=None, deletable=False, linkto=None, upload=None, fields=['id', 'nombre', 'cuit', 'domicilio', 'provincia', 'localidad', 'cp', 'cactividad', 'nactividad', 'telefono', 'email'], labels=None, col3={}, submit_button='Submit', delete_label='Check to delete', showid=True, readonly=False, comments=True, keepopts=[], ignore_rw=False, record_id=None, formstyle='table3cols', buttons=['submit'], separator=': ', **attributes={})"
p3124
sg3041
g26
sa(dp3125
g3018
S'/home/marco/projects/contabilidad/web2py/gluon/sqlhtml.py'
p3126
sg3020
(dp3127
S'].options'
p3128
g3061
sS'requires'
p3129
S'[<gluon.validators.IS_IN_DB object>]'
p3130
sS'options'
p3131
g3061
ssg3026
I233
sg3027
(dp3132
I228
S'        requires = field.requires'
p3133
sI229
S'        if not isinstance(requires, (list, tuple)):'
p3134
sI230
S'            requires = [requires]'
p3135
sI231
S'        if requires:'
p3136
sI232
S"            if hasattr(requires[0], 'options'):"
p3137
sI233
S'                options = requires[0].options()'
p3138
sI234
S'            else:'
p3139
sI235
S'                raise SyntaxError('
p3140
sI236
S"                    'widget cannot determine options of %s' % field)"
p3141
sI237
S'        opts = [OPTION(v, _value=k) for (k, v) in options]'
p3142
ssg3039
S"(cls=<class 'gluon.sqlhtml.OptionsWidget'>, field=<gluon.dal.Field object>, value=None, **attributes={})"
p3143
sg3041
S'widget'
p3144
sa(dp3145
g3018
S'/home/marco/projects/contabilidad/web2py/gluon/validators.py'
p3146
sg3020
(dp3147
S'self'
p3148
S'<gluon.validators.IS_IN_DB object>'
p3149
sS'self.build_set'
p3150
S'<bound method IS_IN_DB.build_set of <gluon.validators.IS_IN_DB object>>'
p3151
ssg3026
I489
sg3027
(dp3152
I484
S'            self.labels = [self.label % dict(r) for r in records]'
p3153
sI485
S'        else:'
p3154
sI486
S'            self.labels = [self.label(r) for r in records]'
p3155
sI487
S''
sI488
S'    def options(self, zero=True):'
p3156
sI489
S'        self.build_set()'
p3157
sI490
S'        items = [(k, self.labels[i]) for (i, k) in enumerate(self.theset)]'
p3158
sI491
S'        if self.sort:'
p3159
sI492
S'            items.sort(options_sorter)'
p3160
sI493
S'        if zero and not self.zero is None and not self.multiple:'
p3161
ssg3039
S'(self=<gluon.validators.IS_IN_DB object>, zero=True)'
p3162
sg3041
S'options'
p3163
sa(dp3164
g3018
S'/home/marco/projects/contabilidad/web2py/gluon/validators.py'
p3165
sg3020
(dp3166
S'self.dbset'
p3167
S'<Set None>'
p3168
sS'fields'
p3169
S'[<gluon.dal.Field object>]'
p3170
sS'self'
p3171
S'<gluon.validators.IS_IN_DB object>'
p3172
sS').select'
p3173
g3061
sS'records'
p3174
g3061
sS'table'
p3175
S'<Table actividades (id,codigo,nombre,detalle)>'
p3176
sS'dd'
p3177
S"{'cache': None, 'cacheable': True, 'distinct': None, 'groupby': None, 'orderby': <gluon.dal.Field object>}"
p3178
ssg3026
I475
sg3027
(dp3179
I470
S'            groupby = self.groupby'
p3180
sI471
S'            distinct = self.distinct'
p3181
sI472
S'            dd = dict(orderby=orderby, groupby=groupby,'
p3182
sI473
S'                      distinct=distinct, cache=self.cache,'
p3183
sI474
S'                      cacheable=True)'
p3184
sI475
S'            records = self.dbset(table).select(*fields, **dd)'
p3185
sI476
S'        else:'
p3186
sI477
S'            orderby = self.orderby or \\'
p3187
sI478
S'                reduce(lambda a, b: a | b, ('
p3188
sI479
S"                    f for f in fields if not f.name == 'id'))"
p3189
ssg3039
S'(self=<gluon.validators.IS_IN_DB object>)'
p3190
sg3041
S'build_set'
p3191
sa(dp3192
g3018
S'/home/marco/projects/contabilidad/web2py/gluon/dal.py'
p3193
sg3020
(dp3194
S'self.query'
p3195
S'<Query (actividades.id IS NOT NULL)>'
p3196
sS'adapter.select'
p3197
S'<bound method SQLiteAdapter.select of <gluon.dal.SQLiteAdapter object>>'
p3198
sS'fields'
p3199
S'[<gluon.dal.Field object>]'
p3200
sS'adapter'
p3201
S'<gluon.dal.SQLiteAdapter object>'
p3202
sS'attributes'
p3203
S"{'cache': None, 'cacheable': True, 'distinct': None, 'groupby': None, 'orderby': <gluon.dal.Field object>}"
p3204
sS'self'
p3205
S'<Set (actividades.id IS NOT NULL)>'
p3206
ssg3026
I8880
sg3027
(dp3207
I8875
S"                                    attributes.get('join',None),"
p3208
sI8876
S"                                    attributes.get('left',None),"
p3209
sI8877
S"                                    attributes.get('orderby',None),"
p3210
sI8878
S"                                    attributes.get('groupby',None))"
p3211
sI8879
S'        fields = adapter.expand_all(fields, tablenames)'
p3212
sI8880
S'        return adapter.select(self.query,fields,attributes)'
p3213
sI8881
S''
sI8882
S'    def nested_select(self,*fields,**attributes):'
p3214
sI8883
S'        return Expression(self.db,self._select(*fields,**attributes))'
p3215
sI8884
S''
ssg3039
S"(self=<Set (actividades.id IS NOT NULL)>, *fields=[<gluon.dal.Field object>], **attributes={'cache': None, 'cacheable': True, 'distinct': None, 'groupby': None, 'orderby': <gluon.dal.Field object>})"
p3216
sg3041
S'select'
p3217
sa(dp3218
g3018
S'/home/marco/projects/contabilidad/web2py/gluon/dal.py'
p3219
sg3020
(dp3220
S'fields'
p3221
S'[<gluon.dal.Field object>]'
p3222
sS'self'
p3223
S'<gluon.dal.SQLiteAdapter object>'
p3224
sS').select'
p3225
S'<bound method SQLiteAdapter.select of <gluon.dal.SQLiteAdapter object>>'
p3226
sS'attributes'
p3227
S"{'cache': None, 'cacheable': True, 'distinct': None, 'groupby': None, 'orderby': <gluon.dal.Field object>}"
p3228
sS'global SQLiteAdapter'
p3229
S"<class 'gluon.dal.SQLiteAdapter'>"
p3230
sS'query'
p3231
S'<Query (actividades.id IS NOT NULL)>'
p3232
sS'builtinsuper'
p3233
S"<type 'super'>"
p3234
ssg3026
I2146
sg3027
(dp3235
I2144
S"        if attributes.get('for_update', False) and not 'cache' in attributes:"
p3236
sI2145
S"            self.execute('BEGIN IMMEDIATE TRANSACTION;')"
p3237
sI2146
S'        return super(SQLiteAdapter, self).select(query, fields, attributes)'
p3238
sI2147
S''
sI2148
S'class SpatiaLiteAdapter(SQLiteAdapter):'
p3239
sI2149
S"    drivers = ('sqlite3','sqlite2')"
p3240
sI2150
S''
sI2141
S'        Note that the entire database, rather than one record, is locked'
p3241
sI2142
S'        (it will be locked eventually anyway by the following UPDATE).'
p3242
sI2143
S'        """'
p3243
ssg3039
S"(self=<gluon.dal.SQLiteAdapter object>, query=<Query (actividades.id IS NOT NULL)>, fields=[<gluon.dal.Field object>], attributes={'cache': None, 'cacheable': True, 'distinct': None, 'groupby': None, 'orderby': <gluon.dal.Field object>})"
p3244
sg3041
g3217
sa(dp3245
g3018
S'/home/marco/projects/contabilidad/web2py/gluon/dal.py'
p3246
sg3020
(dp3247
S'fields'
p3248
S'[<gluon.dal.Field object>]'
p3249
sS'self'
p3250
S'<gluon.dal.SQLiteAdapter object>'
p3251
sS'attributes'
p3252
S"{'cache': None, 'cacheable': True, 'distinct': None, 'groupby': None, 'orderby': <gluon.dal.Field object>}"
p3253
sS'self._select_aux'
p3254
S'<bound method SQLiteAdapter._select_aux of <gluon.dal.SQLiteAdapter object>>'
p3255
sS'sql'
p3256
S"'SELECT  actividades.codigo FROM actividades WHER...ades.id IS NOT NULL) ORDER BY actividades.codigo;'"
p3257
ssg3026
I1631
sg3027
(dp3258
I1632
S''
sI1633
S'    def _count(self, query, distinct=None):'
p3259
sI1634
S'        tablenames = self.tables(query)'
p3260
sI1635
S'        if query:'
p3261
sI1626
S'            return cache_model('
p3262
sI1627
S'                key,'
p3263
sI1628
S'                lambda self=self,args=args:self._select_aux(*args),'
p3264
sI1629
S'                time_expire)'
p3265
sI1630
S'        else:'
p3266
sI1631
S'            return self._select_aux(sql,fields,attributes)'
p3267
ssg3039
S"(self=<gluon.dal.SQLiteAdapter object>, query=<Query (actividades.id IS NOT NULL)>, fields=[<gluon.dal.Field object>], attributes={'cache': None, 'cacheable': True, 'distinct': None, 'groupby': None, 'orderby': <gluon.dal.Field object>})"
p3268
sg3041
g3217
sa(dp3269
g3018
S'/home/marco/projects/contabilidad/web2py/gluon/dal.py'
p3270
sg3020
(dp3271
S'self._fetchall'
p3272
S'<bound method SQLiteAdapter._fetchall of <gluon.dal.SQLiteAdapter object>>'
p3273
sS'self'
p3274
S'<gluon.dal.SQLiteAdapter object>'
p3275
sS'rows'
p3276
g3061
ssg3026
I1597
sg3027
(dp3277
I1600
S"            key = self.uri + '/' + sql + '/rows'"
p3278
sI1601
S'            if len(key)>200: key = hashlib_md5(key).hexdigest()'
p3279
sI1592
S'    def _select_aux(self,sql,fields,attributes):'
p3280
sI1593
S'        args_get = attributes.get'
p3281
sI1594
S"        cache = args_get('cache',None)"
p3282
sI1595
S'        if not cache:'
p3283
sI1596
S'            self.execute(sql)'
p3284
sI1597
S'            rows = self._fetchall()'
p3285
sI1598
S'        else:'
p3286
sI1599
S'            (cache_model, time_expire) = cache'
p3287
ssg3039
S"(self=<gluon.dal.SQLiteAdapter object>, sql='SELECT  actividades.codigo FROM actividades WHER...ades.id IS NOT NULL) ORDER BY actividades.codigo;', fields=[<gluon.dal.Field object>], attributes={'cache': None, 'cacheable': True, 'distinct': None, 'groupby': None, 'orderby': <gluon.dal.Field object>})"
p3288
sg3041
S'_select_aux'
p3289
sa(dp3290
g3018
S'/home/marco/projects/contabilidad/web2py/gluon/dal.py'
p3291
sg3020
(dp3292
S'self.cursor'
p3293
S'<sqlite3.Cursor object>'
p3294
sS'self'
p3295
S'<gluon.dal.SQLiteAdapter object>'
p3296
sS'self.cursor.fetchall'
p3297
S'<built-in method fetchall of sqlite3.Cursor object>'
p3298
ssg3026
I1590
sg3027
(dp3299
I1585
S"            sql_o += ' LIMIT %i OFFSET %i' % (lmax - lmin, lmin)"
p3300
sI1586
S"        return 'SELECT %s %s FROM %s%s%s;' % \\"
p3301
sI1587
S'            (sql_s, sql_f, sql_t, sql_w, sql_o)'
p3302
sI1588
S''
sI1589
S'    def _fetchall(self):'
p3303
sI1590
S'        return self.cursor.fetchall()'
p3304
sI1591
S''
sI1592
S'    def _select_aux(self,sql,fields,attributes):'
p3305
sI1593
S'        args_get = attributes.get'
p3306
sI1594
S"        cache = args_get('cache',None)"
p3307
ssg3039
S'(self=<gluon.dal.SQLiteAdapter object>)'
p3308
sg3041
S'_fetchall'
p3309
sasS'pyver'
p3310
S'Python 2.7.3: /usr/bin/python'
p3311
sS'session'
p3312
g61
(g62
g63
NtRp3313
(dp3314
g66
(dp3315
sg68
(lp3316
g61
(g70
g63
NtRp3317
(dp3318
g66
(dp3319
g74
I5
ssg75
Nsg68
(lp3320
sbasbsS'etype'
p3321
S"<class 'sqlite3.OperationalError'>"
p3322
sS'date'
p3323
S'Sat Jan  5 13:34:36 2013'
p3324
sS'response'
p3325
g61
(g62
g63
NtRp3326
(dp3327
g66
(dp3328
sg68
(lp3329
g61
(g70
g63
NtRp3330
(dp3331
g66
(dp3332
g74
I5
ssg75
Nsg68
(lp3333
g61
(g77
g63
NtRp3334
(dp3335
g66
(dp3336
sg75
g3330
sg68
(lp3337
g61
(g82
g63
NtRp3338
(dp3339
g66
(dp3340
g86
g87
ssg75
g3334
sg68
(lp3341
g159
asbag61
(g82
g63
NtRp3342
(dp3343
g66
(dp3344
g93
g94
ssg75
g3334
sg68
(lp3345
S':'
asbag61
(g82
g63
NtRp3346
(dp3347
g66
(dp3348
sg75
g3334
sg68
(lp3349
g61
(g62
g63
NtRp3350
(dp3351
g66
(dp3352
g74
I5
ssg75
g3346
sg68
(lp3353
S'<cStringIO.StringO object at 0x26331b8>'
p3354
asbasbasbag61
(g77
g63
NtRp3355
(dp3356
g66
(dp3357
sg75
g3330
sg68
(lp3358
g61
(g82
g63
NtRp3359
(dp3360
g66
(dp3361
g86
g87
ssg75
g3355
sg68
(lp3362
g247
asbag61
(g82
g63
NtRp3363
(dp3364
g66
(dp3365
g93
g94
ssg75
g3355
sg68
(lp3366
S':'
asbag61
(g82
g63
NtRp3367
(dp3368
g66
(dp3369
sg75
g3355
sg68
(lp3370
g61
(g62
g63
NtRp3371
(dp3372
g66
(dp3373
g74
I5
ssg75
g3367
sg68
(lp3374
g61
(g70
g63
NtRp3375
(dp3376
g66
(dp3377
g74
I4
ssg75
Nsg68
(lp3378
g61
(g77
g63
NtRp3379
(dp3380
g66
(dp3381
sg75
g3375
sg68
(lp3382
g61
(g82
g63
NtRp3383
(dp3384
g66
(dp3385
g86
g87
ssg75
g3379
sg68
(lp3386
S'session_id_sueldos'
p3387
asbag61
(g82
g63
NtRp3388
(dp3389
g66
(dp3390
g93
g94
ssg75
g3379
sg68
(lp3391
S':'
asbag61
(g82
g63
NtRp3392
(dp3393
g66
(dp3394
sg75
g3379
sg68
(lp3395
g61
(g62
g63
NtRp3396
(dp3397
g66
(dp3398
g74
I4
ssg75
g3392
sg68
(lp3399
g479
ag61
(g70
g63
NtRp3400
(dp3401
g66
(dp3402
g74
I3
ssg75
Nsg68
(lp3403
g61
(g77
g63
NtRp3404
(dp3405
g66
(dp3406
sg75
g3400
sg68
(lp3407
g61
(g82
g63
NtRp3408
(dp3409
g66
(dp3410
g86
g87
ssg75
g3404
sg68
(lp3411
g298
asbag61
(g82
g63
NtRp3412
(dp3413
g66
(dp3414
g93
g94
ssg75
g3404
sg68
(lp3415
S':'
asbag61
(g82
g63
NtRp3416
(dp3417
g66
(dp3418
sg75
g3404
sg68
(lp3419
g61
(g62
g63
NtRp3420
(dp3421
g66
(dp3422
g74
I3
ssg75
g3416
sg68
(lp3423
S''
asbasbasbag61
(g77
g63
NtRp3424
(dp3425
g66
(dp3426
sg75
g3400
sg68
(lp3427
g61
(g82
g63
NtRp3428
(dp3429
g66
(dp3430
g86
g87
ssg75
g3424
sg68
(lp3431
g319
asbag61
(g82
g63
NtRp3432
(dp3433
g66
(dp3434
g93
g94
ssg75
g3424
sg68
(lp3435
S':'
asbag61
(g82
g63
NtRp3436
(dp3437
g66
(dp3438
sg75
g3424
sg68
(lp3439
g61
(g62
g63
NtRp3440
(dp3441
g66
(dp3442
g74
I3
ssg75
g3436
sg68
(lp3443
S''
asbasbasbag61
(g77
g63
NtRp3444
(dp3445
g66
(dp3446
sg75
g3400
sg68
(lp3447
g61
(g82
g63
NtRp3448
(dp3449
g66
(dp3450
g86
g87
ssg75
g3444
sg68
(lp3451
g340
asbag61
(g82
g63
NtRp3452
(dp3453
g66
(dp3454
g93
g94
ssg75
g3444
sg68
(lp3455
S':'
asbag61
(g82
g63
NtRp3456
(dp3457
g66
(dp3458
sg75
g3444
sg68
(lp3459
g61
(g62
g63
NtRp3460
(dp3461
g66
(dp3462
g74
I3
ssg75
g3456
sg68
(lp3463
S''
asbasbasbag61
(g77
g63
NtRp3464
(dp3465
g66
(dp3466
sg75
g3400
sg68
(lp3467
g61
(g82
g63
NtRp3468
(dp3469
g66
(dp3470
g86
g87
ssg75
g3464
sg68
(lp3471
g361
asbag61
(g82
g63
NtRp3472
(dp3473
g66
(dp3474
g93
g94
ssg75
g3464
sg68
(lp3475
S':'
asbag61
(g82
g63
NtRp3476
(dp3477
g66
(dp3478
sg75
g3464
sg68
(lp3479
g61
(g62
g63
NtRp3480
(dp3481
g66
(dp3482
g74
I3
ssg75
g3476
sg68
(lp3483
S''
asbasbasbag61
(g77
g63
NtRp3484
(dp3485
g66
(dp3486
sg75
g3400
sg68
(lp3487
g61
(g82
g63
NtRp3488
(dp3489
g66
(dp3490
g86
g87
ssg75
g3484
sg68
(lp3491
g382
asbag61
(g82
g63
NtRp3492
(dp3493
g66
(dp3494
g93
g94
ssg75
g3484
sg68
(lp3495
S':'
asbag61
(g82
g63
NtRp3496
(dp3497
g66
(dp3498
sg75
g3484
sg68
(lp3499
g61
(g62
g63
NtRp3500
(dp3501
g66
(dp3502
g74
I3
ssg75
g3496
sg68
(lp3503
S''
asbasbasbag61
(g77
g63
NtRp3504
(dp3505
g66
(dp3506
sg75
g3400
sg68
(lp3507
g61
(g82
g63
NtRp3508
(dp3509
g66
(dp3510
g86
g87
ssg75
g3504
sg68
(lp3511
g403
asbag61
(g82
g63
NtRp3512
(dp3513
g66
(dp3514
g93
g94
ssg75
g3504
sg68
(lp3515
S':'
asbag61
(g82
g63
NtRp3516
(dp3517
g66
(dp3518
sg75
g3504
sg68
(lp3519
g61
(g62
g63
NtRp3520
(dp3521
g66
(dp3522
g74
I3
ssg75
g3516
sg68
(lp3523
S'/'
asbasbasbag61
(g77
g63
NtRp3524
(dp3525
g66
(dp3526
sg75
g3400
sg68
(lp3527
g61
(g82
g63
NtRp3528
(dp3529
g66
(dp3530
g86
g87
ssg75
g3524
sg68
(lp3531
g424
asbag61
(g82
g63
NtRp3532
(dp3533
g66
(dp3534
g93
g94
ssg75
g3524
sg68
(lp3535
S':'
asbag61
(g82
g63
NtRp3536
(dp3537
g66
(dp3538
sg75
g3524
sg68
(lp3539
g61
(g62
g63
NtRp3540
(dp3541
g66
(dp3542
g74
I3
ssg75
g3536
sg68
(lp3543
S''
asbasbasbag61
(g77
g63
NtRp3544
(dp3545
g66
(dp3546
sg75
g3400
sg68
(lp3547
g61
(g82
g63
NtRp3548
(dp3549
g66
(dp3550
g86
g87
ssg75
g3544
sg68
(lp3551
g445
asbag61
(g82
g63
NtRp3552
(dp3553
g66
(dp3554
g93
g94
ssg75
g3544
sg68
(lp3555
S':'
asbag61
(g82
g63
NtRp3556
(dp3557
g66
(dp3558
sg75
g3544
sg68
(lp3559
g61
(g62
g63
NtRp3560
(dp3561
g66
(dp3562
g74
I3
ssg75
g3556
sg68
(lp3563
S''
asbasbasbasbasbasbasbasbasbasbasbag61
(g77
g63
NtRp3564
(dp3565
g66
(dp3566
sg75
g3330
sg68
(lp3567
g61
(g82
g63
NtRp3568
(dp3569
g66
(dp3570
g86
g87
ssg75
g3564
sg68
(lp3571
S'delimiters'
p3572
asbag61
(g82
g63
NtRp3573
(dp3574
g66
(dp3575
g93
g94
ssg75
g3564
sg68
(lp3576
S':'
asbag61
(g82
g63
NtRp3577
(dp3578
g66
(dp3579
sg75
g3564
sg68
(lp3580
g61
(g62
g63
NtRp3581
(dp3582
g66
(dp3583
g74
I5
ssg75
g3577
sg68
(lp3584
g61
(g70
g63
NtRp3585
(dp3586
g66
(dp3587
g74
I4
ssg75
Nsg68
(lp3588
g61
(g77
g63
NtRp3589
(dp3590
g66
(dp3591
sg75
g3585
sg68
(lp3592
g61
(g82
g63
NtRp3593
(dp3594
g66
(dp3595
sg75
g3589
sg68
(lp3596
g61
(g62
g63
NtRp3597
(dp3598
g66
(dp3599
g74
I4
ssg75
g3593
sg68
(lp3600
S'{{'
p3601
asbasbasbag61
(g77
g63
NtRp3602
(dp3603
g66
(dp3604
sg75
g3585
sg68
(lp3605
g61
(g82
g63
NtRp3606
(dp3607
g66
(dp3608
sg75
g3602
sg68
(lp3609
g61
(g62
g63
NtRp3610
(dp3611
g66
(dp3612
g74
I4
ssg75
g3606
sg68
(lp3613
S'}}'
p3614
asbasbasbasbasbasbasbag61
(g77
g63
NtRp3615
(dp3616
g66
(dp3617
sg75
g3330
sg68
(lp3618
g61
(g82
g63
NtRp3619
(dp3620
g66
(dp3621
g86
g87
ssg75
g3615
sg68
(lp3622
S'files'
p3623
asbag61
(g82
g63
NtRp3624
(dp3625
g66
(dp3626
g93
g94
ssg75
g3615
sg68
(lp3627
S':'
asbag61
(g82
g63
NtRp3628
(dp3629
g66
(dp3630
sg75
g3615
sg68
(lp3631
g61
(g62
g63
NtRp3632
(dp3633
g66
(dp3634
g74
I5
ssg75
g3628
sg68
(lp3635
g61
(g70
g63
NtRp3636
(dp3637
g66
(dp3638
g74
I4
ssg75
Nsg68
(lp3639
sbasbasbasbag61
(g77
g63
NtRp3640
(dp3641
g66
(dp3642
sg75
g3330
sg68
(lp3643
g61
(g82
g63
NtRp3644
(dp3645
g66
(dp3646
g86
g87
ssg75
g3640
sg68
(lp3647
S'flash'
p3648
asbag61
(g82
g63
NtRp3649
(dp3650
g66
(dp3651
g93
g94
ssg75
g3640
sg68
(lp3652
S':'
asbag61
(g82
g63
NtRp3653
(dp3654
g66
(dp3655
sg75
g3640
sg68
(lp3656
g61
(g62
g63
NtRp3657
(dp3658
g66
(dp3659
g74
I5
ssg75
g3653
sg68
(lp3660
S''
asbasbasbag61
(g77
g63
NtRp3661
(dp3662
g66
(dp3663
sg75
g3330
sg68
(lp3664
g61
(g82
g63
NtRp3665
(dp3666
g66
(dp3667
g86
g87
ssg75
g3661
sg68
(lp3668
S'generic_patterns'
p3669
asbag61
(g82
g63
NtRp3670
(dp3671
g66
(dp3672
g93
g94
ssg75
g3661
sg68
(lp3673
S':'
asbag61
(g82
g63
NtRp3674
(dp3675
g66
(dp3676
sg75
g3661
sg68
(lp3677
g61
(g62
g63
NtRp3678
(dp3679
g66
(dp3680
g74
I5
ssg75
g3674
sg68
(lp3681
g61
(g70
g63
NtRp3682
(dp3683
g66
(dp3684
g74
I4
ssg75
Nsg68
(lp3685
g61
(g77
g63
NtRp3686
(dp3687
g66
(dp3688
sg75
g3682
sg68
(lp3689
g61
(g82
g63
NtRp3690
(dp3691
g66
(dp3692
sg75
g3686
sg68
(lp3693
g61
(g62
g63
NtRp3694
(dp3695
g66
(dp3696
g74
I4
ssg75
g3690
sg68
(lp3697
S'*'
asbasbasbasbasbasbasbag61
(g77
g63
NtRp3698
(dp3699
g66
(dp3700
sg75
g3330
sg68
(lp3701
g61
(g82
g63
NtRp3702
(dp3703
g66
(dp3704
g86
g87
ssg75
g3698
sg68
(lp3705
S'google_analytics_id'
p3706
asbag61
(g82
g63
NtRp3707
(dp3708
g66
(dp3709
g93
g94
ssg75
g3698
sg68
(lp3710
S':'
asbag61
(g82
g63
NtRp3711
(dp3712
g66
(dp3713
sg75
g3698
sg68
(lp3714
g61
(g62
g63
NtRp3715
(dp3716
g66
(dp3717
g74
I5
ssg75
g3711
sg68
(lp3718
S'None'
p3719
asbasbasbag61
(g77
g63
NtRp3720
(dp3721
g66
(dp3722
sg75
g3330
sg68
(lp3723
g61
(g82
g63
NtRp3724
(dp3725
g66
(dp3726
g86
g87
ssg75
g3720
sg68
(lp3727
S'headers'
p3728
asbag61
(g82
g63
NtRp3729
(dp3730
g66
(dp3731
g93
g94
ssg75
g3720
sg68
(lp3732
S':'
asbag61
(g82
g63
NtRp3733
(dp3734
g66
(dp3735
sg75
g3720
sg68
(lp3736
g61
(g62
g63
NtRp3737
(dp3738
g66
(dp3739
g74
I5
ssg75
g3733
sg68
(lp3740
g61
(g70
g63
NtRp3741
(dp3742
g66
(dp3743
g74
I4
ssg75
Nsg68
(lp3744
g61
(g77
g63
NtRp3745
(dp3746
g66
(dp3747
sg75
g3741
sg68
(lp3748
g61
(g82
g63
NtRp3749
(dp3750
g66
(dp3751
g86
g87
ssg75
g3745
sg68
(lp3752
S'X-Powered-By'
p3753
asbag61
(g82
g63
NtRp3754
(dp3755
g66
(dp3756
g93
g94
ssg75
g3745
sg68
(lp3757
S':'
asbag61
(g82
g63
NtRp3758
(dp3759
g66
(dp3760
sg75
g3745
sg68
(lp3761
g61
(g62
g63
NtRp3762
(dp3763
g66
(dp3764
g74
I4
ssg75
g3758
sg68
(lp3765
S'web2py'
p3766
asbasbasbasbasbasbasbag61
(g77
g63
NtRp3767
(dp3768
g66
(dp3769
sg75
g3330
sg68
(lp3770
g61
(g82
g63
NtRp3771
(dp3772
g66
(dp3773
g86
g87
ssg75
g3767
sg68
(lp3774
S'menu'
p3775
asbag61
(g82
g63
NtRp3776
(dp3777
g66
(dp3778
g93
g94
ssg75
g3767
sg68
(lp3779
S':'
asbag61
(g82
g63
NtRp3780
(dp3781
g66
(dp3782
sg75
g3767
sg68
(lp3783
g61
(g62
g63
NtRp3784
(dp3785
g66
(dp3786
g74
I5
ssg75
g3780
sg68
(lp3787
g61
(g70
g63
NtRp3788
(dp3789
g66
(dp3790
g74
I4
ssg75
Nsg68
(lp3791
g61
(g77
g63
NtRp3792
(dp3793
g66
(dp3794
sg75
g3788
sg68
(lp3795
g61
(g82
g63
NtRp3796
(dp3797
g66
(dp3798
sg75
g3792
sg68
(lp3799
g61
(g62
g63
NtRp3800
(dp3801
g66
(dp3802
g74
I4
ssg75
g3796
sg68
(lp3803
g61
(g70
g63
NtRp3804
(dp3805
g66
(dp3806
g74
I3
ssg75
Nsg68
(lp3807
g61
(g77
g63
NtRp3808
(dp3809
g66
(dp3810
sg75
g3804
sg68
(lp3811
g61
(g82
g63
NtRp3812
(dp3813
g66
(dp3814
sg75
g3808
sg68
(lp3815
g61
(g62
g63
NtRp3816
(dp3817
g66
(dp3818
g74
I3
ssg75
g3812
sg68
(lp3819
cgluon.languages
lazyT_unpickle
p3820
(S's\x04\x00\x00\x00Home'
tRp3821
asbasbasbag61
(g77
g63
NtRp3822
(dp3823
g66
(dp3824
sg75
g3804
sg68
(lp3825
g61
(g82
g63
NtRp3826
(dp3827
g66
(dp3828
sg75
g3822
sg68
(lp3829
g61
(g62
g63
NtRp3830
(dp3831
g66
(dp3832
g74
I3
ssg75
g3826
sg68
(lp3833
g104
asbasbasbag61
(g77
g63
NtRp3834
(dp3835
g66
(dp3836
sg75
g3804
sg68
(lp3837
g61
(g82
g63
NtRp3838
(dp3839
g66
(dp3840
sg75
g3834
sg68
(lp3841
g61
(g62
g63
NtRp3842
(dp3843
g66
(dp3844
g74
I3
ssg75
g3838
sg68
(lp3845
S'/sueldos/default/index'
p3846
asbasbasbag61
(g77
g63
NtRp3847
(dp3848
g66
(dp3849
sg75
g3804
sg68
(lp3850
g61
(g82
g63
NtRp3851
(dp3852
g66
(dp3853
sg75
g3847
sg68
(lp3854
g61
(g62
g63
NtRp3855
(dp3856
g66
(dp3857
g74
I3
ssg75
g3851
sg68
(lp3858
g61
(g70
g63
NtRp3859
(dp3860
g66
(dp3861
g74
I2
ssg75
Nsg68
(lp3862
sbasbasbasbasbasbasbasbag61
(g77
g63
NtRp3863
(dp3864
g66
(dp3865
sg75
g3788
sg68
(lp3866
g61
(g82
g63
NtRp3867
(dp3868
g66
(dp3869
sg75
g3863
sg68
(lp3870
g61
(g62
g63
NtRp3871
(dp3872
g66
(dp3873
g74
I4
ssg75
g3867
sg68
(lp3874
g61
(g70
g63
NtRp3875
(dp3876
g66
(dp3877
g74
I3
ssg75
Nsg68
(lp3878
g61
(g77
g63
NtRp3879
(dp3880
g66
(dp3881
sg75
g3875
sg68
(lp3882
g61
(g82
g63
NtRp3883
(dp3884
g66
(dp3885
sg75
g3879
sg68
(lp3886
g61
(g62
g63
NtRp3887
(dp3888
g66
(dp3889
g74
I3
ssg75
g3883
sg68
(lp3890
g61
(cgluon.html
SPAN
p3891
g63
NtRp3892
(dp3893
g66
(dp3894
S'_class'
p3895
S'highlighted'
p3896
ssg75
Nsg68
(lp3897
g3766
asbasbasbasbag61
(g77
g63
NtRp3898
(dp3899
g66
(dp3900
sg75
g3875
sg68
(lp3901
g61
(g82
g63
NtRp3902
(dp3903
g66
(dp3904
sg75
g3898
sg68
(lp3905
g61
(g62
g63
NtRp3906
(dp3907
g66
(dp3908
g74
I3
ssg75
g3902
sg68
(lp3909
g104
asbasbasbag61
(g77
g63
NtRp3910
(dp3911
g66
(dp3912
sg75
g3875
sg68
(lp3913
g61
(g82
g63
NtRp3914
(dp3915
g66
(dp3916
sg75
g3910
sg68
(lp3917
g61
(g62
g63
NtRp3918
(dp3919
g66
(dp3920
g74
I3
ssg75
g3914
sg68
(lp3921
S'http://web2py.com'
p3922
asbasbasbag61
(g77
g63
NtRp3923
(dp3924
g66
(dp3925
sg75
g3875
sg68
(lp3926
g61
(g82
g63
NtRp3927
(dp3928
g66
(dp3929
sg75
g3923
sg68
(lp3930
g61
(g62
g63
NtRp3931
(dp3932
g66
(dp3933
g74
I3
ssg75
g3927
sg68
(lp3934
g61
(g70
g63
NtRp3935
(dp3936
g66
(dp3937
g74
I2
ssg75
Nsg68
(lp3938
g61
(g77
g63
NtRp3939
(dp3940
g66
(dp3941
sg75
g3935
sg68
(lp3942
g61
(g82
g63
NtRp3943
(dp3944
g66
(dp3945
sg75
g3939
sg68
(lp3946
g61
(g62
g63
NtRp3947
(dp3948
g66
(dp3949
g74
I2
ssg75
g3943
sg68
(lp3950
g61
(g70
g63
NtRp3951
(dp3952
g66
(dp3953
g74
I1
ssg75
Nsg68
(lp3954
g61
(g77
g63
NtRp3955
(dp3956
g66
(dp3957
sg75
g3951
sg68
(lp3958
g61
(g82
g63
NtRp3959
(dp3960
g66
(dp3961
sg75
g3955
sg68
(lp3962
g61
(g62
g63
NtRp3963
(dp3964
g66
(dp3965
g74
I1
ssg75
g3959
sg68
(lp3966
g3820
(S's\x08\x00\x00\x00My Sites'
tRp3967
asbasbasbag61
(g77
g63
NtRp3968
(dp3969
g66
(dp3970
sg75
g3951
sg68
(lp3971
g61
(g82
g63
NtRp3972
(dp3973
g66
(dp3974
sg75
g3968
sg68
(lp3975
g61
(g62
g63
NtRp3976
(dp3977
g66
(dp3978
g74
I1
ssg75
g3972
sg68
(lp3979
I00
asbasbasbag61
(g77
g63
NtRp3980
(dp3981
g66
(dp3982
sg75
g3951
sg68
(lp3983
g61
(g82
g63
NtRp3984
(dp3985
g66
(dp3986
sg75
g3980
sg68
(lp3987
g61
(g62
g63
NtRp3988
(dp3989
g66
(dp3990
g74
I1
ssg75
g3984
sg68
(lp3991
S'/admin/default/site'
p3992
asbasbasbasbasbasbasbag61
(g77
g63
NtRp3993
(dp3994
g66
(dp3995
sg75
g3935
sg68
(lp3996
g61
(g82
g63
NtRp3997
(dp3998
g66
(dp3999
sg75
g3993
sg68
(lp4000
g61
(g62
g63
NtRp4001
(dp4002
g66
(dp4003
g74
I2
ssg75
g3997
sg68
(lp4004
g61
(g70
g63
NtRp4005
(dp4006
g66
(dp4007
g74
I1
ssg75
Nsg68
(lp4008
g61
(g77
g63
NtRp4009
(dp4010
g66
(dp4011
sg75
g4005
sg68
(lp4012
g61
(g82
g63
NtRp4013
(dp4014
g66
(dp4015
sg75
g4009
sg68
(lp4016
g61
(g62
g63
NtRp4017
(dp4018
g66
(dp4019
g74
I1
ssg75
g4013
sg68
(lp4020
g3820
(S's\x08\x00\x00\x00This App'
tRp4021
asbasbasbag61
(g77
g63
NtRp4022
(dp4023
g66
(dp4024
sg75
g4005
sg68
(lp4025
g61
(g82
g63
NtRp4026
(dp4027
g66
(dp4028
sg75
g4022
sg68
(lp4029
g61
(g62
g63
NtRp4030
(dp4031
g66
(dp4032
g74
I1
ssg75
g4026
sg68
(lp4033
I00
asbasbasbag61
(g77
g63
NtRp4034
(dp4035
g66
(dp4036
sg75
g4005
sg68
(lp4037
g61
(g82
g63
NtRp4038
(dp4039
g66
(dp4040
sg75
g4034
sg68
(lp4041
g61
(g62
g63
NtRp4042
(dp4043
g66
(dp4044
g74
I1
ssg75
g4038
sg68
(lp4045
S'/admin/default/design/sueldos'
p4046
asbasbasbag61
(g77
g63
NtRp4047
(dp4048
g66
(dp4049
sg75
g4005
sg68
(lp4050
g61
(g82
g63
NtRp4051
(dp4052
g66
(dp4053
sg75
g4047
sg68
(lp4054
g61
(g62
g63
NtRp4055
(dp4056
g66
(dp4057
g74
I1
ssg75
g4051
sg68
(lp4058
(lp4059
(g3820
(S's\n\x00\x00\x00Controller'
tRp4060
I00
S'/admin/default/edit/sueldos/controllers/altas.py'
tp4061
a(g3820
(S's\x04\x00\x00\x00View'
tRp4062
I00
S'/admin/default/edit/sueldos/views/altas/empleadores.html'
tp4063
a(g3820
(S's\x06\x00\x00\x00Layout'
tRp4064
I00
S'/admin/default/edit/sueldos/views/layout.html'
tp4065
a(g3820
(S's\n\x00\x00\x00Stylesheet'
tRp4066
I00
S'/admin/default/edit/sueldos/static/css/web2py.css'
tp4067
a(g3820
(S's\x08\x00\x00\x00DB Model'
tRp4068
I00
S'/admin/default/edit/sueldos/models/db.py'
tp4069
a(g3820
(S's\n\x00\x00\x00Menu Model'
tRp4070
I00
S'/admin/default/edit/sueldos/models/menu.py'
tp4071
a(g3820
(S's\x08\x00\x00\x00Database'
tRp4072
I00
S'/sueldos/appadmin/index'
tp4073
a(g3820
(S's\x06\x00\x00\x00Errors'
tRp4074
I00
S'/admin/default/errors/sueldos'
tp4075
a(g3820
(S's\x05\x00\x00\x00About'
tRp4076
I00
S'/admin/default/about/sueldos'
tp4077
aasbasbasbasbasbasbasbag61
(g77
g63
NtRp4078
(dp4079
g66
(dp4080
sg75
g3935
sg68
(lp4081
g61
(g82
g63
NtRp4082
(dp4083
g66
(dp4084
sg75
g4078
sg68
(lp4085
g61
(g62
g63
NtRp4086
(dp4087
g66
(dp4088
g74
I2
ssg75
g4082
sg68
(lp4089
g61
(g70
g63
NtRp4090
(dp4091
g66
(dp4092
g74
I1
ssg75
Nsg68
(lp4093
g61
(g77
g63
NtRp4094
(dp4095
g66
(dp4096
sg75
g4090
sg68
(lp4097
g61
(g82
g63
NtRp4098
(dp4099
g66
(dp4100
sg75
g4094
sg68
(lp4101
g61
(g62
g63
NtRp4102
(dp4103
g66
(dp4104
g74
I1
ssg75
g4098
sg68
(lp4105
S'web2py.com'
p4106
asbasbasbag61
(g77
g63
NtRp4107
(dp4108
g66
(dp4109
sg75
g4090
sg68
(lp4110
g61
(g82
g63
NtRp4111
(dp4112
g66
(dp4113
sg75
g4107
sg68
(lp4114
g61
(g62
g63
NtRp4115
(dp4116
g66
(dp4117
g74
I1
ssg75
g4111
sg68
(lp4118
I00
asbasbasbag61
(g77
g63
NtRp4119
(dp4120
g66
(dp4121
sg75
g4090
sg68
(lp4122
g61
(g82
g63
NtRp4123
(dp4124
g66
(dp4125
sg75
g4119
sg68
(lp4126
g61
(g62
g63
NtRp4127
(dp4128
g66
(dp4129
g74
I1
ssg75
g4123
sg68
(lp4130
S'http://www.web2py.com'
p4131
asbasbasbag61
(g77
g63
NtRp4132
(dp4133
g66
(dp4134
sg75
g4090
sg68
(lp4135
g61
(g82
g63
NtRp4136
(dp4137
g66
(dp4138
sg75
g4132
sg68
(lp4139
g61
(g62
g63
NtRp4140
(dp4141
g66
(dp4142
g74
I1
ssg75
g4136
sg68
(lp4143
(lp4144
(g3820
(S's\x08\x00\x00\x00Download'
tRp4145
I00
S'http://www.web2py.com/examples/default/download'
p4146
tp4147
a(g3820
(S's\x07\x00\x00\x00Support'
tRp4148
I00
S'http://www.web2py.com/examples/default/support'
p4149
tp4150
a(g3820
(S's\x04\x00\x00\x00Demo'
tRp4151
I00
S'http://web2py.com/demo_admin'
p4152
tp4153
a(g3820
(S's\x0e\x00\x00\x00Quick Examples'
tRp4154
I00
S'http://web2py.com/examples/default/examples'
p4155
tp4156
a(g3820
(S's\x03\x00\x00\x00FAQ'
tRp4157
I00
S'http://web2py.com/AlterEgo'
p4158
tp4159
a(g3820
(S's\x06\x00\x00\x00Videos'
tRp4160
I00
S'http://www.web2py.com/examples/default/videos/'
p4161
tp4162
a(g3820
(S's\x11\x00\x00\x00Free Applications'
tRp4163
I00
S'http://web2py.com/appliances'
p4164
tp4165
a(g3820
(S's\x07\x00\x00\x00Plugins'
tRp4166
I00
S'http://web2py.com/plugins'
p4167
tp4168
a(g3820
(S's\x07\x00\x00\x00Layouts'
tRp4169
I00
S'http://web2py.com/layouts'
p4170
tp4171
a(g3820
(S's\x07\x00\x00\x00Recipes'
tRp4172
I00
S'http://web2pyslices.com/'
p4173
tp4174
a(g3820
(S's\x08\x00\x00\x00Semantic'
tRp4175
I00
S'http://web2py.com/semantic'
p4176
tp4177
aasbasbasbasbasbasbasbag61
(g77
g63
NtRp4178
(dp4179
g66
(dp4180
sg75
g3935
sg68
(lp4181
g61
(g82
g63
NtRp4182
(dp4183
g66
(dp4184
sg75
g4178
sg68
(lp4185
g61
(g62
g63
NtRp4186
(dp4187
g66
(dp4188
g74
I2
ssg75
g4182
sg68
(lp4189
g61
(g70
g63
NtRp4190
(dp4191
g66
(dp4192
g74
I1
ssg75
Nsg68
(lp4193
g61
(g77
g63
NtRp4194
(dp4195
g66
(dp4196
sg75
g4190
sg68
(lp4197
g61
(g82
g63
NtRp4198
(dp4199
g66
(dp4200
sg75
g4194
sg68
(lp4201
g61
(g62
g63
NtRp4202
(dp4203
g66
(dp4204
g74
I1
ssg75
g4198
sg68
(lp4205
g3820
(S's\r\x00\x00\x00Documentation'
tRp4206
asbasbasbag61
(g77
g63
NtRp4207
(dp4208
g66
(dp4209
sg75
g4190
sg68
(lp4210
g61
(g82
g63
NtRp4211
(dp4212
g66
(dp4213
sg75
g4207
sg68
(lp4214
g61
(g62
g63
NtRp4215
(dp4216
g66
(dp4217
g74
I1
ssg75
g4211
sg68
(lp4218
I00
asbasbasbag61
(g77
g63
NtRp4219
(dp4220
g66
(dp4221
sg75
g4190
sg68
(lp4222
g61
(g82
g63
NtRp4223
(dp4224
g66
(dp4225
sg75
g4219
sg68
(lp4226
g61
(g62
g63
NtRp4227
(dp4228
g66
(dp4229
g74
I1
ssg75
g4223
sg68
(lp4230
S'http://www.web2py.com/book'
p4231
asbasbasbag61
(g77
g63
NtRp4232
(dp4233
g66
(dp4234
sg75
g4190
sg68
(lp4235
g61
(g82
g63
NtRp4236
(dp4237
g66
(dp4238
sg75
g4232
sg68
(lp4239
g61
(g62
g63
NtRp4240
(dp4241
g66
(dp4242
g74
I1
ssg75
g4236
sg68
(lp4243
(lp4244
(g3820
(S's\x07\x00\x00\x00Preface'
tRp4245
I00
S'http://www.web2py.com/book/default/chapter/00'
p4246
tp4247
a(g3820
(S's\x0c\x00\x00\x00Introduction'
tRp4248
I00
S'http://www.web2py.com/book/default/chapter/01'
p4249
tp4250
a(g3820
(S's\x06\x00\x00\x00Python'
tRp4251
I00
S'http://www.web2py.com/book/default/chapter/02'
p4252
tp4253
a(g3820
(S's\x08\x00\x00\x00Overview'
tRp4254
I00
S'http://www.web2py.com/book/default/chapter/03'
p4255
tp4256
a(g3820
(S's\x08\x00\x00\x00The Core'
tRp4257
I00
S'http://www.web2py.com/book/default/chapter/04'
p4258
tp4259
a(g3820
(S's\t\x00\x00\x00The Views'
tRp4260
I00
S'http://www.web2py.com/book/default/chapter/05'
p4261
tp4262
a(g3820
(S's\x08\x00\x00\x00Database'
tRp4263
I00
S'http://www.web2py.com/book/default/chapter/06'
p4264
tp4265
a(g3820
(S's\x14\x00\x00\x00Forms and Validators'
tRp4266
I00
S'http://www.web2py.com/book/default/chapter/07'
p4267
tp4268
a(g3820
(S's\r\x00\x00\x00Email and SMS'
tRp4269
I00
S'http://www.web2py.com/book/default/chapter/08'
p4270
tp4271
a(g3820
(S's\x0e\x00\x00\x00Access Control'
tRp4272
I00
S'http://www.web2py.com/book/default/chapter/09'
p4273
tp4274
a(g3820
(S's\x08\x00\x00\x00Services'
tRp4275
I00
S'http://www.web2py.com/book/default/chapter/10'
p4276
tp4277
a(g3820
(S's\x0c\x00\x00\x00Ajax Recipes'
tRp4278
I00
S'http://www.web2py.com/book/default/chapter/11'
p4279
tp4280
a(g3820
(S's\x16\x00\x00\x00Components and Plugins'
tRp4281
I00
S'http://www.web2py.com/book/default/chapter/12'
p4282
tp4283
a(g3820
(S's\x12\x00\x00\x00Deployment Recipes'
tRp4284
I00
S'http://www.web2py.com/book/default/chapter/13'
p4285
tp4286
a(g3820
(S's\r\x00\x00\x00Other Recipes'
tRp4287
I00
S'http://www.web2py.com/book/default/chapter/14'
p4288
tp4289
a(g3820
(S's\r\x00\x00\x00Buy this book'
tRp4290
I00
S'http://stores.lulu.com/web2py'
p4291
tp4292
aasbasbasbasbasbasbasbag61
(g77
g63
NtRp4293
(dp4294
g66
(dp4295
sg75
g3935
sg68
(lp4296
g61
(g82
g63
NtRp4297
(dp4298
g66
(dp4299
sg75
g4293
sg68
(lp4300
g61
(g62
g63
NtRp4301
(dp4302
g66
(dp4303
g74
I2
ssg75
g4297
sg68
(lp4304
g61
(g70
g63
NtRp4305
(dp4306
g66
(dp4307
g74
I1
ssg75
Nsg68
(lp4308
g61
(g77
g63
NtRp4309
(dp4310
g66
(dp4311
sg75
g4305
sg68
(lp4312
g61
(g82
g63
NtRp4313
(dp4314
g66
(dp4315
sg75
g4309
sg68
(lp4316
g61
(g62
g63
NtRp4317
(dp4318
g66
(dp4319
g74
I1
ssg75
g4313
sg68
(lp4320
g3820
(S's\t\x00\x00\x00Community'
tRp4321
asbasbasbag61
(g77
g63
NtRp4322
(dp4323
g66
(dp4324
sg75
g4305
sg68
(lp4325
g61
(g82
g63
NtRp4326
(dp4327
g66
(dp4328
sg75
g4322
sg68
(lp4329
g61
(g62
g63
NtRp4330
(dp4331
g66
(dp4332
g74
I1
ssg75
g4326
sg68
(lp4333
I00
asbasbasbag61
(g77
g63
NtRp4334
(dp4335
g66
(dp4336
sg75
g4305
sg68
(lp4337
g61
(g82
g63
NtRp4338
(dp4339
g66
(dp4340
sg75
g4334
sg68
(lp4341
g61
(g62
g63
NtRp4342
(dp4343
g66
(dp4344
g74
I1
ssg75
g4338
sg68
(lp4345
Nasbasbasbag61
(g77
g63
NtRp4346
(dp4347
g66
(dp4348
sg75
g4305
sg68
(lp4349
g61
(g82
g63
NtRp4350
(dp4351
g66
(dp4352
sg75
g4346
sg68
(lp4353
g61
(g62
g63
NtRp4354
(dp4355
g66
(dp4356
g74
I1
ssg75
g4350
sg68
(lp4357
(lp4358
(g3820
(S's\x06\x00\x00\x00Groups'
tRp4359
I00
S'http://www.web2py.com/examples/default/usergroups'
p4360
tp4361
a(g3820
(S's\x07\x00\x00\x00Twitter'
tRp4362
I00
S'http://twitter.com/web2py'
p4363
tp4364
a(g3820
(S's\t\x00\x00\x00Live Chat'
tRp4365
I00
S'http://webchat.freenode.net/?channels=web2py'
p4366
tp4367
aasbasbasbasbasbasbasbag61
(g77
g63
NtRp4368
(dp4369
g66
(dp4370
sg75
g3935
sg68
(lp4371
g61
(g82
g63
NtRp4372
(dp4373
g66
(dp4374
sg75
g4368
sg68
(lp4375
g61
(g62
g63
NtRp4376
(dp4377
g66
(dp4378
g74
I2
ssg75
g4372
sg68
(lp4379
g61
(g70
g63
NtRp4380
(dp4381
g66
(dp4382
g74
I1
ssg75
Nsg68
(lp4383
g61
(g77
g63
NtRp4384
(dp4385
g66
(dp4386
sg75
g4380
sg68
(lp4387
g61
(g82
g63
NtRp4388
(dp4389
g66
(dp4390
sg75
g4384
sg68
(lp4391
g61
(g62
g63
NtRp4392
(dp4393
g66
(dp4394
g74
I1
ssg75
g4388
sg68
(lp4395
g3820
(S's\x07\x00\x00\x00Plugins'
tRp4396
asbasbasbag61
(g77
g63
NtRp4397
(dp4398
g66
(dp4399
sg75
g4380
sg68
(lp4400
g61
(g82
g63
NtRp4401
(dp4402
g66
(dp4403
sg75
g4397
sg68
(lp4404
g61
(g62
g63
NtRp4405
(dp4406
g66
(dp4407
g74
I1
ssg75
g4401
sg68
(lp4408
I00
asbasbasbag61
(g77
g63
NtRp4409
(dp4410
g66
(dp4411
sg75
g4380
sg68
(lp4412
g61
(g82
g63
NtRp4413
(dp4414
g66
(dp4415
sg75
g4409
sg68
(lp4416
g61
(g62
g63
NtRp4417
(dp4418
g66
(dp4419
g74
I1
ssg75
g4413
sg68
(lp4420
Nasbasbasbag61
(g77
g63
NtRp4421
(dp4422
g66
(dp4423
sg75
g4380
sg68
(lp4424
g61
(g82
g63
NtRp4425
(dp4426
g66
(dp4427
sg75
g4421
sg68
(lp4428
g61
(g62
g63
NtRp4429
(dp4430
g66
(dp4431
g74
I1
ssg75
g4425
sg68
(lp4432
(lp4433
(S'plugin_wiki'
p4434
I00
S'http://web2py.com/examples/default/download'
p4435
tp4436
a(g3820
(S's\r\x00\x00\x00Other Plugins'
tRp4437
I00
g4167
tp4438
a(g3820
(S's\x0e\x00\x00\x00Layout Plugins'
tRp4439
I00
g4170
tp4440
aasbasbasbasbasbasbasbasbasbasbasbasbasbasbasbasbasbasbasbag61
(g77
g63
NtRp4441
(dp4442
g66
(dp4443
sg75
g3330
sg68
(lp4444
g61
(g82
g63
NtRp4445
(dp4446
g66
(dp4447
g86
g87
ssg75
g4441
sg68
(lp4448
S'meta'
p4449
asbag61
(g82
g63
NtRp4450
(dp4451
g66
(dp4452
g93
g94
ssg75
g4441
sg68
(lp4453
S':'
asbag61
(g82
g63
NtRp4454
(dp4455
g66
(dp4456
sg75
g4441
sg68
(lp4457
g61
(g62
g63
NtRp4458
(dp4459
g66
(dp4460
g74
I5
ssg75
g4454
sg68
(lp4461
g61
(g70
g63
NtRp4462
(dp4463
g66
(dp4464
g74
I4
ssg75
Nsg68
(lp4465
g61
(g77
g63
NtRp4466
(dp4467
g66
(dp4468
sg75
g4462
sg68
(lp4469
g61
(g82
g63
NtRp4470
(dp4471
g66
(dp4472
g86
g87
ssg75
g4466
sg68
(lp4473
S'author'
p4474
asbag61
(g82
g63
NtRp4475
(dp4476
g66
(dp4477
g93
g94
ssg75
g4466
sg68
(lp4478
S':'
asbag61
(g82
g63
NtRp4479
(dp4480
g66
(dp4481
sg75
g4466
sg68
(lp4482
g61
(g62
g63
NtRp4483
(dp4484
g66
(dp4485
g74
I4
ssg75
g4479
sg68
(lp4486
S'Your Name <you@example.com>'
p4487
asbasbasbag61
(g77
g63
NtRp4488
(dp4489
g66
(dp4490
sg75
g4462
sg68
(lp4491
g61
(g82
g63
NtRp4492
(dp4493
g66
(dp4494
g86
g87
ssg75
g4488
sg68
(lp4495
S'description'
p4496
asbag61
(g82
g63
NtRp4497
(dp4498
g66
(dp4499
g93
g94
ssg75
g4488
sg68
(lp4500
S':'
asbag61
(g82
g63
NtRp4501
(dp4502
g66
(dp4503
sg75
g4488
sg68
(lp4504
g61
(g62
g63
NtRp4505
(dp4506
g66
(dp4507
g74
I4
ssg75
g4501
sg68
(lp4508
S'a cool new app'
p4509
asbasbasbag61
(g77
g63
NtRp4510
(dp4511
g66
(dp4512
sg75
g4462
sg68
(lp4513
g61
(g82
g63
NtRp4514
(dp4515
g66
(dp4516
g86
g87
ssg75
g4510
sg68
(lp4517
S'generator'
p4518
asbag61
(g82
g63
NtRp4519
(dp4520
g66
(dp4521
g93
g94
ssg75
g4510
sg68
(lp4522
S':'
asbag61
(g82
g63
NtRp4523
(dp4524
g66
(dp4525
sg75
g4510
sg68
(lp4526
g61
(g62
g63
NtRp4527
(dp4528
g66
(dp4529
g74
I4
ssg75
g4523
sg68
(lp4530
S'Web2py Web Framework'
p4531
asbasbasbag61
(g77
g63
NtRp4532
(dp4533
g66
(dp4534
sg75
g4462
sg68
(lp4535
g61
(g82
g63
NtRp4536
(dp4537
g66
(dp4538
g86
g87
ssg75
g4532
sg68
(lp4539
S'keywords'
p4540
asbag61
(g82
g63
NtRp4541
(dp4542
g66
(dp4543
g93
g94
ssg75
g4532
sg68
(lp4544
S':'
asbag61
(g82
g63
NtRp4545
(dp4546
g66
(dp4547
sg75
g4532
sg68
(lp4548
g61
(g62
g63
NtRp4549
(dp4550
g66
(dp4551
g74
I4
ssg75
g4545
sg68
(lp4552
S'web2py, python, framework'
p4553
asbasbasbasbasbasbasbag61
(g77
g63
NtRp4554
(dp4555
g66
(dp4556
sg75
g3330
sg68
(lp4557
g61
(g82
g63
NtRp4558
(dp4559
g66
(dp4560
g86
g87
ssg75
g4554
sg68
(lp4561
S'models_to_run'
p4562
asbag61
(g82
g63
NtRp4563
(dp4564
g66
(dp4565
g93
g94
ssg75
g4554
sg68
(lp4566
S':'
asbag61
(g82
g63
NtRp4567
(dp4568
g66
(dp4569
sg75
g4554
sg68
(lp4570
g61
(g62
g63
NtRp4571
(dp4572
g66
(dp4573
g74
I5
ssg75
g4567
sg68
(lp4574
g61
(g70
g63
NtRp4575
(dp4576
g66
(dp4577
g74
I4
ssg75
Nsg68
(lp4578
g61
(g77
g63
NtRp4579
(dp4580
g66
(dp4581
sg75
g4575
sg68
(lp4582
g61
(g82
g63
NtRp4583
(dp4584
g66
(dp4585
sg75
g4579
sg68
(lp4586
g61
(g62
g63
NtRp4587
(dp4588
g66
(dp4589
g74
I4
ssg75
g4583
sg68
(lp4590
S'^\\w+\\.py$'
p4591
asbasbasbag61
(g77
g63
NtRp4592
(dp4593
g66
(dp4594
sg75
g4575
sg68
(lp4595
g61
(g82
g63
NtRp4596
(dp4597
g66
(dp4598
sg75
g4592
sg68
(lp4599
g61
(g62
g63
NtRp4600
(dp4601
g66
(dp4602
g74
I4
ssg75
g4596
sg68
(lp4603
S'^altas/\\w+\\.py$'
p4604
asbasbasbag61
(g77
g63
NtRp4605
(dp4606
g66
(dp4607
sg75
g4575
sg68
(lp4608
g61
(g82
g63
NtRp4609
(dp4610
g66
(dp4611
sg75
g4605
sg68
(lp4612
g61
(g62
g63
NtRp4613
(dp4614
g66
(dp4615
g74
I4
ssg75
g4609
sg68
(lp4616
S'^altas/empleadores/\\w+\\.py$'
p4617
asbasbasbasbasbasbasbag61
(g77
g63
NtRp4618
(dp4619
g66
(dp4620
sg75
g3330
sg68
(lp4621
g61
(g82
g63
NtRp4622
(dp4623
g66
(dp4624
g86
g87
ssg75
g4618
sg68
(lp4625
S'postprocessing'
p4626
asbag61
(g82
g63
NtRp4627
(dp4628
g66
(dp4629
g93
g94
ssg75
g4618
sg68
(lp4630
S':'
asbag61
(g82
g63
NtRp4631
(dp4632
g66
(dp4633
sg75
g4618
sg68
(lp4634
g61
(g62
g63
NtRp4635
(dp4636
g66
(dp4637
g74
I5
ssg75
g4631
sg68
(lp4638
g61
(g70
g63
NtRp4639
(dp4640
g66
(dp4641
g74
I4
ssg75
Nsg68
(lp4642
sbasbasbasbag61
(g77
g63
NtRp4643
(dp4644
g66
(dp4645
sg75
g3330
sg68
(lp4646
g61
(g82
g63
NtRp4647
(dp4648
g66
(dp4649
g86
g87
ssg75
g4643
sg68
(lp4650
S'session_cookie_expires'
p4651
asbag61
(g82
g63
NtRp4652
(dp4653
g66
(dp4654
g93
g94
ssg75
g4643
sg68
(lp4655
S':'
asbag61
(g82
g63
NtRp4656
(dp4657
g66
(dp4658
sg75
g4643
sg68
(lp4659
g61
(g62
g63
NtRp4660
(dp4661
g66
(dp4662
g74
I5
ssg75
g4656
sg68
(lp4663
S'None'
p4664
asbasbasbag61
(g77
g63
NtRp4665
(dp4666
g66
(dp4667
sg75
g3330
sg68
(lp4668
g61
(g82
g63
NtRp4669
(dp4670
g66
(dp4671
g86
g87
ssg75
g4665
sg68
(lp4672
S'session_data_name'
p4673
asbag61
(g82
g63
NtRp4674
(dp4675
g66
(dp4676
g93
g94
ssg75
g4665
sg68
(lp4677
S':'
asbag61
(g82
g63
NtRp4678
(dp4679
g66
(dp4680
sg75
g4665
sg68
(lp4681
g61
(g62
g63
NtRp4682
(dp4683
g66
(dp4684
g74
I5
ssg75
g4678
sg68
(lp4685
S'session_data_sueldos'
p4686
asbasbasbag61
(g77
g63
NtRp4687
(dp4688
g66
(dp4689
sg75
g3330
sg68
(lp4690
g61
(g82
g63
NtRp4691
(dp4692
g66
(dp4693
g86
g87
ssg75
g4687
sg68
(lp4694
S'session_file'
p4695
asbag61
(g82
g63
NtRp4696
(dp4697
g66
(dp4698
g93
g94
ssg75
g4687
sg68
(lp4699
S':'
asbag61
(g82
g63
NtRp4700
(dp4701
g66
(dp4702
sg75
g4687
sg68
(lp4703
g61
(g62
g63
NtRp4704
(dp4705
g66
(dp4706
g74
I5
ssg75
g4700
sg68
(lp4707
S"<open file '/home/marco/projects/contabilidad/web2py/applications/sueldos/sessions/127.0.0.1-b5ab5c43-cb03-494e-8551-1bb3b74c2938', mode 'rb+' at 0x2f07f60>"
p4708
asbasbasbag61
(g77
g63
NtRp4709
(dp4710
g66
(dp4711
sg75
g3330
sg68
(lp4712
g61
(g82
g63
NtRp4713
(dp4714
g66
(dp4715
g86
g87
ssg75
g4709
sg68
(lp4716
S'session_filename'
p4717
asbag61
(g82
g63
NtRp4718
(dp4719
g66
(dp4720
g93
g94
ssg75
g4709
sg68
(lp4721
S':'
asbag61
(g82
g63
NtRp4722
(dp4723
g66
(dp4724
sg75
g4709
sg68
(lp4725
g61
(g62
g63
NtRp4726
(dp4727
g66
(dp4728
g74
I5
ssg75
g4722
sg68
(lp4729
S'/home/marco/projects/contabilidad/web2py/applications/sueldos/sessions/127.0.0.1-b5ab5c43-cb03-494e-8551-1bb3b74c2938'
p4730
asbasbasbag61
(g77
g63
NtRp4731
(dp4732
g66
(dp4733
sg75
g3330
sg68
(lp4734
g61
(g82
g63
NtRp4735
(dp4736
g66
(dp4737
g86
g87
ssg75
g4731
sg68
(lp4738
S'session_id'
p4739
asbag61
(g82
g63
NtRp4740
(dp4741
g66
(dp4742
g93
g94
ssg75
g4731
sg68
(lp4743
S':'
asbag61
(g82
g63
NtRp4744
(dp4745
g66
(dp4746
sg75
g4731
sg68
(lp4747
g61
(g62
g63
NtRp4748
(dp4749
g66
(dp4750
g74
I5
ssg75
g4744
sg68
(lp4751
g479
asbasbasbag61
(g77
g63
NtRp4752
(dp4753
g66
(dp4754
sg75
g3330
sg68
(lp4755
g61
(g82
g63
NtRp4756
(dp4757
g66
(dp4758
g86
g87
ssg75
g4752
sg68
(lp4759
S'session_id_name'
p4760
asbag61
(g82
g63
NtRp4761
(dp4762
g66
(dp4763
g93
g94
ssg75
g4752
sg68
(lp4764
S':'
asbag61
(g82
g63
NtRp4765
(dp4766
g66
(dp4767
sg75
g4752
sg68
(lp4768
g61
(g62
g63
NtRp4769
(dp4770
g66
(dp4771
g74
I5
ssg75
g4765
sg68
(lp4772
g3387
asbasbasbag61
(g77
g63
NtRp4773
(dp4774
g66
(dp4775
sg75
g3330
sg68
(lp4776
g61
(g82
g63
NtRp4777
(dp4778
g66
(dp4779
g86
g87
ssg75
g4773
sg68
(lp4780
S'session_locked'
p4781
asbag61
(g82
g63
NtRp4782
(dp4783
g66
(dp4784
g93
g94
ssg75
g4773
sg68
(lp4785
S':'
asbag61
(g82
g63
NtRp4786
(dp4787
g66
(dp4788
sg75
g4773
sg68
(lp4789
g61
(g62
g63
NtRp4790
(dp4791
g66
(dp4792
g74
I5
ssg75
g4786
sg68
(lp4793
g1587
asbasbasbag61
(g77
g63
NtRp4794
(dp4795
g66
(dp4796
sg75
g3330
sg68
(lp4797
g61
(g82
g63
NtRp4798
(dp4799
g66
(dp4800
g86
g87
ssg75
g4794
sg68
(lp4801
S'session_new'
p4802
asbag61
(g82
g63
NtRp4803
(dp4804
g66
(dp4805
g93
g94
ssg75
g4794
sg68
(lp4806
S':'
asbag61
(g82
g63
NtRp4807
(dp4808
g66
(dp4809
sg75
g4794
sg68
(lp4810
g61
(g62
g63
NtRp4811
(dp4812
g66
(dp4813
g74
I5
ssg75
g4807
sg68
(lp4814
g104
asbasbasbag61
(g77
g63
NtRp4815
(dp4816
g66
(dp4817
sg75
g3330
sg68
(lp4818
g61
(g82
g63
NtRp4819
(dp4820
g66
(dp4821
g86
g87
ssg75
g4815
sg68
(lp4822
S'session_storage_type'
p4823
asbag61
(g82
g63
NtRp4824
(dp4825
g66
(dp4826
g93
g94
ssg75
g4815
sg68
(lp4827
S':'
asbag61
(g82
g63
NtRp4828
(dp4829
g66
(dp4830
sg75
g4815
sg68
(lp4831
g61
(g62
g63
NtRp4832
(dp4833
g66
(dp4834
g74
I5
ssg75
g4828
sg68
(lp4835
g3018
asbasbasbag61
(g77
g63
NtRp4836
(dp4837
g66
(dp4838
sg75
g3330
sg68
(lp4839
g61
(g82
g63
NtRp4840
(dp4841
g66
(dp4842
g86
g87
ssg75
g4836
sg68
(lp4843
S'status'
p4844
asbag61
(g82
g63
NtRp4845
(dp4846
g66
(dp4847
g93
g94
ssg75
g4836
sg68
(lp4848
S':'
asbag61
(g82
g63
NtRp4849
(dp4850
g66
(dp4851
sg75
g4836
sg68
(lp4852
g61
(g62
g63
NtRp4853
(dp4854
g66
(dp4855
g74
I5
ssg75
g4849
sg68
(lp4856
S'200'
p4857
asbasbasbag61
(g77
g63
NtRp4858
(dp4859
g66
(dp4860
sg75
g3330
sg68
(lp4861
g61
(g82
g63
NtRp4862
(dp4863
g66
(dp4864
g86
g87
ssg75
g4858
sg68
(lp4865
S'subtitle'
p4866
asbag61
(g82
g63
NtRp4867
(dp4868
g66
(dp4869
g93
g94
ssg75
g4858
sg68
(lp4870
S':'
asbag61
(g82
g63
NtRp4871
(dp4872
g66
(dp4873
sg75
g4858
sg68
(lp4874
g61
(g62
g63
NtRp4875
(dp4876
g66
(dp4877
g74
I5
ssg75
g4871
sg68
(lp4878
g3820
(S's\r\x00\x00\x00customize me!'
tRp4879
asbasbasbag61
(g77
g63
NtRp4880
(dp4881
g66
(dp4882
sg75
g3330
sg68
(lp4883
g61
(g82
g63
NtRp4884
(dp4885
g66
(dp4886
g86
g87
ssg75
g4880
sg68
(lp4887
S'title'
p4888
asbag61
(g82
g63
NtRp4889
(dp4890
g66
(dp4891
g93
g94
ssg75
g4880
sg68
(lp4892
S':'
asbag61
(g82
g63
NtRp4893
(dp4894
g66
(dp4895
sg75
g4880
sg68
(lp4896
g61
(g62
g63
NtRp4897
(dp4898
g66
(dp4899
g74
I5
ssg75
g4893
sg68
(lp4900
S'Sueldos'
p4901
asbasbasbag61
(g77
g63
NtRp4902
(dp4903
g66
(dp4904
sg75
g3330
sg68
(lp4905
g61
(g82
g63
NtRp4906
(dp4907
g66
(dp4908
g86
g87
ssg75
g4902
sg68
(lp4909
S'view'
p4910
asbag61
(g82
g63
NtRp4911
(dp4912
g66
(dp4913
g93
g94
ssg75
g4902
sg68
(lp4914
S':'
asbag61
(g82
g63
NtRp4915
(dp4916
g66
(dp4917
sg75
g4902
sg68
(lp4918
g61
(g62
g63
NtRp4919
(dp4920
g66
(dp4921
g74
I5
ssg75
g4915
sg68
(lp4922
S'altas/empleadores.html'
p4923
asbasbasbasbasbsS'locals'
p4924
(dp4925
S'self'
p4926
S'<gluon.dal.SQLiteAdapter object>'
p4927
sssS'traceback'
p4928
S'Traceback (most recent call last):\n  File "/home/marco/projects/contabilidad/web2py/gluon/restricted.py", line 212, in restricted\n    exec ccode in environment\n  File "/home/marco/projects/contabilidad/web2py/applications/sueldos/controllers/altas.py", line 29, in <module>\n  File "/home/marco/projects/contabilidad/web2py/gluon/globals.py", line 193, in <lambda>\n    self._caller = lambda f: f()\n  File "/home/marco/projects/contabilidad/web2py/applications/sueldos/controllers/altas.py", line 4, in empleadores\n    form = SQLFORM(db.empleadores)\n  File "/home/marco/projects/contabilidad/web2py/gluon/sqlhtml.py", line 1067, in __init__\n    inp = self.widgets.options.widget(field, default)\n  File "/home/marco/projects/contabilidad/web2py/gluon/sqlhtml.py", line 233, in widget\n    options = requires[0].options()\n  File "/home/marco/projects/contabilidad/web2py/gluon/validators.py", line 489, in options\n    self.build_set()\n  File "/home/marco/projects/contabilidad/web2py/gluon/validators.py", line 475, in build_set\n    records = self.dbset(table).select(*fields, **dd)\n  File "/home/marco/projects/contabilidad/web2py/gluon/dal.py", line 8880, in select\n    return adapter.select(self.query,fields,attributes)\n  File "/home/marco/projects/contabilidad/web2py/gluon/dal.py", line 2146, in select\n    return super(SQLiteAdapter, self).select(query, fields, attributes)\n  File "/home/marco/projects/contabilidad/web2py/gluon/dal.py", line 1631, in select\n    return self._select_aux(sql,fields,attributes)\n  File "/home/marco/projects/contabilidad/web2py/gluon/dal.py", line 1597, in _select_aux\n    rows = self._fetchall()\n  File "/home/marco/projects/contabilidad/web2py/gluon/dal.py", line 1590, in _fetchall\n    return self.cursor.fetchall()\nOperationalError: Could not decode to UTF-8 column \'codigo\' with text \'Actividades  de servicios relacionadas con la extracci\xf3n de petr\xf3leo y gas, excepto las actividades de prospecci\xf3n\'\n'
p4929
s.