(dp1
S'output'
p2
S"<type 'exceptions.SyntaxError'> invalid syntax (db_empleadores.py, line 4)"
p3
sS'layer'
p4
S'/home/marco/projects/contabilidad/web2py/applications/sueldos/models/db_empleadores.py'
p5
sS'code'
p6
S"#-*- coding: utf-8 -*-\n\ndb.define_table('empleadores'\n    Field('nombre', 'string', label='Nombre o raz\xc3\xb3n social')\n    )\n"
p7
sS'snapshot'
p8
(dp9
S'exception'
p10
(dp11
S'__getslice__'
p12
S"<method-wrapper '__getslice__' of exceptions.SyntaxError object>"
p13
sS'text'
p14
S'"    Field(\'nombre\', \'string\', label=\'Nombre o raz\\xc3\\xb3n social\')\\n"'
p15
sS'__str__'
p16
S"<method-wrapper '__str__' of exceptions.SyntaxError object>"
p17
sS'__reduce__'
p18
S'<built-in method __reduce__ of exceptions.SyntaxError object>'
p19
sS'__dict__'
p20
S'{}'
p21
sS'__sizeof__'
p22
S'<built-in method __sizeof__ of exceptions.SyntaxError object>'
p23
sS'__init__'
p24
S"<method-wrapper '__init__' of exceptions.SyntaxError object>"
p25
sS'__setattr__'
p26
S"<method-wrapper '__setattr__' of exceptions.SyntaxError object>"
p27
sS'__reduce_ex__'
p28
S'<built-in method __reduce_ex__ of exceptions.SyntaxError object>'
p29
sS'__new__'
p30
S'<built-in method __new__ of type object>'
p31
sS'__format__'
p32
S'<built-in method __format__ of exceptions.SyntaxError object>'
p33
sS'__class__'
p34
S"<type 'exceptions.SyntaxError'>"
p35
sS'filename'
p36
S"'/home/marco/projects/contabilidad/web2py/applications/sueldos/models/db_empleadores.py'"
p37
sS'lineno'
p38
S'4'
sS'msg'
p39
S"'invalid syntax'"
p40
sS'__doc__'
p41
S"'Invalid syntax.'"
p42
sS'__getitem__'
p43
S"<method-wrapper '__getitem__' of exceptions.SyntaxError object>"
p44
sS'__setstate__'
p45
S'<built-in method __setstate__ of exceptions.SyntaxError object>'
p46
sS'__getattribute__'
p47
S"<method-wrapper '__getattribute__' of exceptions.SyntaxError object>"
p48
sS'print_file_and_line'
p49
S'None'
p50
sS'args'
p51
S'(\'invalid syntax\', (\'/home/marco/projects/contabilidad/web2py/applications/sueldos/models/db_empleadores.py\', 4, 9, "    Field(\'nombre\', \'string\', label=\'Nombre o raz\\xc3\\xb3n social\')\\n"))'
p52
sS'__subclasshook__'
p53
S'<built-in method __subclasshook__ of type object>'
p54
sS'offset'
p55
S'9'
sS'__unicode__'
p56
S'<built-in method __unicode__ of exceptions.SyntaxError object>'
p57
sS'__delattr__'
p58
S"<method-wrapper '__delattr__' of exceptions.SyntaxError object>"
p59
sS'__repr__'
p60
S"<method-wrapper '__repr__' of exceptions.SyntaxError object>"
p61
sS'__hash__'
p62
S"<method-wrapper '__hash__' of exceptions.SyntaxError object>"
p63
ssS'evalue'
p64
S'invalid syntax (db_empleadores.py, line 4)'
p65
sS'request'
p66
ccopy_reg
_reconstructor
p67
(cgluon.html
BEAUTIFY
p68
c__builtin__
object
p69
NtRp70
(dp71
S'attributes'
p72
(dp73
sS'components'
p74
(lp75
g67
(cgluon.html
TABLE
p76
g69
NtRp77
(dp78
g72
(dp79
S'level'
p80
I5
ssS'parent'
p81
Nsg74
(lp82
g67
(cgluon.html
TR
p83
g69
NtRp84
(dp85
g72
(dp86
sg81
g77
sg74
(lp87
g67
(cgluon.html
TD
p88
g69
NtRp89
(dp90
g72
(dp91
S'_style'
p92
S'font-weight:bold;vertical-align:top'
p93
ssg81
g84
sg74
(lp94
S'ajax'
p95
asbag67
(g88
g69
NtRp96
(dp97
g72
(dp98
S'_valign'
p99
S'top'
p100
ssg81
g84
sg74
(lp101
S':'
asbag67
(g88
g69
NtRp102
(dp103
g72
(dp104
sg81
g84
sg74
(lp105
g67
(g68
g69
NtRp106
(dp107
g72
(dp108
g80
I5
ssg81
g102
sg74
(lp109
S'False'
p110
asbasbasbag67
(g83
g69
NtRp111
(dp112
g72
(dp113
sg81
g77
sg74
(lp114
g67
(g88
g69
NtRp115
(dp116
g72
(dp117
g92
g93
ssg81
g111
sg74
(lp118
S'application'
p119
asbag67
(g88
g69
NtRp120
(dp121
g72
(dp122
g99
g100
ssg81
g111
sg74
(lp123
S':'
asbag67
(g88
g69
NtRp124
(dp125
g72
(dp126
sg81
g111
sg74
(lp127
g67
(g68
g69
NtRp128
(dp129
g72
(dp130
g80
I5
ssg81
g124
sg74
(lp131
S'sueldos'
p132
asbasbasbag67
(g83
g69
NtRp133
(dp134
g72
(dp135
sg81
g77
sg74
(lp136
g67
(g88
g69
NtRp137
(dp138
g72
(dp139
g92
g93
ssg81
g133
sg74
(lp140
g51
asbag67
(g88
g69
NtRp141
(dp142
g72
(dp143
g99
g100
ssg81
g133
sg74
(lp144
S':'
asbag67
(g88
g69
NtRp145
(dp146
g72
(dp147
sg81
g133
sg74
(lp148
g67
(g68
g69
NtRp149
(dp150
g72
(dp151
g80
I5
ssg81
g145
sg74
(lp152
g67
(g76
g69
NtRp153
(dp154
g72
(dp155
g80
I4
ssg81
Nsg74
(lp156
sbasbasbasbag67
(g83
g69
NtRp157
(dp158
g72
(dp159
sg81
g77
sg74
(lp160
g67
(g88
g69
NtRp161
(dp162
g72
(dp163
g92
g93
ssg81
g157
sg74
(lp164
S'body'
p165
asbag67
(g88
g69
NtRp166
(dp167
g72
(dp168
g99
g100
ssg81
g157
sg74
(lp169
S':'
asbag67
(g88
g69
NtRp170
(dp171
g72
(dp172
sg81
g157
sg74
(lp173
g67
(g68
g69
NtRp174
(dp175
g72
(dp176
g80
I5
ssg81
g170
sg74
(lp177
S'<cStringIO.StringO object at 0x2d8a998>'
p178
asbasbasbag67
(g83
g69
NtRp179
(dp180
g72
(dp181
sg81
g77
sg74
(lp182
g67
(g88
g69
NtRp183
(dp184
g72
(dp185
g92
g93
ssg81
g179
sg74
(lp186
S'cid'
p187
asbag67
(g88
g69
NtRp188
(dp189
g72
(dp190
g99
g100
ssg81
g179
sg74
(lp191
S':'
asbag67
(g88
g69
NtRp192
(dp193
g72
(dp194
sg81
g179
sg74
(lp195
g67
(g68
g69
NtRp196
(dp197
g72
(dp198
g80
I5
ssg81
g192
sg74
(lp199
S'None'
p200
asbasbasbag67
(g83
g69
NtRp201
(dp202
g72
(dp203
sg81
g77
sg74
(lp204
g67
(g88
g69
NtRp205
(dp206
g72
(dp207
g92
g93
ssg81
g201
sg74
(lp208
S'client'
p209
asbag67
(g88
g69
NtRp210
(dp211
g72
(dp212
g99
g100
ssg81
g201
sg74
(lp213
S':'
asbag67
(g88
g69
NtRp214
(dp215
g72
(dp216
sg81
g201
sg74
(lp217
g67
(g68
g69
NtRp218
(dp219
g72
(dp220
g80
I5
ssg81
g214
sg74
(lp221
S'127.0.0.1'
p222
asbasbasbag67
(g83
g69
NtRp223
(dp224
g72
(dp225
sg81
g77
sg74
(lp226
g67
(g88
g69
NtRp227
(dp228
g72
(dp229
g92
g93
ssg81
g223
sg74
(lp230
S'controller'
p231
asbag67
(g88
g69
NtRp232
(dp233
g72
(dp234
g99
g100
ssg81
g223
sg74
(lp235
S':'
asbag67
(g88
g69
NtRp236
(dp237
g72
(dp238
sg81
g223
sg74
(lp239
g67
(g68
g69
NtRp240
(dp241
g72
(dp242
g80
I5
ssg81
g236
sg74
(lp243
S'default'
p244
asbasbasbag67
(g83
g69
NtRp245
(dp246
g72
(dp247
sg81
g77
sg74
(lp248
g67
(g88
g69
NtRp249
(dp250
g72
(dp251
g92
g93
ssg81
g245
sg74
(lp252
S'cookies'
p253
asbag67
(g88
g69
NtRp254
(dp255
g72
(dp256
g99
g100
ssg81
g245
sg74
(lp257
S':'
asbag67
(g88
g69
NtRp258
(dp259
g72
(dp260
sg81
g245
sg74
(lp261
g67
(g68
g69
NtRp262
(dp263
g72
(dp264
g80
I5
ssg81
g258
sg74
(lp265
g67
(g76
g69
NtRp266
(dp267
g72
(dp268
g80
I4
ssg81
Nsg74
(lp269
g67
(g83
g69
NtRp270
(dp271
g72
(dp272
sg81
g266
sg74
(lp273
g67
(g88
g69
NtRp274
(dp275
g72
(dp276
g92
g93
ssg81
g270
sg74
(lp277
S'session_id_admin'
p278
asbag67
(g88
g69
NtRp279
(dp280
g72
(dp281
g99
g100
ssg81
g270
sg74
(lp282
S':'
asbag67
(g88
g69
NtRp283
(dp284
g72
(dp285
sg81
g270
sg74
(lp286
g67
(g68
g69
NtRp287
(dp288
g72
(dp289
g80
I4
ssg81
g283
sg74
(lp290
S'127.0.0.1-abf6dccc-b695-4022-be65-76594172711c'
p291
ag67
(g76
g69
NtRp292
(dp293
g72
(dp294
g80
I3
ssg81
Nsg74
(lp295
g67
(g83
g69
NtRp296
(dp297
g72
(dp298
sg81
g292
sg74
(lp299
g67
(g88
g69
NtRp300
(dp301
g72
(dp302
g92
g93
ssg81
g296
sg74
(lp303
S'comment'
p304
asbag67
(g88
g69
NtRp305
(dp306
g72
(dp307
g99
g100
ssg81
g296
sg74
(lp308
S':'
asbag67
(g88
g69
NtRp309
(dp310
g72
(dp311
sg81
g296
sg74
(lp312
g67
(g68
g69
NtRp313
(dp314
g72
(dp315
g80
I3
ssg81
g309
sg74
(lp316
S''
asbasbasbag67
(g83
g69
NtRp317
(dp318
g72
(dp319
sg81
g292
sg74
(lp320
g67
(g88
g69
NtRp321
(dp322
g72
(dp323
g92
g93
ssg81
g317
sg74
(lp324
S'domain'
p325
asbag67
(g88
g69
NtRp326
(dp327
g72
(dp328
g99
g100
ssg81
g317
sg74
(lp329
S':'
asbag67
(g88
g69
NtRp330
(dp331
g72
(dp332
sg81
g317
sg74
(lp333
g67
(g68
g69
NtRp334
(dp335
g72
(dp336
g80
I3
ssg81
g330
sg74
(lp337
S''
asbasbasbag67
(g83
g69
NtRp338
(dp339
g72
(dp340
sg81
g292
sg74
(lp341
g67
(g88
g69
NtRp342
(dp343
g72
(dp344
g92
g93
ssg81
g338
sg74
(lp345
S'expires'
p346
asbag67
(g88
g69
NtRp347
(dp348
g72
(dp349
g99
g100
ssg81
g338
sg74
(lp350
S':'
asbag67
(g88
g69
NtRp351
(dp352
g72
(dp353
sg81
g338
sg74
(lp354
g67
(g68
g69
NtRp355
(dp356
g72
(dp357
g80
I3
ssg81
g351
sg74
(lp358
S''
asbasbasbag67
(g83
g69
NtRp359
(dp360
g72
(dp361
sg81
g292
sg74
(lp362
g67
(g88
g69
NtRp363
(dp364
g72
(dp365
g92
g93
ssg81
g359
sg74
(lp366
S'httponly'
p367
asbag67
(g88
g69
NtRp368
(dp369
g72
(dp370
g99
g100
ssg81
g359
sg74
(lp371
S':'
asbag67
(g88
g69
NtRp372
(dp373
g72
(dp374
sg81
g359
sg74
(lp375
g67
(g68
g69
NtRp376
(dp377
g72
(dp378
g80
I3
ssg81
g372
sg74
(lp379
S''
asbasbasbag67
(g83
g69
NtRp380
(dp381
g72
(dp382
sg81
g292
sg74
(lp383
g67
(g88
g69
NtRp384
(dp385
g72
(dp386
g92
g93
ssg81
g380
sg74
(lp387
S'max-age'
p388
asbag67
(g88
g69
NtRp389
(dp390
g72
(dp391
g99
g100
ssg81
g380
sg74
(lp392
S':'
asbag67
(g88
g69
NtRp393
(dp394
g72
(dp395
sg81
g380
sg74
(lp396
g67
(g68
g69
NtRp397
(dp398
g72
(dp399
g80
I3
ssg81
g393
sg74
(lp400
S''
asbasbasbag67
(g83
g69
NtRp401
(dp402
g72
(dp403
sg81
g292
sg74
(lp404
g67
(g88
g69
NtRp405
(dp406
g72
(dp407
g92
g93
ssg81
g401
sg74
(lp408
S'path'
p409
asbag67
(g88
g69
NtRp410
(dp411
g72
(dp412
g99
g100
ssg81
g401
sg74
(lp413
S':'
asbag67
(g88
g69
NtRp414
(dp415
g72
(dp416
sg81
g401
sg74
(lp417
g67
(g68
g69
NtRp418
(dp419
g72
(dp420
g80
I3
ssg81
g414
sg74
(lp421
S''
asbasbasbag67
(g83
g69
NtRp422
(dp423
g72
(dp424
sg81
g292
sg74
(lp425
g67
(g88
g69
NtRp426
(dp427
g72
(dp428
g92
g93
ssg81
g422
sg74
(lp429
S'secure'
p430
asbag67
(g88
g69
NtRp431
(dp432
g72
(dp433
g99
g100
ssg81
g422
sg74
(lp434
S':'
asbag67
(g88
g69
NtRp435
(dp436
g72
(dp437
sg81
g422
sg74
(lp438
g67
(g68
g69
NtRp439
(dp440
g72
(dp441
g80
I3
ssg81
g435
sg74
(lp442
S''
asbasbasbag67
(g83
g69
NtRp443
(dp444
g72
(dp445
sg81
g292
sg74
(lp446
g67
(g88
g69
NtRp447
(dp448
g72
(dp449
g92
g93
ssg81
g443
sg74
(lp450
S'version'
p451
asbag67
(g88
g69
NtRp452
(dp453
g72
(dp454
g99
g100
ssg81
g443
sg74
(lp455
S':'
asbag67
(g88
g69
NtRp456
(dp457
g72
(dp458
sg81
g443
sg74
(lp459
g67
(g68
g69
NtRp460
(dp461
g72
(dp462
g80
I3
ssg81
g456
sg74
(lp463
S''
asbasbasbasbasbasbasbag67
(g83
g69
NtRp464
(dp465
g72
(dp466
sg81
g266
sg74
(lp467
g67
(g88
g69
NtRp468
(dp469
g72
(dp470
g92
g93
ssg81
g464
sg74
(lp471
S'session_id_sueldos'
p472
asbag67
(g88
g69
NtRp473
(dp474
g72
(dp475
g99
g100
ssg81
g464
sg74
(lp476
S':'
asbag67
(g88
g69
NtRp477
(dp478
g72
(dp479
sg81
g464
sg74
(lp480
g67
(g68
g69
NtRp481
(dp482
g72
(dp483
g80
I4
ssg81
g477
sg74
(lp484
S'127.0.0.1-a5687236-8904-4441-8b84-1ccb37d1cbb4'
p485
ag67
(g76
g69
NtRp486
(dp487
g72
(dp488
g80
I3
ssg81
Nsg74
(lp489
g67
(g83
g69
NtRp490
(dp491
g72
(dp492
sg81
g486
sg74
(lp493
g67
(g88
g69
NtRp494
(dp495
g72
(dp496
g92
g93
ssg81
g490
sg74
(lp497
g304
asbag67
(g88
g69
NtRp498
(dp499
g72
(dp500
g99
g100
ssg81
g490
sg74
(lp501
S':'
asbag67
(g88
g69
NtRp502
(dp503
g72
(dp504
sg81
g490
sg74
(lp505
g67
(g68
g69
NtRp506
(dp507
g72
(dp508
g80
I3
ssg81
g502
sg74
(lp509
S''
asbasbasbag67
(g83
g69
NtRp510
(dp511
g72
(dp512
sg81
g486
sg74
(lp513
g67
(g88
g69
NtRp514
(dp515
g72
(dp516
g92
g93
ssg81
g510
sg74
(lp517
g325
asbag67
(g88
g69
NtRp518
(dp519
g72
(dp520
g99
g100
ssg81
g510
sg74
(lp521
S':'
asbag67
(g88
g69
NtRp522
(dp523
g72
(dp524
sg81
g510
sg74
(lp525
g67
(g68
g69
NtRp526
(dp527
g72
(dp528
g80
I3
ssg81
g522
sg74
(lp529
S''
asbasbasbag67
(g83
g69
NtRp530
(dp531
g72
(dp532
sg81
g486
sg74
(lp533
g67
(g88
g69
NtRp534
(dp535
g72
(dp536
g92
g93
ssg81
g530
sg74
(lp537
g346
asbag67
(g88
g69
NtRp538
(dp539
g72
(dp540
g99
g100
ssg81
g530
sg74
(lp541
S':'
asbag67
(g88
g69
NtRp542
(dp543
g72
(dp544
sg81
g530
sg74
(lp545
g67
(g68
g69
NtRp546
(dp547
g72
(dp548
g80
I3
ssg81
g542
sg74
(lp549
S''
asbasbasbag67
(g83
g69
NtRp550
(dp551
g72
(dp552
sg81
g486
sg74
(lp553
g67
(g88
g69
NtRp554
(dp555
g72
(dp556
g92
g93
ssg81
g550
sg74
(lp557
g367
asbag67
(g88
g69
NtRp558
(dp559
g72
(dp560
g99
g100
ssg81
g550
sg74
(lp561
S':'
asbag67
(g88
g69
NtRp562
(dp563
g72
(dp564
sg81
g550
sg74
(lp565
g67
(g68
g69
NtRp566
(dp567
g72
(dp568
g80
I3
ssg81
g562
sg74
(lp569
S''
asbasbasbag67
(g83
g69
NtRp570
(dp571
g72
(dp572
sg81
g486
sg74
(lp573
g67
(g88
g69
NtRp574
(dp575
g72
(dp576
g92
g93
ssg81
g570
sg74
(lp577
g388
asbag67
(g88
g69
NtRp578
(dp579
g72
(dp580
g99
g100
ssg81
g570
sg74
(lp581
S':'
asbag67
(g88
g69
NtRp582
(dp583
g72
(dp584
sg81
g570
sg74
(lp585
g67
(g68
g69
NtRp586
(dp587
g72
(dp588
g80
I3
ssg81
g582
sg74
(lp589
S''
asbasbasbag67
(g83
g69
NtRp590
(dp591
g72
(dp592
sg81
g486
sg74
(lp593
g67
(g88
g69
NtRp594
(dp595
g72
(dp596
g92
g93
ssg81
g590
sg74
(lp597
g409
asbag67
(g88
g69
NtRp598
(dp599
g72
(dp600
g99
g100
ssg81
g590
sg74
(lp601
S':'
asbag67
(g88
g69
NtRp602
(dp603
g72
(dp604
sg81
g590
sg74
(lp605
g67
(g68
g69
NtRp606
(dp607
g72
(dp608
g80
I3
ssg81
g602
sg74
(lp609
S''
asbasbasbag67
(g83
g69
NtRp610
(dp611
g72
(dp612
sg81
g486
sg74
(lp613
g67
(g88
g69
NtRp614
(dp615
g72
(dp616
g92
g93
ssg81
g610
sg74
(lp617
g430
asbag67
(g88
g69
NtRp618
(dp619
g72
(dp620
g99
g100
ssg81
g610
sg74
(lp621
S':'
asbag67
(g88
g69
NtRp622
(dp623
g72
(dp624
sg81
g610
sg74
(lp625
g67
(g68
g69
NtRp626
(dp627
g72
(dp628
g80
I3
ssg81
g622
sg74
(lp629
S''
asbasbasbag67
(g83
g69
NtRp630
(dp631
g72
(dp632
sg81
g486
sg74
(lp633
g67
(g88
g69
NtRp634
(dp635
g72
(dp636
g92
g93
ssg81
g630
sg74
(lp637
g451
asbag67
(g88
g69
NtRp638
(dp639
g72
(dp640
g99
g100
ssg81
g630
sg74
(lp641
S':'
asbag67
(g88
g69
NtRp642
(dp643
g72
(dp644
sg81
g630
sg74
(lp645
g67
(g68
g69
NtRp646
(dp647
g72
(dp648
g80
I3
ssg81
g642
sg74
(lp649
S''
asbasbasbasbasbasbasbag67
(g83
g69
NtRp650
(dp651
g72
(dp652
sg81
g266
sg74
(lp653
g67
(g88
g69
NtRp654
(dp655
g72
(dp656
g92
g93
ssg81
g650
sg74
(lp657
S'session_id_welcome'
p658
asbag67
(g88
g69
NtRp659
(dp660
g72
(dp661
g99
g100
ssg81
g650
sg74
(lp662
S':'
asbag67
(g88
g69
NtRp663
(dp664
g72
(dp665
sg81
g650
sg74
(lp666
g67
(g68
g69
NtRp667
(dp668
g72
(dp669
g80
I4
ssg81
g663
sg74
(lp670
S'127.0.0.1-7c78abb8-f43d-4930-b10f-d5de3e41139c'
p671
ag67
(g76
g69
NtRp672
(dp673
g72
(dp674
g80
I3
ssg81
Nsg74
(lp675
g67
(g83
g69
NtRp676
(dp677
g72
(dp678
sg81
g672
sg74
(lp679
g67
(g88
g69
NtRp680
(dp681
g72
(dp682
g92
g93
ssg81
g676
sg74
(lp683
g304
asbag67
(g88
g69
NtRp684
(dp685
g72
(dp686
g99
g100
ssg81
g676
sg74
(lp687
S':'
asbag67
(g88
g69
NtRp688
(dp689
g72
(dp690
sg81
g676
sg74
(lp691
g67
(g68
g69
NtRp692
(dp693
g72
(dp694
g80
I3
ssg81
g688
sg74
(lp695
S''
asbasbasbag67
(g83
g69
NtRp696
(dp697
g72
(dp698
sg81
g672
sg74
(lp699
g67
(g88
g69
NtRp700
(dp701
g72
(dp702
g92
g93
ssg81
g696
sg74
(lp703
g325
asbag67
(g88
g69
NtRp704
(dp705
g72
(dp706
g99
g100
ssg81
g696
sg74
(lp707
S':'
asbag67
(g88
g69
NtRp708
(dp709
g72
(dp710
sg81
g696
sg74
(lp711
g67
(g68
g69
NtRp712
(dp713
g72
(dp714
g80
I3
ssg81
g708
sg74
(lp715
S''
asbasbasbag67
(g83
g69
NtRp716
(dp717
g72
(dp718
sg81
g672
sg74
(lp719
g67
(g88
g69
NtRp720
(dp721
g72
(dp722
g92
g93
ssg81
g716
sg74
(lp723
g346
asbag67
(g88
g69
NtRp724
(dp725
g72
(dp726
g99
g100
ssg81
g716
sg74
(lp727
S':'
asbag67
(g88
g69
NtRp728
(dp729
g72
(dp730
sg81
g716
sg74
(lp731
g67
(g68
g69
NtRp732
(dp733
g72
(dp734
g80
I3
ssg81
g728
sg74
(lp735
S''
asbasbasbag67
(g83
g69
NtRp736
(dp737
g72
(dp738
sg81
g672
sg74
(lp739
g67
(g88
g69
NtRp740
(dp741
g72
(dp742
g92
g93
ssg81
g736
sg74
(lp743
g367
asbag67
(g88
g69
NtRp744
(dp745
g72
(dp746
g99
g100
ssg81
g736
sg74
(lp747
S':'
asbag67
(g88
g69
NtRp748
(dp749
g72
(dp750
sg81
g736
sg74
(lp751
g67
(g68
g69
NtRp752
(dp753
g72
(dp754
g80
I3
ssg81
g748
sg74
(lp755
S''
asbasbasbag67
(g83
g69
NtRp756
(dp757
g72
(dp758
sg81
g672
sg74
(lp759
g67
(g88
g69
NtRp760
(dp761
g72
(dp762
g92
g93
ssg81
g756
sg74
(lp763
g388
asbag67
(g88
g69
NtRp764
(dp765
g72
(dp766
g99
g100
ssg81
g756
sg74
(lp767
S':'
asbag67
(g88
g69
NtRp768
(dp769
g72
(dp770
sg81
g756
sg74
(lp771
g67
(g68
g69
NtRp772
(dp773
g72
(dp774
g80
I3
ssg81
g768
sg74
(lp775
S''
asbasbasbag67
(g83
g69
NtRp776
(dp777
g72
(dp778
sg81
g672
sg74
(lp779
g67
(g88
g69
NtRp780
(dp781
g72
(dp782
g92
g93
ssg81
g776
sg74
(lp783
g409
asbag67
(g88
g69
NtRp784
(dp785
g72
(dp786
g99
g100
ssg81
g776
sg74
(lp787
S':'
asbag67
(g88
g69
NtRp788
(dp789
g72
(dp790
sg81
g776
sg74
(lp791
g67
(g68
g69
NtRp792
(dp793
g72
(dp794
g80
I3
ssg81
g788
sg74
(lp795
S''
asbasbasbag67
(g83
g69
NtRp796
(dp797
g72
(dp798
sg81
g672
sg74
(lp799
g67
(g88
g69
NtRp800
(dp801
g72
(dp802
g92
g93
ssg81
g796
sg74
(lp803
g430
asbag67
(g88
g69
NtRp804
(dp805
g72
(dp806
g99
g100
ssg81
g796
sg74
(lp807
S':'
asbag67
(g88
g69
NtRp808
(dp809
g72
(dp810
sg81
g796
sg74
(lp811
g67
(g68
g69
NtRp812
(dp813
g72
(dp814
g80
I3
ssg81
g808
sg74
(lp815
S''
asbasbasbag67
(g83
g69
NtRp816
(dp817
g72
(dp818
sg81
g672
sg74
(lp819
g67
(g88
g69
NtRp820
(dp821
g72
(dp822
g92
g93
ssg81
g816
sg74
(lp823
g451
asbag67
(g88
g69
NtRp824
(dp825
g72
(dp826
g99
g100
ssg81
g816
sg74
(lp827
S':'
asbag67
(g88
g69
NtRp828
(dp829
g72
(dp830
sg81
g816
sg74
(lp831
g67
(g68
g69
NtRp832
(dp833
g72
(dp834
g80
I3
ssg81
g828
sg74
(lp835
S''
asbasbasbasbasbasbasbag67
(g83
g69
NtRp836
(dp837
g72
(dp838
sg81
g266
sg74
(lp839
g67
(g88
g69
NtRp840
(dp841
g72
(dp842
g92
g93
ssg81
g836
sg74
(lp843
S'session_id_xignus'
p844
asbag67
(g88
g69
NtRp845
(dp846
g72
(dp847
g99
g100
ssg81
g836
sg74
(lp848
S':'
asbag67
(g88
g69
NtRp849
(dp850
g72
(dp851
sg81
g836
sg74
(lp852
g67
(g68
g69
NtRp853
(dp854
g72
(dp855
g80
I4
ssg81
g849
sg74
(lp856
S'127.0.0.1-88886a41-5f5d-4a70-807d-3ca590da3da9'
p857
ag67
(g76
g69
NtRp858
(dp859
g72
(dp860
g80
I3
ssg81
Nsg74
(lp861
g67
(g83
g69
NtRp862
(dp863
g72
(dp864
sg81
g858
sg74
(lp865
g67
(g88
g69
NtRp866
(dp867
g72
(dp868
g92
g93
ssg81
g862
sg74
(lp869
g304
asbag67
(g88
g69
NtRp870
(dp871
g72
(dp872
g99
g100
ssg81
g862
sg74
(lp873
S':'
asbag67
(g88
g69
NtRp874
(dp875
g72
(dp876
sg81
g862
sg74
(lp877
g67
(g68
g69
NtRp878
(dp879
g72
(dp880
g80
I3
ssg81
g874
sg74
(lp881
S''
asbasbasbag67
(g83
g69
NtRp882
(dp883
g72
(dp884
sg81
g858
sg74
(lp885
g67
(g88
g69
NtRp886
(dp887
g72
(dp888
g92
g93
ssg81
g882
sg74
(lp889
g325
asbag67
(g88
g69
NtRp890
(dp891
g72
(dp892
g99
g100
ssg81
g882
sg74
(lp893
S':'
asbag67
(g88
g69
NtRp894
(dp895
g72
(dp896
sg81
g882
sg74
(lp897
g67
(g68
g69
NtRp898
(dp899
g72
(dp900
g80
I3
ssg81
g894
sg74
(lp901
S''
asbasbasbag67
(g83
g69
NtRp902
(dp903
g72
(dp904
sg81
g858
sg74
(lp905
g67
(g88
g69
NtRp906
(dp907
g72
(dp908
g92
g93
ssg81
g902
sg74
(lp909
g346
asbag67
(g88
g69
NtRp910
(dp911
g72
(dp912
g99
g100
ssg81
g902
sg74
(lp913
S':'
asbag67
(g88
g69
NtRp914
(dp915
g72
(dp916
sg81
g902
sg74
(lp917
g67
(g68
g69
NtRp918
(dp919
g72
(dp920
g80
I3
ssg81
g914
sg74
(lp921
S''
asbasbasbag67
(g83
g69
NtRp922
(dp923
g72
(dp924
sg81
g858
sg74
(lp925
g67
(g88
g69
NtRp926
(dp927
g72
(dp928
g92
g93
ssg81
g922
sg74
(lp929
g367
asbag67
(g88
g69
NtRp930
(dp931
g72
(dp932
g99
g100
ssg81
g922
sg74
(lp933
S':'
asbag67
(g88
g69
NtRp934
(dp935
g72
(dp936
sg81
g922
sg74
(lp937
g67
(g68
g69
NtRp938
(dp939
g72
(dp940
g80
I3
ssg81
g934
sg74
(lp941
S''
asbasbasbag67
(g83
g69
NtRp942
(dp943
g72
(dp944
sg81
g858
sg74
(lp945
g67
(g88
g69
NtRp946
(dp947
g72
(dp948
g92
g93
ssg81
g942
sg74
(lp949
g388
asbag67
(g88
g69
NtRp950
(dp951
g72
(dp952
g99
g100
ssg81
g942
sg74
(lp953
S':'
asbag67
(g88
g69
NtRp954
(dp955
g72
(dp956
sg81
g942
sg74
(lp957
g67
(g68
g69
NtRp958
(dp959
g72
(dp960
g80
I3
ssg81
g954
sg74
(lp961
S''
asbasbasbag67
(g83
g69
NtRp962
(dp963
g72
(dp964
sg81
g858
sg74
(lp965
g67
(g88
g69
NtRp966
(dp967
g72
(dp968
g92
g93
ssg81
g962
sg74
(lp969
g409
asbag67
(g88
g69
NtRp970
(dp971
g72
(dp972
g99
g100
ssg81
g962
sg74
(lp973
S':'
asbag67
(g88
g69
NtRp974
(dp975
g72
(dp976
sg81
g962
sg74
(lp977
g67
(g68
g69
NtRp978
(dp979
g72
(dp980
g80
I3
ssg81
g974
sg74
(lp981
S''
asbasbasbag67
(g83
g69
NtRp982
(dp983
g72
(dp984
sg81
g858
sg74
(lp985
g67
(g88
g69
NtRp986
(dp987
g72
(dp988
g92
g93
ssg81
g982
sg74
(lp989
g430
asbag67
(g88
g69
NtRp990
(dp991
g72
(dp992
g99
g100
ssg81
g982
sg74
(lp993
S':'
asbag67
(g88
g69
NtRp994
(dp995
g72
(dp996
sg81
g982
sg74
(lp997
g67
(g68
g69
NtRp998
(dp999
g72
(dp1000
g80
I3
ssg81
g994
sg74
(lp1001
S''
asbasbasbag67
(g83
g69
NtRp1002
(dp1003
g72
(dp1004
sg81
g858
sg74
(lp1005
g67
(g88
g69
NtRp1006
(dp1007
g72
(dp1008
g92
g93
ssg81
g1002
sg74
(lp1009
g451
asbag67
(g88
g69
NtRp1010
(dp1011
g72
(dp1012
g99
g100
ssg81
g1002
sg74
(lp1013
S':'
asbag67
(g88
g69
NtRp1014
(dp1015
g72
(dp1016
sg81
g1002
sg74
(lp1017
g67
(g68
g69
NtRp1018
(dp1019
g72
(dp1020
g80
I3
ssg81
g1014
sg74
(lp1021
S''
asbasbasbasbasbasbasbasbasbasbasbag67
(g83
g69
NtRp1022
(dp1023
g72
(dp1024
sg81
g77
sg74
(lp1025
g67
(g88
g69
NtRp1026
(dp1027
g72
(dp1028
g92
g93
ssg81
g1022
sg74
(lp1029
S'env'
p1030
asbag67
(g88
g69
NtRp1031
(dp1032
g72
(dp1033
g99
g100
ssg81
g1022
sg74
(lp1034
S':'
asbag67
(g88
g69
NtRp1035
(dp1036
g72
(dp1037
sg81
g1022
sg74
(lp1038
g67
(g68
g69
NtRp1039
(dp1040
g72
(dp1041
g80
I5
ssg81
g1035
sg74
(lp1042
g67
(g76
g69
NtRp1043
(dp1044
g72
(dp1045
g80
I4
ssg81
Nsg74
(lp1046
g67
(g83
g69
NtRp1047
(dp1048
g72
(dp1049
sg81
g1043
sg74
(lp1050
g67
(g88
g69
NtRp1051
(dp1052
g72
(dp1053
g92
g93
ssg81
g1047
sg74
(lp1054
S'app_folders'
p1055
asbag67
(g88
g69
NtRp1056
(dp1057
g72
(dp1058
g99
g100
ssg81
g1047
sg74
(lp1059
S':'
asbag67
(g88
g69
NtRp1060
(dp1061
g72
(dp1062
sg81
g1047
sg74
(lp1063
g67
(g68
g69
NtRp1064
(dp1065
g72
(dp1066
g80
I4
ssg81
g1060
sg74
(lp1067
S"set(['/home/marco/projects/contabilidad/web2py/applications/admin/', '/home/marco/projects/contabilidad/web2py/applications/sueldos/'])"
p1068
asbasbasbag67
(g83
g69
NtRp1069
(dp1070
g72
(dp1071
sg81
g1043
sg74
(lp1072
g67
(g88
g69
NtRp1073
(dp1074
g72
(dp1075
g92
g93
ssg81
g1069
sg74
(lp1076
S'applications_parent'
p1077
asbag67
(g88
g69
NtRp1078
(dp1079
g72
(dp1080
g99
g100
ssg81
g1069
sg74
(lp1081
S':'
asbag67
(g88
g69
NtRp1082
(dp1083
g72
(dp1084
sg81
g1069
sg74
(lp1085
g67
(g68
g69
NtRp1086
(dp1087
g72
(dp1088
g80
I4
ssg81
g1082
sg74
(lp1089
S'/home/marco/projects/contabilidad/web2py'
p1090
asbasbasbag67
(g83
g69
NtRp1091
(dp1092
g72
(dp1093
sg81
g1043
sg74
(lp1094
g67
(g88
g69
NtRp1095
(dp1096
g72
(dp1097
g92
g93
ssg81
g1091
sg74
(lp1098
S'cmd_args'
p1099
asbag67
(g88
g69
NtRp1100
(dp1101
g72
(dp1102
g99
g100
ssg81
g1091
sg74
(lp1103
S':'
asbag67
(g88
g69
NtRp1104
(dp1105
g72
(dp1106
sg81
g1091
sg74
(lp1107
g67
(g68
g69
NtRp1108
(dp1109
g72
(dp1110
g80
I4
ssg81
g1104
sg74
(lp1111
g67
(g76
g69
NtRp1112
(dp1113
g72
(dp1114
g80
I3
ssg81
Nsg74
(lp1115
sbasbasbasbag67
(g83
g69
NtRp1116
(dp1117
g72
(dp1118
sg81
g1043
sg74
(lp1119
g67
(g88
g69
NtRp1120
(dp1121
g72
(dp1122
g92
g93
ssg81
g1116
sg74
(lp1123
S'cmd_options'
p1124
asbag67
(g88
g69
NtRp1125
(dp1126
g72
(dp1127
g99
g100
ssg81
g1116
sg74
(lp1128
S':'
asbag67
(g88
g69
NtRp1129
(dp1130
g72
(dp1131
sg81
g1116
sg74
(lp1132
g67
(g68
g69
NtRp1133
(dp1134
g72
(dp1135
g80
I4
ssg81
g1129
sg74
(lp1136
S"<Values at 0x1ec0680: {'verbose': False, 'ip': '127.0.0.1', 'with_scheduler': False, 'ips': [], 'shutdown_timeout': 5, 'taskbar': False, 'port': 8000, 'maxthreads': None, 'softcron': False, 'server_name': 'malena', 'bpython': False, 'nogui': False, 'pid_filename': 'httpserver.pid', 'extcron': False, 'runcron': False, 'run_system_tests': False, 'test': None, 'folder': '/home/marco/projects/contabilidad/web2py', 'config': '', 'minthreads': None, 'winservice': '', 'shell': None, 'run': '', 'log_filename': 'httpserver.log', 'debuglevel': 30, 'args': [''], 'socket_timeout': 5, 'ssl_ca_certificate': None, 'scheduler': None, 'profiler_filename': None, 'ssl_private_key': '', 'scheduler_groups': None, 'password': 'asd', 'request_queue_size': 5, 'ssl_certificate': '', 'cronjob': False, 'numthreads': None, 'quiet': False, 'interfaces': None, 'import_models': False, 'timeout': 10, 'plain': False, 'nobanner': False}>"
p1137
asbasbasbag67
(g83
g69
NtRp1138
(dp1139
g72
(dp1140
sg81
g1043
sg74
(lp1141
g67
(g88
g69
NtRp1142
(dp1143
g72
(dp1144
g92
g93
ssg81
g1138
sg74
(lp1145
S'db_sessions'
p1146
asbag67
(g88
g69
NtRp1147
(dp1148
g72
(dp1149
g99
g100
ssg81
g1138
sg74
(lp1150
S':'
asbag67
(g88
g69
NtRp1151
(dp1152
g72
(dp1153
sg81
g1138
sg74
(lp1154
g67
(g68
g69
NtRp1155
(dp1156
g72
(dp1157
g80
I4
ssg81
g1151
sg74
(lp1158
S'set([])'
p1159
asbasbasbag67
(g83
g69
NtRp1160
(dp1161
g72
(dp1162
sg81
g1043
sg74
(lp1163
g67
(g88
g69
NtRp1164
(dp1165
g72
(dp1166
g92
g93
ssg81
g1160
sg74
(lp1167
S'debugging'
p1168
asbag67
(g88
g69
NtRp1169
(dp1170
g72
(dp1171
g99
g100
ssg81
g1160
sg74
(lp1172
S':'
asbag67
(g88
g69
NtRp1173
(dp1174
g72
(dp1175
sg81
g1160
sg74
(lp1176
g67
(g68
g69
NtRp1177
(dp1178
g72
(dp1179
g80
I4
ssg81
g1173
sg74
(lp1180
g110
asbasbasbag67
(g83
g69
NtRp1181
(dp1182
g72
(dp1183
sg81
g1043
sg74
(lp1184
g67
(g88
g69
NtRp1185
(dp1186
g72
(dp1187
g92
g93
ssg81
g1181
sg74
(lp1188
S'gluon_parent'
p1189
asbag67
(g88
g69
NtRp1190
(dp1191
g72
(dp1192
g99
g100
ssg81
g1181
sg74
(lp1193
S':'
asbag67
(g88
g69
NtRp1194
(dp1195
g72
(dp1196
sg81
g1181
sg74
(lp1197
g67
(g68
g69
NtRp1198
(dp1199
g72
(dp1200
g80
I4
ssg81
g1194
sg74
(lp1201
S'/home/marco/projects/contabilidad/web2py'
p1202
asbasbasbag67
(g83
g69
NtRp1203
(dp1204
g72
(dp1205
sg81
g1043
sg74
(lp1206
g67
(g88
g69
NtRp1207
(dp1208
g72
(dp1209
g92
g93
ssg81
g1203
sg74
(lp1210
S'http_accept'
p1211
asbag67
(g88
g69
NtRp1212
(dp1213
g72
(dp1214
g99
g100
ssg81
g1203
sg74
(lp1215
S':'
asbag67
(g88
g69
NtRp1216
(dp1217
g72
(dp1218
sg81
g1203
sg74
(lp1219
g67
(g68
g69
NtRp1220
(dp1221
g72
(dp1222
g80
I4
ssg81
g1216
sg74
(lp1223
S'text/html,application/xhtml+xml,application/xml;q=0.9,*/*;q=0.8'
p1224
asbasbasbag67
(g83
g69
NtRp1225
(dp1226
g72
(dp1227
sg81
g1043
sg74
(lp1228
g67
(g88
g69
NtRp1229
(dp1230
g72
(dp1231
g92
g93
ssg81
g1225
sg74
(lp1232
S'http_accept_encoding'
p1233
asbag67
(g88
g69
NtRp1234
(dp1235
g72
(dp1236
g99
g100
ssg81
g1225
sg74
(lp1237
S':'
asbag67
(g88
g69
NtRp1238
(dp1239
g72
(dp1240
sg81
g1225
sg74
(lp1241
g67
(g68
g69
NtRp1242
(dp1243
g72
(dp1244
g80
I4
ssg81
g1238
sg74
(lp1245
S'gzip, deflate'
p1246
asbasbasbag67
(g83
g69
NtRp1247
(dp1248
g72
(dp1249
sg81
g1043
sg74
(lp1250
g67
(g88
g69
NtRp1251
(dp1252
g72
(dp1253
g92
g93
ssg81
g1247
sg74
(lp1254
S'http_accept_language'
p1255
asbag67
(g88
g69
NtRp1256
(dp1257
g72
(dp1258
g99
g100
ssg81
g1247
sg74
(lp1259
S':'
asbag67
(g88
g69
NtRp1260
(dp1261
g72
(dp1262
sg81
g1247
sg74
(lp1263
g67
(g68
g69
NtRp1264
(dp1265
g72
(dp1266
g80
I4
ssg81
g1260
sg74
(lp1267
S'en-US,en;q=0.5'
p1268
asbasbasbag67
(g83
g69
NtRp1269
(dp1270
g72
(dp1271
sg81
g1043
sg74
(lp1272
g67
(g88
g69
NtRp1273
(dp1274
g72
(dp1275
g92
g93
ssg81
g1269
sg74
(lp1276
S'http_cache_control'
p1277
asbag67
(g88
g69
NtRp1278
(dp1279
g72
(dp1280
g99
g100
ssg81
g1269
sg74
(lp1281
S':'
asbag67
(g88
g69
NtRp1282
(dp1283
g72
(dp1284
sg81
g1269
sg74
(lp1285
g67
(g68
g69
NtRp1286
(dp1287
g72
(dp1288
g80
I4
ssg81
g1282
sg74
(lp1289
S'max-age=0'
p1290
asbasbasbag67
(g83
g69
NtRp1291
(dp1292
g72
(dp1293
sg81
g1043
sg74
(lp1294
g67
(g88
g69
NtRp1295
(dp1296
g72
(dp1297
g92
g93
ssg81
g1291
sg74
(lp1298
S'http_connection'
p1299
asbag67
(g88
g69
NtRp1300
(dp1301
g72
(dp1302
g99
g100
ssg81
g1291
sg74
(lp1303
S':'
asbag67
(g88
g69
NtRp1304
(dp1305
g72
(dp1306
sg81
g1291
sg74
(lp1307
g67
(g68
g69
NtRp1308
(dp1309
g72
(dp1310
g80
I4
ssg81
g1304
sg74
(lp1311
S'keep-alive'
p1312
asbasbasbag67
(g83
g69
NtRp1313
(dp1314
g72
(dp1315
sg81
g1043
sg74
(lp1316
g67
(g88
g69
NtRp1317
(dp1318
g72
(dp1319
g92
g93
ssg81
g1313
sg74
(lp1320
S'http_cookie'
p1321
asbag67
(g88
g69
NtRp1322
(dp1323
g72
(dp1324
g99
g100
ssg81
g1313
sg74
(lp1325
S':'
asbag67
(g88
g69
NtRp1326
(dp1327
g72
(dp1328
sg81
g1313
sg74
(lp1329
g67
(g68
g69
NtRp1330
(dp1331
g72
(dp1332
g80
I4
ssg81
g1326
sg74
(lp1333
S'__utma=96992031.1881515701.1331265087.1338377060.1343090981.18; __utmz=96992031.1331265087.1.1.utmcsr=(direct)|utmccn=(direct)|utmcmd=(none); session_id_xignus=127.0.0.1-88886a41-5f5d-4a70-807d-3ca590da3da9; session_id_welcome=127.0.0.1-7c78abb8-f43d-4930-b10f-d5de3e41139c; session_id_sueldos=127.0.0.1-a5687236-8904-4441-8b84-1ccb37d1cbb4; session_id_admin=127.0.0.1-abf6dccc-b695-4022-be65-76594172711c'
p1334
asbasbasbag67
(g83
g69
NtRp1335
(dp1336
g72
(dp1337
sg81
g1043
sg74
(lp1338
g67
(g88
g69
NtRp1339
(dp1340
g72
(dp1341
g92
g93
ssg81
g1335
sg74
(lp1342
S'http_host'
p1343
asbag67
(g88
g69
NtRp1344
(dp1345
g72
(dp1346
g99
g100
ssg81
g1335
sg74
(lp1347
S':'
asbag67
(g88
g69
NtRp1348
(dp1349
g72
(dp1350
sg81
g1335
sg74
(lp1351
g67
(g68
g69
NtRp1352
(dp1353
g72
(dp1354
g80
I4
ssg81
g1348
sg74
(lp1355
S'127.0.0.1:8000'
p1356
asbasbasbag67
(g83
g69
NtRp1357
(dp1358
g72
(dp1359
sg81
g1043
sg74
(lp1360
g67
(g88
g69
NtRp1361
(dp1362
g72
(dp1363
g92
g93
ssg81
g1357
sg74
(lp1364
S'http_user_agent'
p1365
asbag67
(g88
g69
NtRp1366
(dp1367
g72
(dp1368
g99
g100
ssg81
g1357
sg74
(lp1369
S':'
asbag67
(g88
g69
NtRp1370
(dp1371
g72
(dp1372
sg81
g1357
sg74
(lp1373
g67
(g68
g69
NtRp1374
(dp1375
g72
(dp1376
g80
I4
ssg81
g1370
sg74
(lp1377
S'Mozilla/5.0 (X11; Linux x86_64; rv:17.0) Gecko/20100101 Firefox/17.0 Iceweasel/17.0.1'
p1378
asbasbasbag67
(g83
g69
NtRp1379
(dp1380
g72
(dp1381
sg81
g1043
sg74
(lp1382
g67
(g88
g69
NtRp1383
(dp1384
g72
(dp1385
g92
g93
ssg81
g1379
sg74
(lp1386
S'is_jython'
p1387
asbag67
(g88
g69
NtRp1388
(dp1389
g72
(dp1390
g99
g100
ssg81
g1379
sg74
(lp1391
S':'
asbag67
(g88
g69
NtRp1392
(dp1393
g72
(dp1394
sg81
g1379
sg74
(lp1395
g67
(g68
g69
NtRp1396
(dp1397
g72
(dp1398
g80
I4
ssg81
g1392
sg74
(lp1399
g110
asbasbasbag67
(g83
g69
NtRp1400
(dp1401
g72
(dp1402
sg81
g1043
sg74
(lp1403
g67
(g88
g69
NtRp1404
(dp1405
g72
(dp1406
g92
g93
ssg81
g1400
sg74
(lp1407
S'is_pypy'
p1408
asbag67
(g88
g69
NtRp1409
(dp1410
g72
(dp1411
g99
g100
ssg81
g1400
sg74
(lp1412
S':'
asbag67
(g88
g69
NtRp1413
(dp1414
g72
(dp1415
sg81
g1400
sg74
(lp1416
g67
(g68
g69
NtRp1417
(dp1418
g72
(dp1419
g80
I4
ssg81
g1413
sg74
(lp1420
g110
asbasbasbag67
(g83
g69
NtRp1421
(dp1422
g72
(dp1423
sg81
g1043
sg74
(lp1424
g67
(g88
g69
NtRp1425
(dp1426
g72
(dp1427
g92
g93
ssg81
g1421
sg74
(lp1428
S'local_hosts'
p1429
asbag67
(g88
g69
NtRp1430
(dp1431
g72
(dp1432
g99
g100
ssg81
g1421
sg74
(lp1433
S':'
asbag67
(g88
g69
NtRp1434
(dp1435
g72
(dp1436
sg81
g1421
sg74
(lp1437
g67
(g68
g69
NtRp1438
(dp1439
g72
(dp1440
g80
I4
ssg81
g1434
sg74
(lp1441
g67
(g76
g69
NtRp1442
(dp1443
g72
(dp1444
g80
I3
ssg81
Nsg74
(lp1445
g67
(g83
g69
NtRp1446
(dp1447
g72
(dp1448
sg81
g1442
sg74
(lp1449
g67
(g88
g69
NtRp1450
(dp1451
g72
(dp1452
sg81
g1446
sg74
(lp1453
g67
(g68
g69
NtRp1454
(dp1455
g72
(dp1456
g80
I3
ssg81
g1450
sg74
(lp1457
S'malena'
p1458
asbasbasbag67
(g83
g69
NtRp1459
(dp1460
g72
(dp1461
sg81
g1442
sg74
(lp1462
g67
(g88
g69
NtRp1463
(dp1464
g72
(dp1465
sg81
g1459
sg74
(lp1466
g67
(g68
g69
NtRp1467
(dp1468
g72
(dp1469
g80
I3
ssg81
g1463
sg74
(lp1470
S'::1'
p1471
asbasbasbag67
(g83
g69
NtRp1472
(dp1473
g72
(dp1474
sg81
g1442
sg74
(lp1475
g67
(g88
g69
NtRp1476
(dp1477
g72
(dp1478
sg81
g1472
sg74
(lp1479
g67
(g68
g69
NtRp1480
(dp1481
g72
(dp1482
g80
I3
ssg81
g1476
sg74
(lp1483
S'127.0.1.1'
p1484
asbasbasbag67
(g83
g69
NtRp1485
(dp1486
g72
(dp1487
sg81
g1442
sg74
(lp1488
g67
(g88
g69
NtRp1489
(dp1490
g72
(dp1491
sg81
g1485
sg74
(lp1492
g67
(g68
g69
NtRp1493
(dp1494
g72
(dp1495
g80
I3
ssg81
g1489
sg74
(lp1496
S'::ffff:127.0.0.1'
p1497
asbasbasbag67
(g83
g69
NtRp1498
(dp1499
g72
(dp1500
sg81
g1442
sg74
(lp1501
g67
(g88
g69
NtRp1502
(dp1503
g72
(dp1504
sg81
g1498
sg74
(lp1505
g67
(g68
g69
NtRp1506
(dp1507
g72
(dp1508
g80
I3
ssg81
g1502
sg74
(lp1509
S'127.0.0.1'
p1510
asbasbasbasbasbasbasbag67
(g83
g69
NtRp1511
(dp1512
g72
(dp1513
sg81
g1043
sg74
(lp1514
g67
(g88
g69
NtRp1515
(dp1516
g72
(dp1517
g92
g93
ssg81
g1511
sg74
(lp1518
S'path_info'
p1519
asbag67
(g88
g69
NtRp1520
(dp1521
g72
(dp1522
g99
g100
ssg81
g1511
sg74
(lp1523
S':'
asbag67
(g88
g69
NtRp1524
(dp1525
g72
(dp1526
sg81
g1511
sg74
(lp1527
g67
(g68
g69
NtRp1528
(dp1529
g72
(dp1530
g80
I4
ssg81
g1524
sg74
(lp1531
S'/sueldos'
p1532
asbasbasbag67
(g83
g69
NtRp1533
(dp1534
g72
(dp1535
sg81
g1043
sg74
(lp1536
g67
(g88
g69
NtRp1537
(dp1538
g72
(dp1539
g92
g93
ssg81
g1533
sg74
(lp1540
S'query_string'
p1541
asbag67
(g88
g69
NtRp1542
(dp1543
g72
(dp1544
g99
g100
ssg81
g1533
sg74
(lp1545
S':'
asbag67
(g88
g69
NtRp1546
(dp1547
g72
(dp1548
sg81
g1533
sg74
(lp1549
g67
(g68
g69
NtRp1550
(dp1551
g72
(dp1552
g80
I4
ssg81
g1546
sg74
(lp1553
S''
asbasbasbag67
(g83
g69
NtRp1554
(dp1555
g72
(dp1556
sg81
g1043
sg74
(lp1557
g67
(g88
g69
NtRp1558
(dp1559
g72
(dp1560
g92
g93
ssg81
g1554
sg74
(lp1561
S'remote_addr'
p1562
asbag67
(g88
g69
NtRp1563
(dp1564
g72
(dp1565
g99
g100
ssg81
g1554
sg74
(lp1566
S':'
asbag67
(g88
g69
NtRp1567
(dp1568
g72
(dp1569
sg81
g1554
sg74
(lp1570
g67
(g68
g69
NtRp1571
(dp1572
g72
(dp1573
g80
I4
ssg81
g1567
sg74
(lp1574
g222
asbasbasbag67
(g83
g69
NtRp1575
(dp1576
g72
(dp1577
sg81
g1043
sg74
(lp1578
g67
(g88
g69
NtRp1579
(dp1580
g72
(dp1581
g92
g93
ssg81
g1575
sg74
(lp1582
S'remote_port'
p1583
asbag67
(g88
g69
NtRp1584
(dp1585
g72
(dp1586
g99
g100
ssg81
g1575
sg74
(lp1587
S':'
asbag67
(g88
g69
NtRp1588
(dp1589
g72
(dp1590
sg81
g1575
sg74
(lp1591
g67
(g68
g69
NtRp1592
(dp1593
g72
(dp1594
g80
I4
ssg81
g1588
sg74
(lp1595
S'59279'
p1596
asbasbasbag67
(g83
g69
NtRp1597
(dp1598
g72
(dp1599
sg81
g1043
sg74
(lp1600
g67
(g88
g69
NtRp1601
(dp1602
g72
(dp1603
g92
g93
ssg81
g1597
sg74
(lp1604
S'request_method'
p1605
asbag67
(g88
g69
NtRp1606
(dp1607
g72
(dp1608
g99
g100
ssg81
g1597
sg74
(lp1609
S':'
asbag67
(g88
g69
NtRp1610
(dp1611
g72
(dp1612
sg81
g1597
sg74
(lp1613
g67
(g68
g69
NtRp1614
(dp1615
g72
(dp1616
g80
I4
ssg81
g1610
sg74
(lp1617
S'GET'
p1618
asbasbasbag67
(g83
g69
NtRp1619
(dp1620
g72
(dp1621
sg81
g1043
sg74
(lp1622
g67
(g88
g69
NtRp1623
(dp1624
g72
(dp1625
g92
g93
ssg81
g1619
sg74
(lp1626
S'request_uri'
p1627
asbag67
(g88
g69
NtRp1628
(dp1629
g72
(dp1630
g99
g100
ssg81
g1619
sg74
(lp1631
S':'
asbag67
(g88
g69
NtRp1632
(dp1633
g72
(dp1634
sg81
g1619
sg74
(lp1635
g67
(g68
g69
NtRp1636
(dp1637
g72
(dp1638
g80
I4
ssg81
g1632
sg74
(lp1639
g1532
asbasbasbag67
(g83
g69
NtRp1640
(dp1641
g72
(dp1642
sg81
g1043
sg74
(lp1643
g67
(g88
g69
NtRp1644
(dp1645
g72
(dp1646
g92
g93
ssg81
g1640
sg74
(lp1647
S'script_name'
p1648
asbag67
(g88
g69
NtRp1649
(dp1650
g72
(dp1651
g99
g100
ssg81
g1640
sg74
(lp1652
S':'
asbag67
(g88
g69
NtRp1653
(dp1654
g72
(dp1655
sg81
g1640
sg74
(lp1656
g67
(g68
g69
NtRp1657
(dp1658
g72
(dp1659
g80
I4
ssg81
g1653
sg74
(lp1660
S''
asbasbasbag67
(g83
g69
NtRp1661
(dp1662
g72
(dp1663
sg81
g1043
sg74
(lp1664
g67
(g88
g69
NtRp1665
(dp1666
g72
(dp1667
g92
g93
ssg81
g1661
sg74
(lp1668
S'server_name'
p1669
asbag67
(g88
g69
NtRp1670
(dp1671
g72
(dp1672
g99
g100
ssg81
g1661
sg74
(lp1673
S':'
asbag67
(g88
g69
NtRp1674
(dp1675
g72
(dp1676
sg81
g1661
sg74
(lp1677
g67
(g68
g69
NtRp1678
(dp1679
g72
(dp1680
g80
I4
ssg81
g1674
sg74
(lp1681
S'malena'
p1682
asbasbasbag67
(g83
g69
NtRp1683
(dp1684
g72
(dp1685
sg81
g1043
sg74
(lp1686
g67
(g88
g69
NtRp1687
(dp1688
g72
(dp1689
g92
g93
ssg81
g1683
sg74
(lp1690
S'server_port'
p1691
asbag67
(g88
g69
NtRp1692
(dp1693
g72
(dp1694
g99
g100
ssg81
g1683
sg74
(lp1695
S':'
asbag67
(g88
g69
NtRp1696
(dp1697
g72
(dp1698
sg81
g1683
sg74
(lp1699
g67
(g68
g69
NtRp1700
(dp1701
g72
(dp1702
g80
I4
ssg81
g1696
sg74
(lp1703
S'8000'
p1704
asbasbasbag67
(g83
g69
NtRp1705
(dp1706
g72
(dp1707
sg81
g1043
sg74
(lp1708
g67
(g88
g69
NtRp1709
(dp1710
g72
(dp1711
g92
g93
ssg81
g1705
sg74
(lp1712
S'server_protocol'
p1713
asbag67
(g88
g69
NtRp1714
(dp1715
g72
(dp1716
g99
g100
ssg81
g1705
sg74
(lp1717
S':'
asbag67
(g88
g69
NtRp1718
(dp1719
g72
(dp1720
sg81
g1705
sg74
(lp1721
g67
(g68
g69
NtRp1722
(dp1723
g72
(dp1724
g80
I4
ssg81
g1718
sg74
(lp1725
S'HTTP/1.1'
p1726
asbasbasbag67
(g83
g69
NtRp1727
(dp1728
g72
(dp1729
sg81
g1043
sg74
(lp1730
g67
(g88
g69
NtRp1731
(dp1732
g72
(dp1733
g92
g93
ssg81
g1727
sg74
(lp1734
S'server_software'
p1735
asbag67
(g88
g69
NtRp1736
(dp1737
g72
(dp1738
g99
g100
ssg81
g1727
sg74
(lp1739
S':'
asbag67
(g88
g69
NtRp1740
(dp1741
g72
(dp1742
sg81
g1727
sg74
(lp1743
g67
(g68
g69
NtRp1744
(dp1745
g72
(dp1746
g80
I4
ssg81
g1740
sg74
(lp1747
S'Rocket 1.2.6'
p1748
asbasbasbag67
(g83
g69
NtRp1749
(dp1750
g72
(dp1751
sg81
g1043
sg74
(lp1752
g67
(g88
g69
NtRp1753
(dp1754
g72
(dp1755
g92
g93
ssg81
g1749
sg74
(lp1756
S'web2py_path'
p1757
asbag67
(g88
g69
NtRp1758
(dp1759
g72
(dp1760
g99
g100
ssg81
g1749
sg74
(lp1761
S':'
asbag67
(g88
g69
NtRp1762
(dp1763
g72
(dp1764
sg81
g1749
sg74
(lp1765
g67
(g68
g69
NtRp1766
(dp1767
g72
(dp1768
g80
I4
ssg81
g1762
sg74
(lp1769
g1090
asbasbasbag67
(g83
g69
NtRp1770
(dp1771
g72
(dp1772
sg81
g1043
sg74
(lp1773
g67
(g88
g69
NtRp1774
(dp1775
g72
(dp1776
g92
g93
ssg81
g1770
sg74
(lp1777
S'web2py_version'
p1778
asbag67
(g88
g69
NtRp1779
(dp1780
g72
(dp1781
g99
g100
ssg81
g1770
sg74
(lp1782
S':'
asbag67
(g88
g69
NtRp1783
(dp1784
g72
(dp1785
sg81
g1770
sg74
(lp1786
g67
(g68
g69
NtRp1787
(dp1788
g72
(dp1789
g80
I4
ssg81
g1783
sg74
(lp1790
g67
(g76
g69
NtRp1791
(dp1792
g72
(dp1793
g80
I3
ssg81
Nsg74
(lp1794
g67
(g83
g69
NtRp1795
(dp1796
g72
(dp1797
sg81
g1791
sg74
(lp1798
g67
(g88
g69
NtRp1799
(dp1800
g72
(dp1801
sg81
g1795
sg74
(lp1802
g67
(g68
g69
NtRp1803
(dp1804
g72
(dp1805
g80
I3
ssg81
g1799
sg74
(lp1806
S'2'
asbasbasbag67
(g83
g69
NtRp1807
(dp1808
g72
(dp1809
sg81
g1791
sg74
(lp1810
g67
(g88
g69
NtRp1811
(dp1812
g72
(dp1813
sg81
g1807
sg74
(lp1814
g67
(g68
g69
NtRp1815
(dp1816
g72
(dp1817
g80
I3
ssg81
g1811
sg74
(lp1818
S'3'
asbasbasbag67
(g83
g69
NtRp1819
(dp1820
g72
(dp1821
sg81
g1791
sg74
(lp1822
g67
(g88
g69
NtRp1823
(dp1824
g72
(dp1825
sg81
g1819
sg74
(lp1826
g67
(g68
g69
NtRp1827
(dp1828
g72
(dp1829
g80
I3
ssg81
g1823
sg74
(lp1830
S'0'
asbasbasbag67
(g83
g69
NtRp1831
(dp1832
g72
(dp1833
sg81
g1791
sg74
(lp1834
g67
(g88
g69
NtRp1835
(dp1836
g72
(dp1837
sg81
g1831
sg74
(lp1838
g67
(g68
g69
NtRp1839
(dp1840
g72
(dp1841
g80
I3
ssg81
g1835
sg74
(lp1842
S'datetime.datetime(2012, 12, 4, 10, 55, 53)'
p1843
asbasbasbag67
(g83
g69
NtRp1844
(dp1845
g72
(dp1846
sg81
g1791
sg74
(lp1847
g67
(g88
g69
NtRp1848
(dp1849
g72
(dp1850
sg81
g1844
sg74
(lp1851
g67
(g68
g69
NtRp1852
(dp1853
g72
(dp1854
g80
I3
ssg81
g1848
sg74
(lp1855
S'rc'
p1856
asbasbasbasbasbasbasbag67
(g83
g69
NtRp1857
(dp1858
g72
(dp1859
sg81
g1043
sg74
(lp1860
g67
(g88
g69
NtRp1861
(dp1862
g72
(dp1863
g92
g93
ssg81
g1857
sg74
(lp1864
S'wsgi_errors'
p1865
asbag67
(g88
g69
NtRp1866
(dp1867
g72
(dp1868
g99
g100
ssg81
g1857
sg74
(lp1869
S':'
asbag67
(g88
g69
NtRp1870
(dp1871
g72
(dp1872
sg81
g1857
sg74
(lp1873
g67
(g68
g69
NtRp1874
(dp1875
g72
(dp1876
g80
I4
ssg81
g1870
sg74
(lp1877
S"<open file '<stderr>', mode 'w' at 0x7f502f169270>"
p1878
asbasbasbag67
(g83
g69
NtRp1879
(dp1880
g72
(dp1881
sg81
g1043
sg74
(lp1882
g67
(g88
g69
NtRp1883
(dp1884
g72
(dp1885
g92
g93
ssg81
g1879
sg74
(lp1886
S'wsgi_file_wrapper'
p1887
asbag67
(g88
g69
NtRp1888
(dp1889
g72
(dp1890
g99
g100
ssg81
g1879
sg74
(lp1891
S':'
asbag67
(g88
g69
NtRp1892
(dp1893
g72
(dp1894
sg81
g1879
sg74
(lp1895
g67
(g68
g69
NtRp1896
(dp1897
g72
(dp1898
g80
I4
ssg81
g1892
sg74
(lp1899
S'<class wsgiref.util.FileWrapper at 0x1e216d0>'
p1900
asbasbasbag67
(g83
g69
NtRp1901
(dp1902
g72
(dp1903
sg81
g1043
sg74
(lp1904
g67
(g88
g69
NtRp1905
(dp1906
g72
(dp1907
g92
g93
ssg81
g1901
sg74
(lp1908
S'wsgi_input'
p1909
asbag67
(g88
g69
NtRp1910
(dp1911
g72
(dp1912
g99
g100
ssg81
g1901
sg74
(lp1913
S':'
asbag67
(g88
g69
NtRp1914
(dp1915
g72
(dp1916
sg81
g1901
sg74
(lp1917
g67
(g68
g69
NtRp1918
(dp1919
g72
(dp1920
g80
I4
ssg81
g1914
sg74
(lp1921
S'<socket._fileobject object at 0x21f4bd0>'
p1922
asbasbasbag67
(g83
g69
NtRp1923
(dp1924
g72
(dp1925
sg81
g1043
sg74
(lp1926
g67
(g88
g69
NtRp1927
(dp1928
g72
(dp1929
g92
g93
ssg81
g1923
sg74
(lp1930
S'wsgi_multiprocess'
p1931
asbag67
(g88
g69
NtRp1932
(dp1933
g72
(dp1934
g99
g100
ssg81
g1923
sg74
(lp1935
S':'
asbag67
(g88
g69
NtRp1936
(dp1937
g72
(dp1938
sg81
g1923
sg74
(lp1939
g67
(g68
g69
NtRp1940
(dp1941
g72
(dp1942
g80
I4
ssg81
g1936
sg74
(lp1943
g110
asbasbasbag67
(g83
g69
NtRp1944
(dp1945
g72
(dp1946
sg81
g1043
sg74
(lp1947
g67
(g88
g69
NtRp1948
(dp1949
g72
(dp1950
g92
g93
ssg81
g1944
sg74
(lp1951
S'wsgi_multithread'
p1952
asbag67
(g88
g69
NtRp1953
(dp1954
g72
(dp1955
g99
g100
ssg81
g1944
sg74
(lp1956
S':'
asbag67
(g88
g69
NtRp1957
(dp1958
g72
(dp1959
sg81
g1944
sg74
(lp1960
g67
(g68
g69
NtRp1961
(dp1962
g72
(dp1963
g80
I4
ssg81
g1957
sg74
(lp1964
S'True'
p1965
asbasbasbag67
(g83
g69
NtRp1966
(dp1967
g72
(dp1968
sg81
g1043
sg74
(lp1969
g67
(g88
g69
NtRp1970
(dp1971
g72
(dp1972
g92
g93
ssg81
g1966
sg74
(lp1973
S'wsgi_run_once'
p1974
asbag67
(g88
g69
NtRp1975
(dp1976
g72
(dp1977
g99
g100
ssg81
g1966
sg74
(lp1978
S':'
asbag67
(g88
g69
NtRp1979
(dp1980
g72
(dp1981
sg81
g1966
sg74
(lp1982
g67
(g68
g69
NtRp1983
(dp1984
g72
(dp1985
g80
I4
ssg81
g1979
sg74
(lp1986
g110
asbasbasbag67
(g83
g69
NtRp1987
(dp1988
g72
(dp1989
sg81
g1043
sg74
(lp1990
g67
(g88
g69
NtRp1991
(dp1992
g72
(dp1993
g92
g93
ssg81
g1987
sg74
(lp1994
S'wsgi_url_scheme'
p1995
asbag67
(g88
g69
NtRp1996
(dp1997
g72
(dp1998
g99
g100
ssg81
g1987
sg74
(lp1999
S':'
asbag67
(g88
g69
NtRp2000
(dp2001
g72
(dp2002
sg81
g1987
sg74
(lp2003
g67
(g68
g69
NtRp2004
(dp2005
g72
(dp2006
g80
I4
ssg81
g2000
sg74
(lp2007
S'http'
p2008
asbasbasbag67
(g83
g69
NtRp2009
(dp2010
g72
(dp2011
sg81
g1043
sg74
(lp2012
g67
(g88
g69
NtRp2013
(dp2014
g72
(dp2015
g92
g93
ssg81
g2009
sg74
(lp2016
S'wsgi_version'
p2017
asbag67
(g88
g69
NtRp2018
(dp2019
g72
(dp2020
g99
g100
ssg81
g2009
sg74
(lp2021
S':'
asbag67
(g88
g69
NtRp2022
(dp2023
g72
(dp2024
sg81
g2009
sg74
(lp2025
g67
(g68
g69
NtRp2026
(dp2027
g72
(dp2028
g80
I4
ssg81
g2022
sg74
(lp2029
g67
(g76
g69
NtRp2030
(dp2031
g72
(dp2032
g80
I3
ssg81
Nsg74
(lp2033
g67
(g83
g69
NtRp2034
(dp2035
g72
(dp2036
sg81
g2030
sg74
(lp2037
g67
(g88
g69
NtRp2038
(dp2039
g72
(dp2040
sg81
g2034
sg74
(lp2041
g67
(g68
g69
NtRp2042
(dp2043
g72
(dp2044
g80
I3
ssg81
g2038
sg74
(lp2045
S'1'
asbasbasbag67
(g83
g69
NtRp2046
(dp2047
g72
(dp2048
sg81
g2030
sg74
(lp2049
g67
(g88
g69
NtRp2050
(dp2051
g72
(dp2052
sg81
g2046
sg74
(lp2053
g67
(g68
g69
NtRp2054
(dp2055
g72
(dp2056
g80
I3
ssg81
g2050
sg74
(lp2057
S'0'
asbasbasbasbasbasbasbasbasbasbasbag67
(g83
g69
NtRp2058
(dp2059
g72
(dp2060
sg81
g77
sg74
(lp2061
g67
(g88
g69
NtRp2062
(dp2063
g72
(dp2064
g92
g93
ssg81
g2058
sg74
(lp2065
S'extension'
p2066
asbag67
(g88
g69
NtRp2067
(dp2068
g72
(dp2069
g99
g100
ssg81
g2058
sg74
(lp2070
S':'
asbag67
(g88
g69
NtRp2071
(dp2072
g72
(dp2073
sg81
g2058
sg74
(lp2074
g67
(g68
g69
NtRp2075
(dp2076
g72
(dp2077
g80
I5
ssg81
g2071
sg74
(lp2078
S'html'
p2079
asbasbasbag67
(g83
g69
NtRp2080
(dp2081
g72
(dp2082
sg81
g77
sg74
(lp2083
g67
(g88
g69
NtRp2084
(dp2085
g72
(dp2086
g92
g93
ssg81
g2080
sg74
(lp2087
S'folder'
p2088
asbag67
(g88
g69
NtRp2089
(dp2090
g72
(dp2091
g99
g100
ssg81
g2080
sg74
(lp2092
S':'
asbag67
(g88
g69
NtRp2093
(dp2094
g72
(dp2095
sg81
g2080
sg74
(lp2096
g67
(g68
g69
NtRp2097
(dp2098
g72
(dp2099
g80
I5
ssg81
g2093
sg74
(lp2100
S'/home/marco/projects/contabilidad/web2py/applications/sueldos/'
p2101
asbasbasbag67
(g83
g69
NtRp2102
(dp2103
g72
(dp2104
sg81
g77
sg74
(lp2105
g67
(g88
g69
NtRp2106
(dp2107
g72
(dp2108
g92
g93
ssg81
g2102
sg74
(lp2109
S'function'
p2110
asbag67
(g88
g69
NtRp2111
(dp2112
g72
(dp2113
g99
g100
ssg81
g2102
sg74
(lp2114
S':'
asbag67
(g88
g69
NtRp2115
(dp2116
g72
(dp2117
sg81
g2102
sg74
(lp2118
g67
(g68
g69
NtRp2119
(dp2120
g72
(dp2121
g80
I5
ssg81
g2115
sg74
(lp2122
S'index'
p2123
asbasbasbag67
(g83
g69
NtRp2124
(dp2125
g72
(dp2126
sg81
g77
sg74
(lp2127
g67
(g88
g69
NtRp2128
(dp2129
g72
(dp2130
g92
g93
ssg81
g2124
sg74
(lp2131
S'get_vars'
p2132
asbag67
(g88
g69
NtRp2133
(dp2134
g72
(dp2135
g99
g100
ssg81
g2124
sg74
(lp2136
S':'
asbag67
(g88
g69
NtRp2137
(dp2138
g72
(dp2139
sg81
g2124
sg74
(lp2140
g67
(g68
g69
NtRp2141
(dp2142
g72
(dp2143
g80
I5
ssg81
g2137
sg74
(lp2144
g67
(g76
g69
NtRp2145
(dp2146
g72
(dp2147
g80
I4
ssg81
Nsg74
(lp2148
sbasbasbasbag67
(g83
g69
NtRp2149
(dp2150
g72
(dp2151
sg81
g77
sg74
(lp2152
g67
(g88
g69
NtRp2153
(dp2154
g72
(dp2155
g92
g93
ssg81
g2149
sg74
(lp2156
S'global_settings'
p2157
asbag67
(g88
g69
NtRp2158
(dp2159
g72
(dp2160
g99
g100
ssg81
g2149
sg74
(lp2161
S':'
asbag67
(g88
g69
NtRp2162
(dp2163
g72
(dp2164
sg81
g2149
sg74
(lp2165
g67
(g68
g69
NtRp2166
(dp2167
g72
(dp2168
g80
I5
ssg81
g2162
sg74
(lp2169
g67
(g76
g69
NtRp2170
(dp2171
g72
(dp2172
g80
I4
ssg81
Nsg74
(lp2173
g67
(g83
g69
NtRp2174
(dp2175
g72
(dp2176
sg81
g2170
sg74
(lp2177
g67
(g88
g69
NtRp2178
(dp2179
g72
(dp2180
g92
g93
ssg81
g2174
sg74
(lp2181
g1055
asbag67
(g88
g69
NtRp2182
(dp2183
g72
(dp2184
g99
g100
ssg81
g2174
sg74
(lp2185
S':'
asbag67
(g88
g69
NtRp2186
(dp2187
g72
(dp2188
sg81
g2174
sg74
(lp2189
g67
(g68
g69
NtRp2190
(dp2191
g72
(dp2192
g80
I4
ssg81
g2186
sg74
(lp2193
S"set(['/home/marco/projects/contabilidad/web2py/applications/admin/', '/home/marco/projects/contabilidad/web2py/applications/sueldos/'])"
p2194
asbasbasbag67
(g83
g69
NtRp2195
(dp2196
g72
(dp2197
sg81
g2170
sg74
(lp2198
g67
(g88
g69
NtRp2199
(dp2200
g72
(dp2201
g92
g93
ssg81
g2195
sg74
(lp2202
g1077
asbag67
(g88
g69
NtRp2203
(dp2204
g72
(dp2205
g99
g100
ssg81
g2195
sg74
(lp2206
S':'
asbag67
(g88
g69
NtRp2207
(dp2208
g72
(dp2209
sg81
g2195
sg74
(lp2210
g67
(g68
g69
NtRp2211
(dp2212
g72
(dp2213
g80
I4
ssg81
g2207
sg74
(lp2214
g1090
asbasbasbag67
(g83
g69
NtRp2215
(dp2216
g72
(dp2217
sg81
g2170
sg74
(lp2218
g67
(g88
g69
NtRp2219
(dp2220
g72
(dp2221
g92
g93
ssg81
g2215
sg74
(lp2222
g1099
asbag67
(g88
g69
NtRp2223
(dp2224
g72
(dp2225
g99
g100
ssg81
g2215
sg74
(lp2226
S':'
asbag67
(g88
g69
NtRp2227
(dp2228
g72
(dp2229
sg81
g2215
sg74
(lp2230
g67
(g68
g69
NtRp2231
(dp2232
g72
(dp2233
g80
I4
ssg81
g2227
sg74
(lp2234
g67
(g76
g69
NtRp2235
(dp2236
g72
(dp2237
g80
I3
ssg81
Nsg74
(lp2238
sbasbasbasbag67
(g83
g69
NtRp2239
(dp2240
g72
(dp2241
sg81
g2170
sg74
(lp2242
g67
(g88
g69
NtRp2243
(dp2244
g72
(dp2245
g92
g93
ssg81
g2239
sg74
(lp2246
g1124
asbag67
(g88
g69
NtRp2247
(dp2248
g72
(dp2249
g99
g100
ssg81
g2239
sg74
(lp2250
S':'
asbag67
(g88
g69
NtRp2251
(dp2252
g72
(dp2253
sg81
g2239
sg74
(lp2254
g67
(g68
g69
NtRp2255
(dp2256
g72
(dp2257
g80
I4
ssg81
g2251
sg74
(lp2258
S"<Values at 0x1ec0680: {'verbose': False, 'ip': '127.0.0.1', 'with_scheduler': False, 'ips': [], 'shutdown_timeout': 5, 'taskbar': False, 'port': 8000, 'maxthreads': None, 'softcron': False, 'server_name': 'malena', 'bpython': False, 'nogui': False, 'pid_filename': 'httpserver.pid', 'extcron': False, 'runcron': False, 'run_system_tests': False, 'test': None, 'folder': '/home/marco/projects/contabilidad/web2py', 'config': '', 'minthreads': None, 'winservice': '', 'shell': None, 'run': '', 'log_filename': 'httpserver.log', 'debuglevel': 30, 'args': [''], 'socket_timeout': 5, 'ssl_ca_certificate': None, 'scheduler': None, 'profiler_filename': None, 'ssl_private_key': '', 'scheduler_groups': None, 'password': 'asd', 'request_queue_size': 5, 'ssl_certificate': '', 'cronjob': False, 'numthreads': None, 'quiet': False, 'interfaces': None, 'import_models': False, 'timeout': 10, 'plain': False, 'nobanner': False}>"
p2259
asbasbasbag67
(g83
g69
NtRp2260
(dp2261
g72
(dp2262
sg81
g2170
sg74
(lp2263
g67
(g88
g69
NtRp2264
(dp2265
g72
(dp2266
g92
g93
ssg81
g2260
sg74
(lp2267
g1146
asbag67
(g88
g69
NtRp2268
(dp2269
g72
(dp2270
g99
g100
ssg81
g2260
sg74
(lp2271
S':'
asbag67
(g88
g69
NtRp2272
(dp2273
g72
(dp2274
sg81
g2260
sg74
(lp2275
g67
(g68
g69
NtRp2276
(dp2277
g72
(dp2278
g80
I4
ssg81
g2272
sg74
(lp2279
S'set([])'
p2280
asbasbasbag67
(g83
g69
NtRp2281
(dp2282
g72
(dp2283
sg81
g2170
sg74
(lp2284
g67
(g88
g69
NtRp2285
(dp2286
g72
(dp2287
g92
g93
ssg81
g2281
sg74
(lp2288
g1168
asbag67
(g88
g69
NtRp2289
(dp2290
g72
(dp2291
g99
g100
ssg81
g2281
sg74
(lp2292
S':'
asbag67
(g88
g69
NtRp2293
(dp2294
g72
(dp2295
sg81
g2281
sg74
(lp2296
g67
(g68
g69
NtRp2297
(dp2298
g72
(dp2299
g80
I4
ssg81
g2293
sg74
(lp2300
g110
asbasbasbag67
(g83
g69
NtRp2301
(dp2302
g72
(dp2303
sg81
g2170
sg74
(lp2304
g67
(g88
g69
NtRp2305
(dp2306
g72
(dp2307
g92
g93
ssg81
g2301
sg74
(lp2308
g1189
asbag67
(g88
g69
NtRp2309
(dp2310
g72
(dp2311
g99
g100
ssg81
g2301
sg74
(lp2312
S':'
asbag67
(g88
g69
NtRp2313
(dp2314
g72
(dp2315
sg81
g2301
sg74
(lp2316
g67
(g68
g69
NtRp2317
(dp2318
g72
(dp2319
g80
I4
ssg81
g2313
sg74
(lp2320
g1202
asbasbasbag67
(g83
g69
NtRp2321
(dp2322
g72
(dp2323
sg81
g2170
sg74
(lp2324
g67
(g88
g69
NtRp2325
(dp2326
g72
(dp2327
g92
g93
ssg81
g2321
sg74
(lp2328
g1387
asbag67
(g88
g69
NtRp2329
(dp2330
g72
(dp2331
g99
g100
ssg81
g2321
sg74
(lp2332
S':'
asbag67
(g88
g69
NtRp2333
(dp2334
g72
(dp2335
sg81
g2321
sg74
(lp2336
g67
(g68
g69
NtRp2337
(dp2338
g72
(dp2339
g80
I4
ssg81
g2333
sg74
(lp2340
g110
asbasbasbag67
(g83
g69
NtRp2341
(dp2342
g72
(dp2343
sg81
g2170
sg74
(lp2344
g67
(g88
g69
NtRp2345
(dp2346
g72
(dp2347
g92
g93
ssg81
g2341
sg74
(lp2348
g1408
asbag67
(g88
g69
NtRp2349
(dp2350
g72
(dp2351
g99
g100
ssg81
g2341
sg74
(lp2352
S':'
asbag67
(g88
g69
NtRp2353
(dp2354
g72
(dp2355
sg81
g2341
sg74
(lp2356
g67
(g68
g69
NtRp2357
(dp2358
g72
(dp2359
g80
I4
ssg81
g2353
sg74
(lp2360
g110
asbasbasbag67
(g83
g69
NtRp2361
(dp2362
g72
(dp2363
sg81
g2170
sg74
(lp2364
g67
(g88
g69
NtRp2365
(dp2366
g72
(dp2367
g92
g93
ssg81
g2361
sg74
(lp2368
g1429
asbag67
(g88
g69
NtRp2369
(dp2370
g72
(dp2371
g99
g100
ssg81
g2361
sg74
(lp2372
S':'
asbag67
(g88
g69
NtRp2373
(dp2374
g72
(dp2375
sg81
g2361
sg74
(lp2376
g67
(g68
g69
NtRp2377
(dp2378
g72
(dp2379
g80
I4
ssg81
g2373
sg74
(lp2380
g67
(g76
g69
NtRp2381
(dp2382
g72
(dp2383
g80
I3
ssg81
Nsg74
(lp2384
g67
(g83
g69
NtRp2385
(dp2386
g72
(dp2387
sg81
g2381
sg74
(lp2388
g67
(g88
g69
NtRp2389
(dp2390
g72
(dp2391
sg81
g2385
sg74
(lp2392
g67
(g68
g69
NtRp2393
(dp2394
g72
(dp2395
g80
I3
ssg81
g2389
sg74
(lp2396
g1458
asbasbasbag67
(g83
g69
NtRp2397
(dp2398
g72
(dp2399
sg81
g2381
sg74
(lp2400
g67
(g88
g69
NtRp2401
(dp2402
g72
(dp2403
sg81
g2397
sg74
(lp2404
g67
(g68
g69
NtRp2405
(dp2406
g72
(dp2407
g80
I3
ssg81
g2401
sg74
(lp2408
g1471
asbasbasbag67
(g83
g69
NtRp2409
(dp2410
g72
(dp2411
sg81
g2381
sg74
(lp2412
g67
(g88
g69
NtRp2413
(dp2414
g72
(dp2415
sg81
g2409
sg74
(lp2416
g67
(g68
g69
NtRp2417
(dp2418
g72
(dp2419
g80
I3
ssg81
g2413
sg74
(lp2420
g1484
asbasbasbag67
(g83
g69
NtRp2421
(dp2422
g72
(dp2423
sg81
g2381
sg74
(lp2424
g67
(g88
g69
NtRp2425
(dp2426
g72
(dp2427
sg81
g2421
sg74
(lp2428
g67
(g68
g69
NtRp2429
(dp2430
g72
(dp2431
g80
I3
ssg81
g2425
sg74
(lp2432
g1497
asbasbasbag67
(g83
g69
NtRp2433
(dp2434
g72
(dp2435
sg81
g2381
sg74
(lp2436
g67
(g88
g69
NtRp2437
(dp2438
g72
(dp2439
sg81
g2433
sg74
(lp2440
g67
(g68
g69
NtRp2441
(dp2442
g72
(dp2443
g80
I3
ssg81
g2437
sg74
(lp2444
g1510
asbasbasbasbasbasbasbag67
(g83
g69
NtRp2445
(dp2446
g72
(dp2447
sg81
g2170
sg74
(lp2448
g67
(g88
g69
NtRp2449
(dp2450
g72
(dp2451
g92
g93
ssg81
g2445
sg74
(lp2452
g1778
asbag67
(g88
g69
NtRp2453
(dp2454
g72
(dp2455
g99
g100
ssg81
g2445
sg74
(lp2456
S':'
asbag67
(g88
g69
NtRp2457
(dp2458
g72
(dp2459
sg81
g2445
sg74
(lp2460
g67
(g68
g69
NtRp2461
(dp2462
g72
(dp2463
g80
I4
ssg81
g2457
sg74
(lp2464
g67
(g76
g69
NtRp2465
(dp2466
g72
(dp2467
g80
I3
ssg81
Nsg74
(lp2468
g67
(g83
g69
NtRp2469
(dp2470
g72
(dp2471
sg81
g2465
sg74
(lp2472
g67
(g88
g69
NtRp2473
(dp2474
g72
(dp2475
sg81
g2469
sg74
(lp2476
g67
(g68
g69
NtRp2477
(dp2478
g72
(dp2479
g80
I3
ssg81
g2473
sg74
(lp2480
S'2'
asbasbasbag67
(g83
g69
NtRp2481
(dp2482
g72
(dp2483
sg81
g2465
sg74
(lp2484
g67
(g88
g69
NtRp2485
(dp2486
g72
(dp2487
sg81
g2481
sg74
(lp2488
g67
(g68
g69
NtRp2489
(dp2490
g72
(dp2491
g80
I3
ssg81
g2485
sg74
(lp2492
S'3'
asbasbasbag67
(g83
g69
NtRp2493
(dp2494
g72
(dp2495
sg81
g2465
sg74
(lp2496
g67
(g88
g69
NtRp2497
(dp2498
g72
(dp2499
sg81
g2493
sg74
(lp2500
g67
(g68
g69
NtRp2501
(dp2502
g72
(dp2503
g80
I3
ssg81
g2497
sg74
(lp2504
S'0'
asbasbasbag67
(g83
g69
NtRp2505
(dp2506
g72
(dp2507
sg81
g2465
sg74
(lp2508
g67
(g88
g69
NtRp2509
(dp2510
g72
(dp2511
sg81
g2505
sg74
(lp2512
g67
(g68
g69
NtRp2513
(dp2514
g72
(dp2515
g80
I3
ssg81
g2509
sg74
(lp2516
S'datetime.datetime(2012, 12, 4, 10, 55, 53)'
p2517
asbasbasbag67
(g83
g69
NtRp2518
(dp2519
g72
(dp2520
sg81
g2465
sg74
(lp2521
g67
(g88
g69
NtRp2522
(dp2523
g72
(dp2524
sg81
g2518
sg74
(lp2525
g67
(g68
g69
NtRp2526
(dp2527
g72
(dp2528
g80
I3
ssg81
g2522
sg74
(lp2529
g1856
asbasbasbasbasbasbasbasbasbasbasbag67
(g83
g69
NtRp2530
(dp2531
g72
(dp2532
sg81
g77
sg74
(lp2533
g67
(g88
g69
NtRp2534
(dp2535
g72
(dp2536
g92
g93
ssg81
g2530
sg74
(lp2537
S'is_https'
p2538
asbag67
(g88
g69
NtRp2539
(dp2540
g72
(dp2541
g99
g100
ssg81
g2530
sg74
(lp2542
S':'
asbag67
(g88
g69
NtRp2543
(dp2544
g72
(dp2545
sg81
g2530
sg74
(lp2546
g67
(g68
g69
NtRp2547
(dp2548
g72
(dp2549
g80
I5
ssg81
g2543
sg74
(lp2550
g110
asbasbasbag67
(g83
g69
NtRp2551
(dp2552
g72
(dp2553
sg81
g77
sg74
(lp2554
g67
(g88
g69
NtRp2555
(dp2556
g72
(dp2557
g92
g93
ssg81
g2551
sg74
(lp2558
S'is_local'
p2559
asbag67
(g88
g69
NtRp2560
(dp2561
g72
(dp2562
g99
g100
ssg81
g2551
sg74
(lp2563
S':'
asbag67
(g88
g69
NtRp2564
(dp2565
g72
(dp2566
sg81
g2551
sg74
(lp2567
g67
(g68
g69
NtRp2568
(dp2569
g72
(dp2570
g80
I5
ssg81
g2564
sg74
(lp2571
g1965
asbasbasbag67
(g83
g69
NtRp2572
(dp2573
g72
(dp2574
sg81
g77
sg74
(lp2575
g67
(g88
g69
NtRp2576
(dp2577
g72
(dp2578
g92
g93
ssg81
g2572
sg74
(lp2579
S'is_restful'
p2580
asbag67
(g88
g69
NtRp2581
(dp2582
g72
(dp2583
g99
g100
ssg81
g2572
sg74
(lp2584
S':'
asbag67
(g88
g69
NtRp2585
(dp2586
g72
(dp2587
sg81
g2572
sg74
(lp2588
g67
(g68
g69
NtRp2589
(dp2590
g72
(dp2591
g80
I5
ssg81
g2585
sg74
(lp2592
g110
asbasbasbag67
(g83
g69
NtRp2593
(dp2594
g72
(dp2595
sg81
g77
sg74
(lp2596
g67
(g88
g69
NtRp2597
(dp2598
g72
(dp2599
g92
g93
ssg81
g2593
sg74
(lp2600
S'now'
p2601
asbag67
(g88
g69
NtRp2602
(dp2603
g72
(dp2604
g99
g100
ssg81
g2593
sg74
(lp2605
S':'
asbag67
(g88
g69
NtRp2606
(dp2607
g72
(dp2608
sg81
g2593
sg74
(lp2609
g67
(g68
g69
NtRp2610
(dp2611
g72
(dp2612
g80
I5
ssg81
g2606
sg74
(lp2613
S'datetime.datetime(2012, 12, 5, 0, 35, 28, 657691)'
p2614
asbasbasbag67
(g83
g69
NtRp2615
(dp2616
g72
(dp2617
sg81
g77
sg74
(lp2618
g67
(g88
g69
NtRp2619
(dp2620
g72
(dp2621
g92
g93
ssg81
g2615
sg74
(lp2622
S'post_vars'
p2623
asbag67
(g88
g69
NtRp2624
(dp2625
g72
(dp2626
g99
g100
ssg81
g2615
sg74
(lp2627
S':'
asbag67
(g88
g69
NtRp2628
(dp2629
g72
(dp2630
sg81
g2615
sg74
(lp2631
g67
(g68
g69
NtRp2632
(dp2633
g72
(dp2634
g80
I5
ssg81
g2628
sg74
(lp2635
g67
(g76
g69
NtRp2636
(dp2637
g72
(dp2638
g80
I4
ssg81
Nsg74
(lp2639
sbasbasbasbag67
(g83
g69
NtRp2640
(dp2641
g72
(dp2642
sg81
g77
sg74
(lp2643
g67
(g88
g69
NtRp2644
(dp2645
g72
(dp2646
g92
g93
ssg81
g2640
sg74
(lp2647
S'raw_args'
p2648
asbag67
(g88
g69
NtRp2649
(dp2650
g72
(dp2651
g99
g100
ssg81
g2640
sg74
(lp2652
S':'
asbag67
(g88
g69
NtRp2653
(dp2654
g72
(dp2655
sg81
g2640
sg74
(lp2656
g67
(g68
g69
NtRp2657
(dp2658
g72
(dp2659
g80
I5
ssg81
g2653
sg74
(lp2660
S''
asbasbasbag67
(g83
g69
NtRp2661
(dp2662
g72
(dp2663
sg81
g77
sg74
(lp2664
g67
(g88
g69
NtRp2665
(dp2666
g72
(dp2667
g92
g93
ssg81
g2661
sg74
(lp2668
S'raw_extension'
p2669
asbag67
(g88
g69
NtRp2670
(dp2671
g72
(dp2672
g99
g100
ssg81
g2661
sg74
(lp2673
S':'
asbag67
(g88
g69
NtRp2674
(dp2675
g72
(dp2676
sg81
g2661
sg74
(lp2677
g67
(g68
g69
NtRp2678
(dp2679
g72
(dp2680
g80
I5
ssg81
g2674
sg74
(lp2681
S'None'
p2682
asbasbasbag67
(g83
g69
NtRp2683
(dp2684
g72
(dp2685
sg81
g77
sg74
(lp2686
g67
(g88
g69
NtRp2687
(dp2688
g72
(dp2689
g92
g93
ssg81
g2683
sg74
(lp2690
S'url'
p2691
asbag67
(g88
g69
NtRp2692
(dp2693
g72
(dp2694
g99
g100
ssg81
g2683
sg74
(lp2695
S':'
asbag67
(g88
g69
NtRp2696
(dp2697
g72
(dp2698
sg81
g2683
sg74
(lp2699
g67
(g68
g69
NtRp2700
(dp2701
g72
(dp2702
g80
I5
ssg81
g2696
sg74
(lp2703
g1532
asbasbasbag67
(g83
g69
NtRp2704
(dp2705
g72
(dp2706
sg81
g77
sg74
(lp2707
g67
(g88
g69
NtRp2708
(dp2709
g72
(dp2710
g92
g93
ssg81
g2704
sg74
(lp2711
S'utcnow'
p2712
asbag67
(g88
g69
NtRp2713
(dp2714
g72
(dp2715
g99
g100
ssg81
g2704
sg74
(lp2716
S':'
asbag67
(g88
g69
NtRp2717
(dp2718
g72
(dp2719
sg81
g2704
sg74
(lp2720
g67
(g68
g69
NtRp2721
(dp2722
g72
(dp2723
g80
I5
ssg81
g2717
sg74
(lp2724
S'datetime.datetime(2012, 12, 5, 3, 35, 28, 657724)'
p2725
asbasbasbag67
(g83
g69
NtRp2726
(dp2727
g72
(dp2728
sg81
g77
sg74
(lp2729
g67
(g88
g69
NtRp2730
(dp2731
g72
(dp2732
g92
g93
ssg81
g2726
sg74
(lp2733
S'uuid'
p2734
asbag67
(g88
g69
NtRp2735
(dp2736
g72
(dp2737
g99
g100
ssg81
g2726
sg74
(lp2738
S':'
asbag67
(g88
g69
NtRp2739
(dp2740
g72
(dp2741
sg81
g2726
sg74
(lp2742
g67
(g68
g69
NtRp2743
(dp2744
g72
(dp2745
g80
I5
ssg81
g2739
sg74
(lp2746
S'sueldos/127.0.0.1.2012-12-05.00-35-28.373419cf-5d5d-4ad4-be06-c127eece7b74'
p2747
asbasbasbag67
(g83
g69
NtRp2748
(dp2749
g72
(dp2750
sg81
g77
sg74
(lp2751
g67
(g88
g69
NtRp2752
(dp2753
g72
(dp2754
g92
g93
ssg81
g2748
sg74
(lp2755
S'vars'
p2756
asbag67
(g88
g69
NtRp2757
(dp2758
g72
(dp2759
g99
g100
ssg81
g2748
sg74
(lp2760
S':'
asbag67
(g88
g69
NtRp2761
(dp2762
g72
(dp2763
sg81
g2748
sg74
(lp2764
g67
(g68
g69
NtRp2765
(dp2766
g72
(dp2767
g80
I5
ssg81
g2761
sg74
(lp2768
g67
(g76
g69
NtRp2769
(dp2770
g72
(dp2771
g80
I4
ssg81
Nsg74
(lp2772
sbasbasbasbag67
(g83
g69
NtRp2773
(dp2774
g72
(dp2775
sg81
g77
sg74
(lp2776
g67
(g88
g69
NtRp2777
(dp2778
g72
(dp2779
g92
g93
ssg81
g2773
sg74
(lp2780
S'wsgi'
p2781
asbag67
(g88
g69
NtRp2782
(dp2783
g72
(dp2784
g99
g100
ssg81
g2773
sg74
(lp2785
S':'
asbag67
(g88
g69
NtRp2786
(dp2787
g72
(dp2788
sg81
g2773
sg74
(lp2789
g67
(g68
g69
NtRp2790
(dp2791
g72
(dp2792
g80
I5
ssg81
g2786
sg74
(lp2793
g67
(g76
g69
NtRp2794
(dp2795
g72
(dp2796
g80
I4
ssg81
Nsg74
(lp2797
g67
(g83
g69
NtRp2798
(dp2799
g72
(dp2800
sg81
g2794
sg74
(lp2801
g67
(g88
g69
NtRp2802
(dp2803
g72
(dp2804
g92
g93
ssg81
g2798
sg74
(lp2805
S'environ'
p2806
asbag67
(g88
g69
NtRp2807
(dp2808
g72
(dp2809
g99
g100
ssg81
g2798
sg74
(lp2810
S':'
asbag67
(g88
g69
NtRp2811
(dp2812
g72
(dp2813
sg81
g2798
sg74
(lp2814
g67
(g68
g69
NtRp2815
(dp2816
g72
(dp2817
g80
I4
ssg81
g2811
sg74
(lp2818
g67
(g76
g69
NtRp2819
(dp2820
g72
(dp2821
g80
I3
ssg81
Nsg74
(lp2822
g67
(g83
g69
NtRp2823
(dp2824
g72
(dp2825
sg81
g2819
sg74
(lp2826
g67
(g88
g69
NtRp2827
(dp2828
g72
(dp2829
g92
g93
ssg81
g2823
sg74
(lp2830
S'HTTP_ACCEPT'
p2831
asbag67
(g88
g69
NtRp2832
(dp2833
g72
(dp2834
g99
g100
ssg81
g2823
sg74
(lp2835
S':'
asbag67
(g88
g69
NtRp2836
(dp2837
g72
(dp2838
sg81
g2823
sg74
(lp2839
g67
(g68
g69
NtRp2840
(dp2841
g72
(dp2842
g80
I3
ssg81
g2836
sg74
(lp2843
g1224
asbasbasbag67
(g83
g69
NtRp2844
(dp2845
g72
(dp2846
sg81
g2819
sg74
(lp2847
g67
(g88
g69
NtRp2848
(dp2849
g72
(dp2850
g92
g93
ssg81
g2844
sg74
(lp2851
S'HTTP_ACCEPT_ENCODING'
p2852
asbag67
(g88
g69
NtRp2853
(dp2854
g72
(dp2855
g99
g100
ssg81
g2844
sg74
(lp2856
S':'
asbag67
(g88
g69
NtRp2857
(dp2858
g72
(dp2859
sg81
g2844
sg74
(lp2860
g67
(g68
g69
NtRp2861
(dp2862
g72
(dp2863
g80
I3
ssg81
g2857
sg74
(lp2864
g1246
asbasbasbag67
(g83
g69
NtRp2865
(dp2866
g72
(dp2867
sg81
g2819
sg74
(lp2868
g67
(g88
g69
NtRp2869
(dp2870
g72
(dp2871
g92
g93
ssg81
g2865
sg74
(lp2872
S'HTTP_ACCEPT_LANGUAGE'
p2873
asbag67
(g88
g69
NtRp2874
(dp2875
g72
(dp2876
g99
g100
ssg81
g2865
sg74
(lp2877
S':'
asbag67
(g88
g69
NtRp2878
(dp2879
g72
(dp2880
sg81
g2865
sg74
(lp2881
g67
(g68
g69
NtRp2882
(dp2883
g72
(dp2884
g80
I3
ssg81
g2878
sg74
(lp2885
g1268
asbasbasbag67
(g83
g69
NtRp2886
(dp2887
g72
(dp2888
sg81
g2819
sg74
(lp2889
g67
(g88
g69
NtRp2890
(dp2891
g72
(dp2892
g92
g93
ssg81
g2886
sg74
(lp2893
S'HTTP_CACHE_CONTROL'
p2894
asbag67
(g88
g69
NtRp2895
(dp2896
g72
(dp2897
g99
g100
ssg81
g2886
sg74
(lp2898
S':'
asbag67
(g88
g69
NtRp2899
(dp2900
g72
(dp2901
sg81
g2886
sg74
(lp2902
g67
(g68
g69
NtRp2903
(dp2904
g72
(dp2905
g80
I3
ssg81
g2899
sg74
(lp2906
g1290
asbasbasbag67
(g83
g69
NtRp2907
(dp2908
g72
(dp2909
sg81
g2819
sg74
(lp2910
g67
(g88
g69
NtRp2911
(dp2912
g72
(dp2913
g92
g93
ssg81
g2907
sg74
(lp2914
S'HTTP_CONNECTION'
p2915
asbag67
(g88
g69
NtRp2916
(dp2917
g72
(dp2918
g99
g100
ssg81
g2907
sg74
(lp2919
S':'
asbag67
(g88
g69
NtRp2920
(dp2921
g72
(dp2922
sg81
g2907
sg74
(lp2923
g67
(g68
g69
NtRp2924
(dp2925
g72
(dp2926
g80
I3
ssg81
g2920
sg74
(lp2927
g1312
asbasbasbag67
(g83
g69
NtRp2928
(dp2929
g72
(dp2930
sg81
g2819
sg74
(lp2931
g67
(g88
g69
NtRp2932
(dp2933
g72
(dp2934
g92
g93
ssg81
g2928
sg74
(lp2935
S'HTTP_COOKIE'
p2936
asbag67
(g88
g69
NtRp2937
(dp2938
g72
(dp2939
g99
g100
ssg81
g2928
sg74
(lp2940
S':'
asbag67
(g88
g69
NtRp2941
(dp2942
g72
(dp2943
sg81
g2928
sg74
(lp2944
g67
(g68
g69
NtRp2945
(dp2946
g72
(dp2947
g80
I3
ssg81
g2941
sg74
(lp2948
g1334
asbasbasbag67
(g83
g69
NtRp2949
(dp2950
g72
(dp2951
sg81
g2819
sg74
(lp2952
g67
(g88
g69
NtRp2953
(dp2954
g72
(dp2955
g92
g93
ssg81
g2949
sg74
(lp2956
S'HTTP_HOST'
p2957
asbag67
(g88
g69
NtRp2958
(dp2959
g72
(dp2960
g99
g100
ssg81
g2949
sg74
(lp2961
S':'
asbag67
(g88
g69
NtRp2962
(dp2963
g72
(dp2964
sg81
g2949
sg74
(lp2965
g67
(g68
g69
NtRp2966
(dp2967
g72
(dp2968
g80
I3
ssg81
g2962
sg74
(lp2969
g1356
asbasbasbag67
(g83
g69
NtRp2970
(dp2971
g72
(dp2972
sg81
g2819
sg74
(lp2973
g67
(g88
g69
NtRp2974
(dp2975
g72
(dp2976
g92
g93
ssg81
g2970
sg74
(lp2977
S'HTTP_USER_AGENT'
p2978
asbag67
(g88
g69
NtRp2979
(dp2980
g72
(dp2981
g99
g100
ssg81
g2970
sg74
(lp2982
S':'
asbag67
(g88
g69
NtRp2983
(dp2984
g72
(dp2985
sg81
g2970
sg74
(lp2986
g67
(g68
g69
NtRp2987
(dp2988
g72
(dp2989
g80
I3
ssg81
g2983
sg74
(lp2990
g1378
asbasbasbag67
(g83
g69
NtRp2991
(dp2992
g72
(dp2993
sg81
g2819
sg74
(lp2994
g67
(g88
g69
NtRp2995
(dp2996
g72
(dp2997
g92
g93
ssg81
g2991
sg74
(lp2998
S'PATH_INFO'
p2999
asbag67
(g88
g69
NtRp3000
(dp3001
g72
(dp3002
g99
g100
ssg81
g2991
sg74
(lp3003
S':'
asbag67
(g88
g69
NtRp3004
(dp3005
g72
(dp3006
sg81
g2991
sg74
(lp3007
g67
(g68
g69
NtRp3008
(dp3009
g72
(dp3010
g80
I3
ssg81
g3004
sg74
(lp3011
g1532
asbasbasbag67
(g83
g69
NtRp3012
(dp3013
g72
(dp3014
sg81
g2819
sg74
(lp3015
g67
(g88
g69
NtRp3016
(dp3017
g72
(dp3018
g92
g93
ssg81
g3012
sg74
(lp3019
S'QUERY_STRING'
p3020
asbag67
(g88
g69
NtRp3021
(dp3022
g72
(dp3023
g99
g100
ssg81
g3012
sg74
(lp3024
S':'
asbag67
(g88
g69
NtRp3025
(dp3026
g72
(dp3027
sg81
g3012
sg74
(lp3028
g67
(g68
g69
NtRp3029
(dp3030
g72
(dp3031
g80
I3
ssg81
g3025
sg74
(lp3032
S''
asbasbasbag67
(g83
g69
NtRp3033
(dp3034
g72
(dp3035
sg81
g2819
sg74
(lp3036
g67
(g88
g69
NtRp3037
(dp3038
g72
(dp3039
g92
g93
ssg81
g3033
sg74
(lp3040
S'REMOTE_ADDR'
p3041
asbag67
(g88
g69
NtRp3042
(dp3043
g72
(dp3044
g99
g100
ssg81
g3033
sg74
(lp3045
S':'
asbag67
(g88
g69
NtRp3046
(dp3047
g72
(dp3048
sg81
g3033
sg74
(lp3049
g67
(g68
g69
NtRp3050
(dp3051
g72
(dp3052
g80
I3
ssg81
g3046
sg74
(lp3053
g222
asbasbasbag67
(g83
g69
NtRp3054
(dp3055
g72
(dp3056
sg81
g2819
sg74
(lp3057
g67
(g88
g69
NtRp3058
(dp3059
g72
(dp3060
g92
g93
ssg81
g3054
sg74
(lp3061
S'REMOTE_PORT'
p3062
asbag67
(g88
g69
NtRp3063
(dp3064
g72
(dp3065
g99
g100
ssg81
g3054
sg74
(lp3066
S':'
asbag67
(g88
g69
NtRp3067
(dp3068
g72
(dp3069
sg81
g3054
sg74
(lp3070
g67
(g68
g69
NtRp3071
(dp3072
g72
(dp3073
g80
I3
ssg81
g3067
sg74
(lp3074
g1596
asbasbasbag67
(g83
g69
NtRp3075
(dp3076
g72
(dp3077
sg81
g2819
sg74
(lp3078
g67
(g88
g69
NtRp3079
(dp3080
g72
(dp3081
g92
g93
ssg81
g3075
sg74
(lp3082
S'REQUEST_METHOD'
p3083
asbag67
(g88
g69
NtRp3084
(dp3085
g72
(dp3086
g99
g100
ssg81
g3075
sg74
(lp3087
S':'
asbag67
(g88
g69
NtRp3088
(dp3089
g72
(dp3090
sg81
g3075
sg74
(lp3091
g67
(g68
g69
NtRp3092
(dp3093
g72
(dp3094
g80
I3
ssg81
g3088
sg74
(lp3095
g1618
asbasbasbag67
(g83
g69
NtRp3096
(dp3097
g72
(dp3098
sg81
g2819
sg74
(lp3099
g67
(g88
g69
NtRp3100
(dp3101
g72
(dp3102
g92
g93
ssg81
g3096
sg74
(lp3103
S'REQUEST_URI'
p3104
asbag67
(g88
g69
NtRp3105
(dp3106
g72
(dp3107
g99
g100
ssg81
g3096
sg74
(lp3108
S':'
asbag67
(g88
g69
NtRp3109
(dp3110
g72
(dp3111
sg81
g3096
sg74
(lp3112
g67
(g68
g69
NtRp3113
(dp3114
g72
(dp3115
g80
I3
ssg81
g3109
sg74
(lp3116
g1532
asbasbasbag67
(g83
g69
NtRp3117
(dp3118
g72
(dp3119
sg81
g2819
sg74
(lp3120
g67
(g88
g69
NtRp3121
(dp3122
g72
(dp3123
g92
g93
ssg81
g3117
sg74
(lp3124
S'SCRIPT_NAME'
p3125
asbag67
(g88
g69
NtRp3126
(dp3127
g72
(dp3128
g99
g100
ssg81
g3117
sg74
(lp3129
S':'
asbag67
(g88
g69
NtRp3130
(dp3131
g72
(dp3132
sg81
g3117
sg74
(lp3133
g67
(g68
g69
NtRp3134
(dp3135
g72
(dp3136
g80
I3
ssg81
g3130
sg74
(lp3137
S''
asbasbasbag67
(g83
g69
NtRp3138
(dp3139
g72
(dp3140
sg81
g2819
sg74
(lp3141
g67
(g88
g69
NtRp3142
(dp3143
g72
(dp3144
g92
g93
ssg81
g3138
sg74
(lp3145
S'SERVER_NAME'
p3146
asbag67
(g88
g69
NtRp3147
(dp3148
g72
(dp3149
g99
g100
ssg81
g3138
sg74
(lp3150
S':'
asbag67
(g88
g69
NtRp3151
(dp3152
g72
(dp3153
sg81
g3138
sg74
(lp3154
g67
(g68
g69
NtRp3155
(dp3156
g72
(dp3157
g80
I3
ssg81
g3151
sg74
(lp3158
g1682
asbasbasbag67
(g83
g69
NtRp3159
(dp3160
g72
(dp3161
sg81
g2819
sg74
(lp3162
g67
(g88
g69
NtRp3163
(dp3164
g72
(dp3165
g92
g93
ssg81
g3159
sg74
(lp3166
S'SERVER_PORT'
p3167
asbag67
(g88
g69
NtRp3168
(dp3169
g72
(dp3170
g99
g100
ssg81
g3159
sg74
(lp3171
S':'
asbag67
(g88
g69
NtRp3172
(dp3173
g72
(dp3174
sg81
g3159
sg74
(lp3175
g67
(g68
g69
NtRp3176
(dp3177
g72
(dp3178
g80
I3
ssg81
g3172
sg74
(lp3179
g1704
asbasbasbag67
(g83
g69
NtRp3180
(dp3181
g72
(dp3182
sg81
g2819
sg74
(lp3183
g67
(g88
g69
NtRp3184
(dp3185
g72
(dp3186
g92
g93
ssg81
g3180
sg74
(lp3187
S'SERVER_PROTOCOL'
p3188
asbag67
(g88
g69
NtRp3189
(dp3190
g72
(dp3191
g99
g100
ssg81
g3180
sg74
(lp3192
S':'
asbag67
(g88
g69
NtRp3193
(dp3194
g72
(dp3195
sg81
g3180
sg74
(lp3196
g67
(g68
g69
NtRp3197
(dp3198
g72
(dp3199
g80
I3
ssg81
g3193
sg74
(lp3200
g1726
asbasbasbag67
(g83
g69
NtRp3201
(dp3202
g72
(dp3203
sg81
g2819
sg74
(lp3204
g67
(g88
g69
NtRp3205
(dp3206
g72
(dp3207
g92
g93
ssg81
g3201
sg74
(lp3208
S'SERVER_SOFTWARE'
p3209
asbag67
(g88
g69
NtRp3210
(dp3211
g72
(dp3212
g99
g100
ssg81
g3201
sg74
(lp3213
S':'
asbag67
(g88
g69
NtRp3214
(dp3215
g72
(dp3216
sg81
g3201
sg74
(lp3217
g67
(g68
g69
NtRp3218
(dp3219
g72
(dp3220
g80
I3
ssg81
g3214
sg74
(lp3221
g1748
asbasbasbag67
(g83
g69
NtRp3222
(dp3223
g72
(dp3224
sg81
g2819
sg74
(lp3225
g67
(g88
g69
NtRp3226
(dp3227
g72
(dp3228
g92
g93
ssg81
g3222
sg74
(lp3229
S'wsgi.errors'
p3230
asbag67
(g88
g69
NtRp3231
(dp3232
g72
(dp3233
g99
g100
ssg81
g3222
sg74
(lp3234
S':'
asbag67
(g88
g69
NtRp3235
(dp3236
g72
(dp3237
sg81
g3222
sg74
(lp3238
g67
(g68
g69
NtRp3239
(dp3240
g72
(dp3241
g80
I3
ssg81
g3235
sg74
(lp3242
S"<open file '<stderr>', mode 'w' at 0x7f502f169270>"
p3243
asbasbasbag67
(g83
g69
NtRp3244
(dp3245
g72
(dp3246
sg81
g2819
sg74
(lp3247
g67
(g88
g69
NtRp3248
(dp3249
g72
(dp3250
g92
g93
ssg81
g3244
sg74
(lp3251
S'wsgi.file_wrapper'
p3252
asbag67
(g88
g69
NtRp3253
(dp3254
g72
(dp3255
g99
g100
ssg81
g3244
sg74
(lp3256
S':'
asbag67
(g88
g69
NtRp3257
(dp3258
g72
(dp3259
sg81
g3244
sg74
(lp3260
g67
(g68
g69
NtRp3261
(dp3262
g72
(dp3263
g80
I3
ssg81
g3257
sg74
(lp3264
S'<class wsgiref.util.FileWrapper at 0x1e216d0>'
p3265
asbasbasbag67
(g83
g69
NtRp3266
(dp3267
g72
(dp3268
sg81
g2819
sg74
(lp3269
g67
(g88
g69
NtRp3270
(dp3271
g72
(dp3272
g92
g93
ssg81
g3266
sg74
(lp3273
S'wsgi.input'
p3274
asbag67
(g88
g69
NtRp3275
(dp3276
g72
(dp3277
g99
g100
ssg81
g3266
sg74
(lp3278
S':'
asbag67
(g88
g69
NtRp3279
(dp3280
g72
(dp3281
sg81
g3266
sg74
(lp3282
g67
(g68
g69
NtRp3283
(dp3284
g72
(dp3285
g80
I3
ssg81
g3279
sg74
(lp3286
S'<cStringIO.StringO object at 0x2d8a998>'
p3287
asbasbasbag67
(g83
g69
NtRp3288
(dp3289
g72
(dp3290
sg81
g2819
sg74
(lp3291
g67
(g88
g69
NtRp3292
(dp3293
g72
(dp3294
g92
g93
ssg81
g3288
sg74
(lp3295
S'wsgi.multiprocess'
p3296
asbag67
(g88
g69
NtRp3297
(dp3298
g72
(dp3299
g99
g100
ssg81
g3288
sg74
(lp3300
S':'
asbag67
(g88
g69
NtRp3301
(dp3302
g72
(dp3303
sg81
g3288
sg74
(lp3304
g67
(g68
g69
NtRp3305
(dp3306
g72
(dp3307
g80
I3
ssg81
g3301
sg74
(lp3308
g110
asbasbasbag67
(g83
g69
NtRp3309
(dp3310
g72
(dp3311
sg81
g2819
sg74
(lp3312
g67
(g88
g69
NtRp3313
(dp3314
g72
(dp3315
g92
g93
ssg81
g3309
sg74
(lp3316
S'wsgi.multithread'
p3317
asbag67
(g88
g69
NtRp3318
(dp3319
g72
(dp3320
g99
g100
ssg81
g3309
sg74
(lp3321
S':'
asbag67
(g88
g69
NtRp3322
(dp3323
g72
(dp3324
sg81
g3309
sg74
(lp3325
g67
(g68
g69
NtRp3326
(dp3327
g72
(dp3328
g80
I3
ssg81
g3322
sg74
(lp3329
g1965
asbasbasbag67
(g83
g69
NtRp3330
(dp3331
g72
(dp3332
sg81
g2819
sg74
(lp3333
g67
(g88
g69
NtRp3334
(dp3335
g72
(dp3336
g92
g93
ssg81
g3330
sg74
(lp3337
S'wsgi.run_once'
p3338
asbag67
(g88
g69
NtRp3339
(dp3340
g72
(dp3341
g99
g100
ssg81
g3330
sg74
(lp3342
S':'
asbag67
(g88
g69
NtRp3343
(dp3344
g72
(dp3345
sg81
g3330
sg74
(lp3346
g67
(g68
g69
NtRp3347
(dp3348
g72
(dp3349
g80
I3
ssg81
g3343
sg74
(lp3350
g110
asbasbasbag67
(g83
g69
NtRp3351
(dp3352
g72
(dp3353
sg81
g2819
sg74
(lp3354
g67
(g88
g69
NtRp3355
(dp3356
g72
(dp3357
g92
g93
ssg81
g3351
sg74
(lp3358
S'wsgi.url_scheme'
p3359
asbag67
(g88
g69
NtRp3360
(dp3361
g72
(dp3362
g99
g100
ssg81
g3351
sg74
(lp3363
S':'
asbag67
(g88
g69
NtRp3364
(dp3365
g72
(dp3366
sg81
g3351
sg74
(lp3367
g67
(g68
g69
NtRp3368
(dp3369
g72
(dp3370
g80
I3
ssg81
g3364
sg74
(lp3371
g2008
asbasbasbag67
(g83
g69
NtRp3372
(dp3373
g72
(dp3374
sg81
g2819
sg74
(lp3375
g67
(g88
g69
NtRp3376
(dp3377
g72
(dp3378
g92
g93
ssg81
g3372
sg74
(lp3379
S'wsgi.version'
p3380
asbag67
(g88
g69
NtRp3381
(dp3382
g72
(dp3383
g99
g100
ssg81
g3372
sg74
(lp3384
S':'
asbag67
(g88
g69
NtRp3385
(dp3386
g72
(dp3387
sg81
g3372
sg74
(lp3388
g67
(g68
g69
NtRp3389
(dp3390
g72
(dp3391
g80
I3
ssg81
g3385
sg74
(lp3392
S'1'
asbasbasbasbasbasbasbasbasbasbasbasbasbsS'frames'
p3393
(lp3394
(dp3395
S'file'
p3396
S'/home/marco/projects/contabilidad/web2py/gluon/restricted.py'
p3397
sS'dump'
p3398
(dp3399
S'code'
p3400
S'"#-*- coding: utf-8 -*-\\n\\ndb.define_table(\'emplead... \'string\', label=\'Nombre o raz\\xc3\\xb3n social\')\\n    )\\n"'
p3401
sS'layer'
p3402
S"'/home/marco/projects/contabilidad/web2py/applications/sueldos/models/db_empleadores.py'"
p3403
sS'global compile2'
p3404
S'<function compile2>'
p3405
sS'ccode'
p3406
S'undefined'
p3407
ssS'lnum'
p3408
I211
sS'lines'
p3409
(dp3410
I206
S"    environment['__name__'] = '__restricted__'"
p3411
sI207
S'    try:'
p3412
sI208
S'        if isinstance(code, types.CodeType):'
p3413
sI209
S'            ccode = code'
p3414
sI210
S'        else:'
p3415
sI211
S'            ccode = compile2(code, layer)'
p3416
sI212
S'        exec ccode in environment'
p3417
sI213
S'    except HTTP:'
p3418
sI214
S'        raise'
p3419
sI215
S'    except RestrictedError:'
p3420
ssS'call'
p3421
S'(code="#-*- coding: utf-8 -*-\\n\\ndb.define_table(\'emplead... \'string\', label=\'Nombre o raz\\xc3\\xb3n social\')\\n    )\\n", environment={\'A\': <class \'gluon.html.A\'>, \'Auth\': <class \'gluon.tools.Auth\'>, \'B\': <class \'gluon.html.B\'>, \'BEAUTIFY\': <class \'gluon.html.BEAUTIFY\'>, \'BODY\': <class \'gluon.html.BODY\'>, \'BR\': <class \'gluon.html.BR\'>, \'BUTTON\': <class \'gluon.html.BUTTON\'>, \'CAT\': <class \'gluon.html.CAT\'>, \'CENTER\': <class \'gluon.html.CENTER\'>, \'CLEANUP\': <class \'gluon.validators.CLEANUP\'>, ...}, layer=\'/home/marco/projects/contabilidad/web2py/applications/sueldos/models/db_empleadores.py\')'
p3422
sS'func'
p3423
S'restricted'
p3424
sa(dp3425
g3396
S'/home/marco/projects/contabilidad/web2py/gluon/restricted.py'
p3426
sg3398
(dp3427
S'builtincompile'
p3428
S'<built-in function compile>'
p3429
sS'code'
p3430
S'"#-*- coding: utf-8 -*-\\n\\ndb.define_table(\'emplead... \'string\', label=\'Nombre o raz\\xc3\\xb3n social\')\\n    )\\n"'
p3431
sS'code.rstrip'
p3432
S'<built-in method rstrip of str object>'
p3433
sS').replace'
p3434
g3407
sS'layer'
p3435
S"'/home/marco/projects/contabilidad/web2py/applications/sueldos/models/db_empleadores.py'"
p3436
ssg3408
I194
sg3409
(dp3437
I192
S"    The +'\\n' is necessary else compile fails when code ends in a comment."
p3438
sI193
S'    """'
p3439
sI194
S"    return compile(code.rstrip().replace('\\r\\n', '\\n') + '\\n', layer, 'exec')"
p3440
sI195
S''
sI196
S''
sI197
S"def restricted(code, environment=None, layer='Unknown'):"
p3441
sI198
S'    """'
p3442
sI189
S''
sI190
S'def compile2(code, layer):'
p3443
sI191
S'    """'
p3444
ssg3421
S'(code="#-*- coding: utf-8 -*-\\n\\ndb.define_table(\'emplead... \'string\', label=\'Nombre o raz\\xc3\\xb3n social\')\\n    )\\n", layer=\'/home/marco/projects/contabilidad/web2py/applications/sueldos/models/db_empleadores.py\')'
p3445
sg3423
S'compile2'
p3446
sasS'pyver'
p3447
S'Python 2.7.3: /usr/bin/python'
p3448
sS'session'
p3449
g67
(g68
g69
NtRp3450
(dp3451
g72
(dp3452
sg74
(lp3453
g67
(g76
g69
NtRp3454
(dp3455
g72
(dp3456
g80
I5
ssg81
Nsg74
(lp3457
sbasbsS'etype'
p3458
S"<type 'exceptions.SyntaxError'>"
p3459
sS'date'
p3460
S'Wed Dec  5 00:35:29 2012'
p3461
sS'response'
p3462
g67
(g68
g69
NtRp3463
(dp3464
g72
(dp3465
sg74
(lp3466
g67
(g76
g69
NtRp3467
(dp3468
g72
(dp3469
g80
I5
ssg81
Nsg74
(lp3470
g67
(g83
g69
NtRp3471
(dp3472
g72
(dp3473
sg81
g3467
sg74
(lp3474
g67
(g88
g69
NtRp3475
(dp3476
g72
(dp3477
g92
g93
ssg81
g3471
sg74
(lp3478
g165
asbag67
(g88
g69
NtRp3479
(dp3480
g72
(dp3481
g99
g100
ssg81
g3471
sg74
(lp3482
S':'
asbag67
(g88
g69
NtRp3483
(dp3484
g72
(dp3485
sg81
g3471
sg74
(lp3486
g67
(g68
g69
NtRp3487
(dp3488
g72
(dp3489
g80
I5
ssg81
g3483
sg74
(lp3490
S'<cStringIO.StringO object at 0x2379378>'
p3491
asbasbasbag67
(g83
g69
NtRp3492
(dp3493
g72
(dp3494
sg81
g3467
sg74
(lp3495
g67
(g88
g69
NtRp3496
(dp3497
g72
(dp3498
g92
g93
ssg81
g3492
sg74
(lp3499
g253
asbag67
(g88
g69
NtRp3500
(dp3501
g72
(dp3502
g99
g100
ssg81
g3492
sg74
(lp3503
S':'
asbag67
(g88
g69
NtRp3504
(dp3505
g72
(dp3506
sg81
g3492
sg74
(lp3507
g67
(g68
g69
NtRp3508
(dp3509
g72
(dp3510
g80
I5
ssg81
g3504
sg74
(lp3511
g67
(g76
g69
NtRp3512
(dp3513
g72
(dp3514
g80
I4
ssg81
Nsg74
(lp3515
g67
(g83
g69
NtRp3516
(dp3517
g72
(dp3518
sg81
g3512
sg74
(lp3519
g67
(g88
g69
NtRp3520
(dp3521
g72
(dp3522
g92
g93
ssg81
g3516
sg74
(lp3523
S'session_id_sueldos'
p3524
asbag67
(g88
g69
NtRp3525
(dp3526
g72
(dp3527
g99
g100
ssg81
g3516
sg74
(lp3528
S':'
asbag67
(g88
g69
NtRp3529
(dp3530
g72
(dp3531
sg81
g3516
sg74
(lp3532
g67
(g68
g69
NtRp3533
(dp3534
g72
(dp3535
g80
I4
ssg81
g3529
sg74
(lp3536
g485
ag67
(g76
g69
NtRp3537
(dp3538
g72
(dp3539
g80
I3
ssg81
Nsg74
(lp3540
g67
(g83
g69
NtRp3541
(dp3542
g72
(dp3543
sg81
g3537
sg74
(lp3544
g67
(g88
g69
NtRp3545
(dp3546
g72
(dp3547
g92
g93
ssg81
g3541
sg74
(lp3548
g304
asbag67
(g88
g69
NtRp3549
(dp3550
g72
(dp3551
g99
g100
ssg81
g3541
sg74
(lp3552
S':'
asbag67
(g88
g69
NtRp3553
(dp3554
g72
(dp3555
sg81
g3541
sg74
(lp3556
g67
(g68
g69
NtRp3557
(dp3558
g72
(dp3559
g80
I3
ssg81
g3553
sg74
(lp3560
S''
asbasbasbag67
(g83
g69
NtRp3561
(dp3562
g72
(dp3563
sg81
g3537
sg74
(lp3564
g67
(g88
g69
NtRp3565
(dp3566
g72
(dp3567
g92
g93
ssg81
g3561
sg74
(lp3568
g325
asbag67
(g88
g69
NtRp3569
(dp3570
g72
(dp3571
g99
g100
ssg81
g3561
sg74
(lp3572
S':'
asbag67
(g88
g69
NtRp3573
(dp3574
g72
(dp3575
sg81
g3561
sg74
(lp3576
g67
(g68
g69
NtRp3577
(dp3578
g72
(dp3579
g80
I3
ssg81
g3573
sg74
(lp3580
S''
asbasbasbag67
(g83
g69
NtRp3581
(dp3582
g72
(dp3583
sg81
g3537
sg74
(lp3584
g67
(g88
g69
NtRp3585
(dp3586
g72
(dp3587
g92
g93
ssg81
g3581
sg74
(lp3588
g346
asbag67
(g88
g69
NtRp3589
(dp3590
g72
(dp3591
g99
g100
ssg81
g3581
sg74
(lp3592
S':'
asbag67
(g88
g69
NtRp3593
(dp3594
g72
(dp3595
sg81
g3581
sg74
(lp3596
g67
(g68
g69
NtRp3597
(dp3598
g72
(dp3599
g80
I3
ssg81
g3593
sg74
(lp3600
S''
asbasbasbag67
(g83
g69
NtRp3601
(dp3602
g72
(dp3603
sg81
g3537
sg74
(lp3604
g67
(g88
g69
NtRp3605
(dp3606
g72
(dp3607
g92
g93
ssg81
g3601
sg74
(lp3608
g367
asbag67
(g88
g69
NtRp3609
(dp3610
g72
(dp3611
g99
g100
ssg81
g3601
sg74
(lp3612
S':'
asbag67
(g88
g69
NtRp3613
(dp3614
g72
(dp3615
sg81
g3601
sg74
(lp3616
g67
(g68
g69
NtRp3617
(dp3618
g72
(dp3619
g80
I3
ssg81
g3613
sg74
(lp3620
S''
asbasbasbag67
(g83
g69
NtRp3621
(dp3622
g72
(dp3623
sg81
g3537
sg74
(lp3624
g67
(g88
g69
NtRp3625
(dp3626
g72
(dp3627
g92
g93
ssg81
g3621
sg74
(lp3628
g388
asbag67
(g88
g69
NtRp3629
(dp3630
g72
(dp3631
g99
g100
ssg81
g3621
sg74
(lp3632
S':'
asbag67
(g88
g69
NtRp3633
(dp3634
g72
(dp3635
sg81
g3621
sg74
(lp3636
g67
(g68
g69
NtRp3637
(dp3638
g72
(dp3639
g80
I3
ssg81
g3633
sg74
(lp3640
S''
asbasbasbag67
(g83
g69
NtRp3641
(dp3642
g72
(dp3643
sg81
g3537
sg74
(lp3644
g67
(g88
g69
NtRp3645
(dp3646
g72
(dp3647
g92
g93
ssg81
g3641
sg74
(lp3648
g409
asbag67
(g88
g69
NtRp3649
(dp3650
g72
(dp3651
g99
g100
ssg81
g3641
sg74
(lp3652
S':'
asbag67
(g88
g69
NtRp3653
(dp3654
g72
(dp3655
sg81
g3641
sg74
(lp3656
g67
(g68
g69
NtRp3657
(dp3658
g72
(dp3659
g80
I3
ssg81
g3653
sg74
(lp3660
S'/'
asbasbasbag67
(g83
g69
NtRp3661
(dp3662
g72
(dp3663
sg81
g3537
sg74
(lp3664
g67
(g88
g69
NtRp3665
(dp3666
g72
(dp3667
g92
g93
ssg81
g3661
sg74
(lp3668
g430
asbag67
(g88
g69
NtRp3669
(dp3670
g72
(dp3671
g99
g100
ssg81
g3661
sg74
(lp3672
S':'
asbag67
(g88
g69
NtRp3673
(dp3674
g72
(dp3675
sg81
g3661
sg74
(lp3676
g67
(g68
g69
NtRp3677
(dp3678
g72
(dp3679
g80
I3
ssg81
g3673
sg74
(lp3680
S''
asbasbasbag67
(g83
g69
NtRp3681
(dp3682
g72
(dp3683
sg81
g3537
sg74
(lp3684
g67
(g88
g69
NtRp3685
(dp3686
g72
(dp3687
g92
g93
ssg81
g3681
sg74
(lp3688
g451
asbag67
(g88
g69
NtRp3689
(dp3690
g72
(dp3691
g99
g100
ssg81
g3681
sg74
(lp3692
S':'
asbag67
(g88
g69
NtRp3693
(dp3694
g72
(dp3695
sg81
g3681
sg74
(lp3696
g67
(g68
g69
NtRp3697
(dp3698
g72
(dp3699
g80
I3
ssg81
g3693
sg74
(lp3700
S''
asbasbasbasbasbasbasbasbasbasbasbag67
(g83
g69
NtRp3701
(dp3702
g72
(dp3703
sg81
g3467
sg74
(lp3704
g67
(g88
g69
NtRp3705
(dp3706
g72
(dp3707
g92
g93
ssg81
g3701
sg74
(lp3708
S'delimiters'
p3709
asbag67
(g88
g69
NtRp3710
(dp3711
g72
(dp3712
g99
g100
ssg81
g3701
sg74
(lp3713
S':'
asbag67
(g88
g69
NtRp3714
(dp3715
g72
(dp3716
sg81
g3701
sg74
(lp3717
g67
(g68
g69
NtRp3718
(dp3719
g72
(dp3720
g80
I5
ssg81
g3714
sg74
(lp3721
g67
(g76
g69
NtRp3722
(dp3723
g72
(dp3724
g80
I4
ssg81
Nsg74
(lp3725
g67
(g83
g69
NtRp3726
(dp3727
g72
(dp3728
sg81
g3722
sg74
(lp3729
g67
(g88
g69
NtRp3730
(dp3731
g72
(dp3732
sg81
g3726
sg74
(lp3733
g67
(g68
g69
NtRp3734
(dp3735
g72
(dp3736
g80
I4
ssg81
g3730
sg74
(lp3737
S'{{'
p3738
asbasbasbag67
(g83
g69
NtRp3739
(dp3740
g72
(dp3741
sg81
g3722
sg74
(lp3742
g67
(g88
g69
NtRp3743
(dp3744
g72
(dp3745
sg81
g3739
sg74
(lp3746
g67
(g68
g69
NtRp3747
(dp3748
g72
(dp3749
g80
I4
ssg81
g3743
sg74
(lp3750
S'}}'
p3751
asbasbasbasbasbasbasbag67
(g83
g69
NtRp3752
(dp3753
g72
(dp3754
sg81
g3467
sg74
(lp3755
g67
(g88
g69
NtRp3756
(dp3757
g72
(dp3758
g92
g93
ssg81
g3752
sg74
(lp3759
S'files'
p3760
asbag67
(g88
g69
NtRp3761
(dp3762
g72
(dp3763
g99
g100
ssg81
g3752
sg74
(lp3764
S':'
asbag67
(g88
g69
NtRp3765
(dp3766
g72
(dp3767
sg81
g3752
sg74
(lp3768
g67
(g68
g69
NtRp3769
(dp3770
g72
(dp3771
g80
I5
ssg81
g3765
sg74
(lp3772
g67
(g76
g69
NtRp3773
(dp3774
g72
(dp3775
g80
I4
ssg81
Nsg74
(lp3776
sbasbasbasbag67
(g83
g69
NtRp3777
(dp3778
g72
(dp3779
sg81
g3467
sg74
(lp3780
g67
(g88
g69
NtRp3781
(dp3782
g72
(dp3783
g92
g93
ssg81
g3777
sg74
(lp3784
S'flash'
p3785
asbag67
(g88
g69
NtRp3786
(dp3787
g72
(dp3788
g99
g100
ssg81
g3777
sg74
(lp3789
S':'
asbag67
(g88
g69
NtRp3790
(dp3791
g72
(dp3792
sg81
g3777
sg74
(lp3793
g67
(g68
g69
NtRp3794
(dp3795
g72
(dp3796
g80
I5
ssg81
g3790
sg74
(lp3797
S''
asbasbasbag67
(g83
g69
NtRp3798
(dp3799
g72
(dp3800
sg81
g3467
sg74
(lp3801
g67
(g88
g69
NtRp3802
(dp3803
g72
(dp3804
g92
g93
ssg81
g3798
sg74
(lp3805
S'generic_patterns'
p3806
asbag67
(g88
g69
NtRp3807
(dp3808
g72
(dp3809
g99
g100
ssg81
g3798
sg74
(lp3810
S':'
asbag67
(g88
g69
NtRp3811
(dp3812
g72
(dp3813
sg81
g3798
sg74
(lp3814
g67
(g68
g69
NtRp3815
(dp3816
g72
(dp3817
g80
I5
ssg81
g3811
sg74
(lp3818
g67
(g76
g69
NtRp3819
(dp3820
g72
(dp3821
g80
I4
ssg81
Nsg74
(lp3822
g67
(g83
g69
NtRp3823
(dp3824
g72
(dp3825
sg81
g3819
sg74
(lp3826
g67
(g88
g69
NtRp3827
(dp3828
g72
(dp3829
sg81
g3823
sg74
(lp3830
g67
(g68
g69
NtRp3831
(dp3832
g72
(dp3833
g80
I4
ssg81
g3827
sg74
(lp3834
S'*'
asbasbasbasbasbasbasbag67
(g83
g69
NtRp3835
(dp3836
g72
(dp3837
sg81
g3467
sg74
(lp3838
g67
(g88
g69
NtRp3839
(dp3840
g72
(dp3841
g92
g93
ssg81
g3835
sg74
(lp3842
S'headers'
p3843
asbag67
(g88
g69
NtRp3844
(dp3845
g72
(dp3846
g99
g100
ssg81
g3835
sg74
(lp3847
S':'
asbag67
(g88
g69
NtRp3848
(dp3849
g72
(dp3850
sg81
g3835
sg74
(lp3851
g67
(g68
g69
NtRp3852
(dp3853
g72
(dp3854
g80
I5
ssg81
g3848
sg74
(lp3855
g67
(g76
g69
NtRp3856
(dp3857
g72
(dp3858
g80
I4
ssg81
Nsg74
(lp3859
g67
(g83
g69
NtRp3860
(dp3861
g72
(dp3862
sg81
g3856
sg74
(lp3863
g67
(g88
g69
NtRp3864
(dp3865
g72
(dp3866
g92
g93
ssg81
g3860
sg74
(lp3867
S'X-Powered-By'
p3868
asbag67
(g88
g69
NtRp3869
(dp3870
g72
(dp3871
g99
g100
ssg81
g3860
sg74
(lp3872
S':'
asbag67
(g88
g69
NtRp3873
(dp3874
g72
(dp3875
sg81
g3860
sg74
(lp3876
g67
(g68
g69
NtRp3877
(dp3878
g72
(dp3879
g80
I4
ssg81
g3873
sg74
(lp3880
S'web2py'
p3881
asbasbasbasbasbasbasbag67
(g83
g69
NtRp3882
(dp3883
g72
(dp3884
sg81
g3467
sg74
(lp3885
g67
(g88
g69
NtRp3886
(dp3887
g72
(dp3888
g92
g93
ssg81
g3882
sg74
(lp3889
S'menu'
p3890
asbag67
(g88
g69
NtRp3891
(dp3892
g72
(dp3893
g99
g100
ssg81
g3882
sg74
(lp3894
S':'
asbag67
(g88
g69
NtRp3895
(dp3896
g72
(dp3897
sg81
g3882
sg74
(lp3898
g67
(g68
g69
NtRp3899
(dp3900
g72
(dp3901
g80
I5
ssg81
g3895
sg74
(lp3902
g67
(g76
g69
NtRp3903
(dp3904
g72
(dp3905
g80
I4
ssg81
Nsg74
(lp3906
sbasbasbasbag67
(g83
g69
NtRp3907
(dp3908
g72
(dp3909
sg81
g3467
sg74
(lp3910
g67
(g88
g69
NtRp3911
(dp3912
g72
(dp3913
g92
g93
ssg81
g3907
sg74
(lp3914
S'meta'
p3915
asbag67
(g88
g69
NtRp3916
(dp3917
g72
(dp3918
g99
g100
ssg81
g3907
sg74
(lp3919
S':'
asbag67
(g88
g69
NtRp3920
(dp3921
g72
(dp3922
sg81
g3907
sg74
(lp3923
g67
(g68
g69
NtRp3924
(dp3925
g72
(dp3926
g80
I5
ssg81
g3920
sg74
(lp3927
g67
(g76
g69
NtRp3928
(dp3929
g72
(dp3930
g80
I4
ssg81
Nsg74
(lp3931
sbasbasbasbag67
(g83
g69
NtRp3932
(dp3933
g72
(dp3934
sg81
g3467
sg74
(lp3935
g67
(g88
g69
NtRp3936
(dp3937
g72
(dp3938
g92
g93
ssg81
g3932
sg74
(lp3939
S'models_to_run'
p3940
asbag67
(g88
g69
NtRp3941
(dp3942
g72
(dp3943
g99
g100
ssg81
g3932
sg74
(lp3944
S':'
asbag67
(g88
g69
NtRp3945
(dp3946
g72
(dp3947
sg81
g3932
sg74
(lp3948
g67
(g68
g69
NtRp3949
(dp3950
g72
(dp3951
g80
I5
ssg81
g3945
sg74
(lp3952
g67
(g76
g69
NtRp3953
(dp3954
g72
(dp3955
g80
I4
ssg81
Nsg74
(lp3956
g67
(g83
g69
NtRp3957
(dp3958
g72
(dp3959
sg81
g3953
sg74
(lp3960
g67
(g88
g69
NtRp3961
(dp3962
g72
(dp3963
sg81
g3957
sg74
(lp3964
g67
(g68
g69
NtRp3965
(dp3966
g72
(dp3967
g80
I4
ssg81
g3961
sg74
(lp3968
S'^\\w+\\.py$'
p3969
asbasbasbag67
(g83
g69
NtRp3970
(dp3971
g72
(dp3972
sg81
g3953
sg74
(lp3973
g67
(g88
g69
NtRp3974
(dp3975
g72
(dp3976
sg81
g3970
sg74
(lp3977
g67
(g68
g69
NtRp3978
(dp3979
g72
(dp3980
g80
I4
ssg81
g3974
sg74
(lp3981
S'^default/\\w+\\.py$'
p3982
asbasbasbag67
(g83
g69
NtRp3983
(dp3984
g72
(dp3985
sg81
g3953
sg74
(lp3986
g67
(g88
g69
NtRp3987
(dp3988
g72
(dp3989
sg81
g3983
sg74
(lp3990
g67
(g68
g69
NtRp3991
(dp3992
g72
(dp3993
g80
I4
ssg81
g3987
sg74
(lp3994
S'^default/index/\\w+\\.py$'
p3995
asbasbasbasbasbasbasbag67
(g83
g69
NtRp3996
(dp3997
g72
(dp3998
sg81
g3467
sg74
(lp3999
g67
(g88
g69
NtRp4000
(dp4001
g72
(dp4002
g92
g93
ssg81
g3996
sg74
(lp4003
S'postprocessing'
p4004
asbag67
(g88
g69
NtRp4005
(dp4006
g72
(dp4007
g99
g100
ssg81
g3996
sg74
(lp4008
S':'
asbag67
(g88
g69
NtRp4009
(dp4010
g72
(dp4011
sg81
g3996
sg74
(lp4012
g67
(g68
g69
NtRp4013
(dp4014
g72
(dp4015
g80
I5
ssg81
g4009
sg74
(lp4016
g67
(g76
g69
NtRp4017
(dp4018
g72
(dp4019
g80
I4
ssg81
Nsg74
(lp4020
sbasbasbasbag67
(g83
g69
NtRp4021
(dp4022
g72
(dp4023
sg81
g3467
sg74
(lp4024
g67
(g88
g69
NtRp4025
(dp4026
g72
(dp4027
g92
g93
ssg81
g4021
sg74
(lp4028
S'session_cookie_expires'
p4029
asbag67
(g88
g69
NtRp4030
(dp4031
g72
(dp4032
g99
g100
ssg81
g4021
sg74
(lp4033
S':'
asbag67
(g88
g69
NtRp4034
(dp4035
g72
(dp4036
sg81
g4021
sg74
(lp4037
g67
(g68
g69
NtRp4038
(dp4039
g72
(dp4040
g80
I5
ssg81
g4034
sg74
(lp4041
S'None'
p4042
asbasbasbag67
(g83
g69
NtRp4043
(dp4044
g72
(dp4045
sg81
g3467
sg74
(lp4046
g67
(g88
g69
NtRp4047
(dp4048
g72
(dp4049
g92
g93
ssg81
g4043
sg74
(lp4050
S'session_data_name'
p4051
asbag67
(g88
g69
NtRp4052
(dp4053
g72
(dp4054
g99
g100
ssg81
g4043
sg74
(lp4055
S':'
asbag67
(g88
g69
NtRp4056
(dp4057
g72
(dp4058
sg81
g4043
sg74
(lp4059
g67
(g68
g69
NtRp4060
(dp4061
g72
(dp4062
g80
I5
ssg81
g4056
sg74
(lp4063
S'session_data_sueldos'
p4064
asbasbasbag67
(g83
g69
NtRp4065
(dp4066
g72
(dp4067
sg81
g3467
sg74
(lp4068
g67
(g88
g69
NtRp4069
(dp4070
g72
(dp4071
g92
g93
ssg81
g4065
sg74
(lp4072
S'session_file'
p4073
asbag67
(g88
g69
NtRp4074
(dp4075
g72
(dp4076
g99
g100
ssg81
g4065
sg74
(lp4077
S':'
asbag67
(g88
g69
NtRp4078
(dp4079
g72
(dp4080
sg81
g4065
sg74
(lp4081
g67
(g68
g69
NtRp4082
(dp4083
g72
(dp4084
g80
I5
ssg81
g4078
sg74
(lp4085
S'None'
p4086
asbasbasbag67
(g83
g69
NtRp4087
(dp4088
g72
(dp4089
sg81
g3467
sg74
(lp4090
g67
(g88
g69
NtRp4091
(dp4092
g72
(dp4093
g92
g93
ssg81
g4087
sg74
(lp4094
S'session_filename'
p4095
asbag67
(g88
g69
NtRp4096
(dp4097
g72
(dp4098
g99
g100
ssg81
g4087
sg74
(lp4099
S':'
asbag67
(g88
g69
NtRp4100
(dp4101
g72
(dp4102
sg81
g4087
sg74
(lp4103
g67
(g68
g69
NtRp4104
(dp4105
g72
(dp4106
g80
I5
ssg81
g4100
sg74
(lp4107
S'/home/marco/projects/contabilidad/web2py/applications/sueldos/sessions/127.0.0.1-a5687236-8904-4441-8b84-1ccb37d1cbb4'
p4108
asbasbasbag67
(g83
g69
NtRp4109
(dp4110
g72
(dp4111
sg81
g3467
sg74
(lp4112
g67
(g88
g69
NtRp4113
(dp4114
g72
(dp4115
g92
g93
ssg81
g4109
sg74
(lp4116
S'session_id'
p4117
asbag67
(g88
g69
NtRp4118
(dp4119
g72
(dp4120
g99
g100
ssg81
g4109
sg74
(lp4121
S':'
asbag67
(g88
g69
NtRp4122
(dp4123
g72
(dp4124
sg81
g4109
sg74
(lp4125
g67
(g68
g69
NtRp4126
(dp4127
g72
(dp4128
g80
I5
ssg81
g4122
sg74
(lp4129
g485
asbasbasbag67
(g83
g69
NtRp4130
(dp4131
g72
(dp4132
sg81
g3467
sg74
(lp4133
g67
(g88
g69
NtRp4134
(dp4135
g72
(dp4136
g92
g93
ssg81
g4130
sg74
(lp4137
S'session_id_name'
p4138
asbag67
(g88
g69
NtRp4139
(dp4140
g72
(dp4141
g99
g100
ssg81
g4130
sg74
(lp4142
S':'
asbag67
(g88
g69
NtRp4143
(dp4144
g72
(dp4145
sg81
g4130
sg74
(lp4146
g67
(g68
g69
NtRp4147
(dp4148
g72
(dp4149
g80
I5
ssg81
g4143
sg74
(lp4150
g3524
asbasbasbag67
(g83
g69
NtRp4151
(dp4152
g72
(dp4153
sg81
g3467
sg74
(lp4154
g67
(g88
g69
NtRp4155
(dp4156
g72
(dp4157
g92
g93
ssg81
g4151
sg74
(lp4158
S'session_new'
p4159
asbag67
(g88
g69
NtRp4160
(dp4161
g72
(dp4162
g99
g100
ssg81
g4151
sg74
(lp4163
S':'
asbag67
(g88
g69
NtRp4164
(dp4165
g72
(dp4166
sg81
g4151
sg74
(lp4167
g67
(g68
g69
NtRp4168
(dp4169
g72
(dp4170
g80
I5
ssg81
g4164
sg74
(lp4171
g110
asbasbasbag67
(g83
g69
NtRp4172
(dp4173
g72
(dp4174
sg81
g3467
sg74
(lp4175
g67
(g88
g69
NtRp4176
(dp4177
g72
(dp4178
g92
g93
ssg81
g4172
sg74
(lp4179
S'session_storage_type'
p4180
asbag67
(g88
g69
NtRp4181
(dp4182
g72
(dp4183
g99
g100
ssg81
g4172
sg74
(lp4184
S':'
asbag67
(g88
g69
NtRp4185
(dp4186
g72
(dp4187
sg81
g4172
sg74
(lp4188
g67
(g68
g69
NtRp4189
(dp4190
g72
(dp4191
g80
I5
ssg81
g4185
sg74
(lp4192
g3396
asbasbasbag67
(g83
g69
NtRp4193
(dp4194
g72
(dp4195
sg81
g3467
sg74
(lp4196
g67
(g88
g69
NtRp4197
(dp4198
g72
(dp4199
g92
g93
ssg81
g4193
sg74
(lp4200
S'status'
p4201
asbag67
(g88
g69
NtRp4202
(dp4203
g72
(dp4204
g99
g100
ssg81
g4193
sg74
(lp4205
S':'
asbag67
(g88
g69
NtRp4206
(dp4207
g72
(dp4208
sg81
g4193
sg74
(lp4209
g67
(g68
g69
NtRp4210
(dp4211
g72
(dp4212
g80
I5
ssg81
g4206
sg74
(lp4213
S'200'
p4214
asbasbasbag67
(g83
g69
NtRp4215
(dp4216
g72
(dp4217
sg81
g3467
sg74
(lp4218
g67
(g88
g69
NtRp4219
(dp4220
g72
(dp4221
g92
g93
ssg81
g4215
sg74
(lp4222
S'view'
p4223
asbag67
(g88
g69
NtRp4224
(dp4225
g72
(dp4226
g99
g100
ssg81
g4215
sg74
(lp4227
S':'
asbag67
(g88
g69
NtRp4228
(dp4229
g72
(dp4230
sg81
g4215
sg74
(lp4231
g67
(g68
g69
NtRp4232
(dp4233
g72
(dp4234
g80
I5
ssg81
g4228
sg74
(lp4235
S'default/index.html'
p4236
asbasbasbasbasbsS'locals'
p4237
(dp4238
g4
S"'/home/marco/projects/contabilidad/web2py/applications/sueldos/models/db_empleadores.py'"
p4239
sg6
S'"#-*- coding: utf-8 -*-\\n\\ndb.define_table(\'emplead... \'string\', label=\'Nombre o raz\\xc3\\xb3n social\')\\n    )\\n"'
p4240
sssS'traceback'
p4241
S'Traceback (most recent call last):\n  File "/home/marco/projects/contabilidad/web2py/gluon/restricted.py", line 211, in restricted\n    ccode = compile2(code, layer)\n  File "/home/marco/projects/contabilidad/web2py/gluon/restricted.py", line 194, in compile2\n    return compile(code.rstrip().replace(\'\\r\\n\', \'\\n\') + \'\\n\', layer, \'exec\')\n  File "/home/marco/projects/contabilidad/web2py/applications/sueldos/models/db_empleadores.py", line 4\n    Field(\'nombre\', \'string\', label=\'Nombre o raz\xc3\xb3n social\')\n        ^\nSyntaxError: invalid syntax\n'
p4242
s.