(dp1
S'output'
p2
S"<type 'exceptions.SyntaxError'> invalid syntax (default.py, line 32)"
p3
sS'layer'
p4
S'/home/marco/projects/contabilidad/web2py/applications/sueldos/controllers/default.py'
p5
sS'code'
p6
S'# -*- coding: utf-8 -*-\n# this file is released under public domain and you can use without limitations\n\n#########################################################################\n## This is a samples controller\n## - index is the default action of any application\n## - user is required for authentication and authorization\n## - download is for downloading files uploaded in the db (does streaming)\n## - call exposes all registered services (none by default)\n#########################################################################\n\n\ndef index():\n    """\n    example action using the internationalization operator T and flash\n    rendered by views/default/index.html or views/generic.html\n\n    if you need a simple wiki simple replace the two lines below with:\n    return auth.wiki()\n    """\n    response.flash = T("Sistema listo y funcional!")\n    return dict()       \n\ndef clientes():\n    form=SQLFORM(db.notas)\n    if form.process().accepted:\n        redirect(URL(\'default\',\'clientes\'))\n        response.flash=\'Su nota ha sido agendada\'\n    elif form.errors:\n        response.flash=\'Por favor revise el formulario\'\n    \n    anotaciones=db(db.notas.id>0).select(orderby~=db.notas.fecha)\n    return dict(nota=form, anotaciones=anotaciones)\n\n\ndef user():\n    """\n    exposes:\n    http://..../[app]/default/user/login\n    http://..../[app]/default/user/logout\n    http://..../[app]/default/user/register\n    http://..../[app]/default/user/profile\n    http://..../[app]/default/user/retrieve_password\n    http://..../[app]/default/user/change_password\n    use @auth.requires_login()\n        @auth.requires_membership(\'group name\')\n        @auth.requires_permission(\'read\',\'table name\',record_id)\n    to decorate functions that need access control\n    """\n    return dict(form=auth())\n\n\ndef download():\n    """\n    allows downloading of uploaded files\n    http://..../[app]/default/download/[filename]\n    """\n    return response.download(request, db)\n\n\ndef call():\n    """\n    exposes services. for example:\n    http://..../[app]/default/call/jsonrpc\n    decorate with @services.jsonrpc the functions to expose\n    supports xml, json, xmlrpc, jsonrpc, amfrpc, rss, csv\n    """\n    return service()\n\n\n@auth.requires_signature()\ndef data():\n    """\n    http://..../[app]/default/data/tables\n    http://..../[app]/default/data/create/[table]\n    http://..../[app]/default/data/read/[table]/[id]\n    http://..../[app]/default/data/update/[table]/[id]\n    http://..../[app]/default/data/delete/[table]/[id]\n    http://..../[app]/default/data/select/[table]\n    http://..../[app]/default/data/search/[table]\n    but URLs must be signed, i.e. linked with\n      A(\'table\',_href=URL(\'data/tables\',user_signature=True))\n    or with the signed load operator\n      LOAD(\'default\',\'data.load\',args=\'tables\',ajax=True,user_signature=True)\n    """\n    return dict(form=crud())\n\nresponse._vars=response._caller(clientes)\n'
p7
sS'snapshot'
p8
(dp9
S'exception'
p10
(dp11
S'__getslice__'
p12
S"<method-wrapper '__getslice__' of exceptions.SyntaxError object>"
p13
sS'text'
p14
S"'    anotaciones=db(db.notas.id>0).select(orderby~=db.notas.fecha)\\n'"
p15
sS'__str__'
p16
S"<method-wrapper '__str__' of exceptions.SyntaxError object>"
p17
sS'__reduce__'
p18
S'<built-in method __reduce__ of exceptions.SyntaxError object>'
p19
sS'__dict__'
p20
S'{}'
p21
sS'__sizeof__'
p22
S'<built-in method __sizeof__ of exceptions.SyntaxError object>'
p23
sS'__init__'
p24
S"<method-wrapper '__init__' of exceptions.SyntaxError object>"
p25
sS'__setattr__'
p26
S"<method-wrapper '__setattr__' of exceptions.SyntaxError object>"
p27
sS'__reduce_ex__'
p28
S'<built-in method __reduce_ex__ of exceptions.SyntaxError object>'
p29
sS'__new__'
p30
S'<built-in method __new__ of type object>'
p31
sS'__format__'
p32
S'<built-in method __format__ of exceptions.SyntaxError object>'
p33
sS'__class__'
p34
S"<type 'exceptions.SyntaxError'>"
p35
sS'filename'
p36
S"'/home/marco/projects/contabilidad/web2py/applications/sueldos/controllers/default.py'"
p37
sS'lineno'
p38
S'32'
p39
sS'msg'
p40
S"'invalid syntax'"
p41
sS'__doc__'
p42
S"'Invalid syntax.'"
p43
sS'__getitem__'
p44
S"<method-wrapper '__getitem__' of exceptions.SyntaxError object>"
p45
sS'__setstate__'
p46
S'<built-in method __setstate__ of exceptions.SyntaxError object>'
p47
sS'__getattribute__'
p48
S"<method-wrapper '__getattribute__' of exceptions.SyntaxError object>"
p49
sS'print_file_and_line'
p50
S'None'
p51
sS'args'
p52
S"('invalid syntax', ('/home/marco/projects/contabilidad/web2py/applications/sueldos/controllers/default.py', 32, 49, '    anotaciones=db(db.notas.id>0).select(orderby~=db.notas.fecha)\\n'))"
p53
sS'__subclasshook__'
p54
S'<built-in method __subclasshook__ of type object>'
p55
sS'offset'
p56
S'49'
p57
sS'__unicode__'
p58
S'<built-in method __unicode__ of exceptions.SyntaxError object>'
p59
sS'__delattr__'
p60
S"<method-wrapper '__delattr__' of exceptions.SyntaxError object>"
p61
sS'__repr__'
p62
S"<method-wrapper '__repr__' of exceptions.SyntaxError object>"
p63
sS'__hash__'
p64
S"<method-wrapper '__hash__' of exceptions.SyntaxError object>"
p65
ssS'evalue'
p66
S'invalid syntax (default.py, line 32)'
p67
sS'request'
p68
ccopy_reg
_reconstructor
p69
(cgluon.html
BEAUTIFY
p70
c__builtin__
object
p71
NtRp72
(dp73
S'attributes'
p74
(dp75
sS'components'
p76
(lp77
g69
(cgluon.html
TABLE
p78
g71
NtRp79
(dp80
g74
(dp81
S'level'
p82
I5
ssS'parent'
p83
Nsg76
(lp84
g69
(cgluon.html
TR
p85
g71
NtRp86
(dp87
g74
(dp88
sg83
g79
sg76
(lp89
g69
(cgluon.html
TD
p90
g71
NtRp91
(dp92
g74
(dp93
S'_style'
p94
S'font-weight:bold;vertical-align:top'
p95
ssg83
g86
sg76
(lp96
S'ajax'
p97
asbag69
(g90
g71
NtRp98
(dp99
g74
(dp100
S'_valign'
p101
S'top'
p102
ssg83
g86
sg76
(lp103
S':'
asbag69
(g90
g71
NtRp104
(dp105
g74
(dp106
sg83
g86
sg76
(lp107
g69
(g70
g71
NtRp108
(dp109
g74
(dp110
g82
I5
ssg83
g104
sg76
(lp111
S'False'
p112
asbasbasbag69
(g85
g71
NtRp113
(dp114
g74
(dp115
sg83
g79
sg76
(lp116
g69
(g90
g71
NtRp117
(dp118
g74
(dp119
g94
g95
ssg83
g113
sg76
(lp120
S'application'
p121
asbag69
(g90
g71
NtRp122
(dp123
g74
(dp124
g101
g102
ssg83
g113
sg76
(lp125
S':'
asbag69
(g90
g71
NtRp126
(dp127
g74
(dp128
sg83
g113
sg76
(lp129
g69
(g70
g71
NtRp130
(dp131
g74
(dp132
g82
I5
ssg83
g126
sg76
(lp133
S'sueldos'
p134
asbasbasbag69
(g85
g71
NtRp135
(dp136
g74
(dp137
sg83
g79
sg76
(lp138
g69
(g90
g71
NtRp139
(dp140
g74
(dp141
g94
g95
ssg83
g135
sg76
(lp142
g52
asbag69
(g90
g71
NtRp143
(dp144
g74
(dp145
g101
g102
ssg83
g135
sg76
(lp146
S':'
asbag69
(g90
g71
NtRp147
(dp148
g74
(dp149
sg83
g135
sg76
(lp150
g69
(g70
g71
NtRp151
(dp152
g74
(dp153
g82
I5
ssg83
g147
sg76
(lp154
g69
(g78
g71
NtRp155
(dp156
g74
(dp157
g82
I4
ssg83
Nsg76
(lp158
sbasbasbasbag69
(g85
g71
NtRp159
(dp160
g74
(dp161
sg83
g79
sg76
(lp162
g69
(g90
g71
NtRp163
(dp164
g74
(dp165
g94
g95
ssg83
g159
sg76
(lp166
S'body'
p167
asbag69
(g90
g71
NtRp168
(dp169
g74
(dp170
g101
g102
ssg83
g159
sg76
(lp171
S':'
asbag69
(g90
g71
NtRp172
(dp173
g74
(dp174
sg83
g159
sg76
(lp175
g69
(g70
g71
NtRp176
(dp177
g74
(dp178
g82
I5
ssg83
g172
sg76
(lp179
S'<cStringIO.StringO object at 0x2ea4068>'
p180
asbasbasbag69
(g85
g71
NtRp181
(dp182
g74
(dp183
sg83
g79
sg76
(lp184
g69
(g90
g71
NtRp185
(dp186
g74
(dp187
g94
g95
ssg83
g181
sg76
(lp188
S'cid'
p189
asbag69
(g90
g71
NtRp190
(dp191
g74
(dp192
g101
g102
ssg83
g181
sg76
(lp193
S':'
asbag69
(g90
g71
NtRp194
(dp195
g74
(dp196
sg83
g181
sg76
(lp197
g69
(g70
g71
NtRp198
(dp199
g74
(dp200
g82
I5
ssg83
g194
sg76
(lp201
S'None'
p202
asbasbasbag69
(g85
g71
NtRp203
(dp204
g74
(dp205
sg83
g79
sg76
(lp206
g69
(g90
g71
NtRp207
(dp208
g74
(dp209
g94
g95
ssg83
g203
sg76
(lp210
S'client'
p211
asbag69
(g90
g71
NtRp212
(dp213
g74
(dp214
g101
g102
ssg83
g203
sg76
(lp215
S':'
asbag69
(g90
g71
NtRp216
(dp217
g74
(dp218
sg83
g203
sg76
(lp219
g69
(g70
g71
NtRp220
(dp221
g74
(dp222
g82
I5
ssg83
g216
sg76
(lp223
S'127.0.0.1'
p224
asbasbasbag69
(g85
g71
NtRp225
(dp226
g74
(dp227
sg83
g79
sg76
(lp228
g69
(g90
g71
NtRp229
(dp230
g74
(dp231
g94
g95
ssg83
g225
sg76
(lp232
S'controller'
p233
asbag69
(g90
g71
NtRp234
(dp235
g74
(dp236
g101
g102
ssg83
g225
sg76
(lp237
S':'
asbag69
(g90
g71
NtRp238
(dp239
g74
(dp240
sg83
g225
sg76
(lp241
g69
(g70
g71
NtRp242
(dp243
g74
(dp244
g82
I5
ssg83
g238
sg76
(lp245
S'default'
p246
asbasbasbag69
(g85
g71
NtRp247
(dp248
g74
(dp249
sg83
g79
sg76
(lp250
g69
(g90
g71
NtRp251
(dp252
g74
(dp253
g94
g95
ssg83
g247
sg76
(lp254
S'cookies'
p255
asbag69
(g90
g71
NtRp256
(dp257
g74
(dp258
g101
g102
ssg83
g247
sg76
(lp259
S':'
asbag69
(g90
g71
NtRp260
(dp261
g74
(dp262
sg83
g247
sg76
(lp263
g69
(g70
g71
NtRp264
(dp265
g74
(dp266
g82
I5
ssg83
g260
sg76
(lp267
g69
(g78
g71
NtRp268
(dp269
g74
(dp270
g82
I4
ssg83
Nsg76
(lp271
g69
(g85
g71
NtRp272
(dp273
g74
(dp274
sg83
g268
sg76
(lp275
g69
(g90
g71
NtRp276
(dp277
g74
(dp278
g94
g95
ssg83
g272
sg76
(lp279
S'session_id_admin'
p280
asbag69
(g90
g71
NtRp281
(dp282
g74
(dp283
g101
g102
ssg83
g272
sg76
(lp284
S':'
asbag69
(g90
g71
NtRp285
(dp286
g74
(dp287
sg83
g272
sg76
(lp288
g69
(g70
g71
NtRp289
(dp290
g74
(dp291
g82
I4
ssg83
g285
sg76
(lp292
S'127.0.0.1-24af4e14-6d96-45d7-9010-207206732bb5'
p293
ag69
(g78
g71
NtRp294
(dp295
g74
(dp296
g82
I3
ssg83
Nsg76
(lp297
g69
(g85
g71
NtRp298
(dp299
g74
(dp300
sg83
g294
sg76
(lp301
g69
(g90
g71
NtRp302
(dp303
g74
(dp304
g94
g95
ssg83
g298
sg76
(lp305
S'comment'
p306
asbag69
(g90
g71
NtRp307
(dp308
g74
(dp309
g101
g102
ssg83
g298
sg76
(lp310
S':'
asbag69
(g90
g71
NtRp311
(dp312
g74
(dp313
sg83
g298
sg76
(lp314
g69
(g70
g71
NtRp315
(dp316
g74
(dp317
g82
I3
ssg83
g311
sg76
(lp318
S''
asbasbasbag69
(g85
g71
NtRp319
(dp320
g74
(dp321
sg83
g294
sg76
(lp322
g69
(g90
g71
NtRp323
(dp324
g74
(dp325
g94
g95
ssg83
g319
sg76
(lp326
S'domain'
p327
asbag69
(g90
g71
NtRp328
(dp329
g74
(dp330
g101
g102
ssg83
g319
sg76
(lp331
S':'
asbag69
(g90
g71
NtRp332
(dp333
g74
(dp334
sg83
g319
sg76
(lp335
g69
(g70
g71
NtRp336
(dp337
g74
(dp338
g82
I3
ssg83
g332
sg76
(lp339
S''
asbasbasbag69
(g85
g71
NtRp340
(dp341
g74
(dp342
sg83
g294
sg76
(lp343
g69
(g90
g71
NtRp344
(dp345
g74
(dp346
g94
g95
ssg83
g340
sg76
(lp347
S'expires'
p348
asbag69
(g90
g71
NtRp349
(dp350
g74
(dp351
g101
g102
ssg83
g340
sg76
(lp352
S':'
asbag69
(g90
g71
NtRp353
(dp354
g74
(dp355
sg83
g340
sg76
(lp356
g69
(g70
g71
NtRp357
(dp358
g74
(dp359
g82
I3
ssg83
g353
sg76
(lp360
S''
asbasbasbag69
(g85
g71
NtRp361
(dp362
g74
(dp363
sg83
g294
sg76
(lp364
g69
(g90
g71
NtRp365
(dp366
g74
(dp367
g94
g95
ssg83
g361
sg76
(lp368
S'httponly'
p369
asbag69
(g90
g71
NtRp370
(dp371
g74
(dp372
g101
g102
ssg83
g361
sg76
(lp373
S':'
asbag69
(g90
g71
NtRp374
(dp375
g74
(dp376
sg83
g361
sg76
(lp377
g69
(g70
g71
NtRp378
(dp379
g74
(dp380
g82
I3
ssg83
g374
sg76
(lp381
S''
asbasbasbag69
(g85
g71
NtRp382
(dp383
g74
(dp384
sg83
g294
sg76
(lp385
g69
(g90
g71
NtRp386
(dp387
g74
(dp388
g94
g95
ssg83
g382
sg76
(lp389
S'max-age'
p390
asbag69
(g90
g71
NtRp391
(dp392
g74
(dp393
g101
g102
ssg83
g382
sg76
(lp394
S':'
asbag69
(g90
g71
NtRp395
(dp396
g74
(dp397
sg83
g382
sg76
(lp398
g69
(g70
g71
NtRp399
(dp400
g74
(dp401
g82
I3
ssg83
g395
sg76
(lp402
S''
asbasbasbag69
(g85
g71
NtRp403
(dp404
g74
(dp405
sg83
g294
sg76
(lp406
g69
(g90
g71
NtRp407
(dp408
g74
(dp409
g94
g95
ssg83
g403
sg76
(lp410
S'path'
p411
asbag69
(g90
g71
NtRp412
(dp413
g74
(dp414
g101
g102
ssg83
g403
sg76
(lp415
S':'
asbag69
(g90
g71
NtRp416
(dp417
g74
(dp418
sg83
g403
sg76
(lp419
g69
(g70
g71
NtRp420
(dp421
g74
(dp422
g82
I3
ssg83
g416
sg76
(lp423
S''
asbasbasbag69
(g85
g71
NtRp424
(dp425
g74
(dp426
sg83
g294
sg76
(lp427
g69
(g90
g71
NtRp428
(dp429
g74
(dp430
g94
g95
ssg83
g424
sg76
(lp431
S'secure'
p432
asbag69
(g90
g71
NtRp433
(dp434
g74
(dp435
g101
g102
ssg83
g424
sg76
(lp436
S':'
asbag69
(g90
g71
NtRp437
(dp438
g74
(dp439
sg83
g424
sg76
(lp440
g69
(g70
g71
NtRp441
(dp442
g74
(dp443
g82
I3
ssg83
g437
sg76
(lp444
S''
asbasbasbag69
(g85
g71
NtRp445
(dp446
g74
(dp447
sg83
g294
sg76
(lp448
g69
(g90
g71
NtRp449
(dp450
g74
(dp451
g94
g95
ssg83
g445
sg76
(lp452
S'version'
p453
asbag69
(g90
g71
NtRp454
(dp455
g74
(dp456
g101
g102
ssg83
g445
sg76
(lp457
S':'
asbag69
(g90
g71
NtRp458
(dp459
g74
(dp460
sg83
g445
sg76
(lp461
g69
(g70
g71
NtRp462
(dp463
g74
(dp464
g82
I3
ssg83
g458
sg76
(lp465
S''
asbasbasbasbasbasbasbag69
(g85
g71
NtRp466
(dp467
g74
(dp468
sg83
g268
sg76
(lp469
g69
(g90
g71
NtRp470
(dp471
g74
(dp472
g94
g95
ssg83
g466
sg76
(lp473
S'session_id_sueldos'
p474
asbag69
(g90
g71
NtRp475
(dp476
g74
(dp477
g101
g102
ssg83
g466
sg76
(lp478
S':'
asbag69
(g90
g71
NtRp479
(dp480
g74
(dp481
sg83
g466
sg76
(lp482
g69
(g70
g71
NtRp483
(dp484
g74
(dp485
g82
I4
ssg83
g479
sg76
(lp486
S'127.0.0.1-b5ab5c43-cb03-494e-8551-1bb3b74c2938'
p487
ag69
(g78
g71
NtRp488
(dp489
g74
(dp490
g82
I3
ssg83
Nsg76
(lp491
g69
(g85
g71
NtRp492
(dp493
g74
(dp494
sg83
g488
sg76
(lp495
g69
(g90
g71
NtRp496
(dp497
g74
(dp498
g94
g95
ssg83
g492
sg76
(lp499
g306
asbag69
(g90
g71
NtRp500
(dp501
g74
(dp502
g101
g102
ssg83
g492
sg76
(lp503
S':'
asbag69
(g90
g71
NtRp504
(dp505
g74
(dp506
sg83
g492
sg76
(lp507
g69
(g70
g71
NtRp508
(dp509
g74
(dp510
g82
I3
ssg83
g504
sg76
(lp511
S''
asbasbasbag69
(g85
g71
NtRp512
(dp513
g74
(dp514
sg83
g488
sg76
(lp515
g69
(g90
g71
NtRp516
(dp517
g74
(dp518
g94
g95
ssg83
g512
sg76
(lp519
g327
asbag69
(g90
g71
NtRp520
(dp521
g74
(dp522
g101
g102
ssg83
g512
sg76
(lp523
S':'
asbag69
(g90
g71
NtRp524
(dp525
g74
(dp526
sg83
g512
sg76
(lp527
g69
(g70
g71
NtRp528
(dp529
g74
(dp530
g82
I3
ssg83
g524
sg76
(lp531
S''
asbasbasbag69
(g85
g71
NtRp532
(dp533
g74
(dp534
sg83
g488
sg76
(lp535
g69
(g90
g71
NtRp536
(dp537
g74
(dp538
g94
g95
ssg83
g532
sg76
(lp539
g348
asbag69
(g90
g71
NtRp540
(dp541
g74
(dp542
g101
g102
ssg83
g532
sg76
(lp543
S':'
asbag69
(g90
g71
NtRp544
(dp545
g74
(dp546
sg83
g532
sg76
(lp547
g69
(g70
g71
NtRp548
(dp549
g74
(dp550
g82
I3
ssg83
g544
sg76
(lp551
S''
asbasbasbag69
(g85
g71
NtRp552
(dp553
g74
(dp554
sg83
g488
sg76
(lp555
g69
(g90
g71
NtRp556
(dp557
g74
(dp558
g94
g95
ssg83
g552
sg76
(lp559
g369
asbag69
(g90
g71
NtRp560
(dp561
g74
(dp562
g101
g102
ssg83
g552
sg76
(lp563
S':'
asbag69
(g90
g71
NtRp564
(dp565
g74
(dp566
sg83
g552
sg76
(lp567
g69
(g70
g71
NtRp568
(dp569
g74
(dp570
g82
I3
ssg83
g564
sg76
(lp571
S''
asbasbasbag69
(g85
g71
NtRp572
(dp573
g74
(dp574
sg83
g488
sg76
(lp575
g69
(g90
g71
NtRp576
(dp577
g74
(dp578
g94
g95
ssg83
g572
sg76
(lp579
g390
asbag69
(g90
g71
NtRp580
(dp581
g74
(dp582
g101
g102
ssg83
g572
sg76
(lp583
S':'
asbag69
(g90
g71
NtRp584
(dp585
g74
(dp586
sg83
g572
sg76
(lp587
g69
(g70
g71
NtRp588
(dp589
g74
(dp590
g82
I3
ssg83
g584
sg76
(lp591
S''
asbasbasbag69
(g85
g71
NtRp592
(dp593
g74
(dp594
sg83
g488
sg76
(lp595
g69
(g90
g71
NtRp596
(dp597
g74
(dp598
g94
g95
ssg83
g592
sg76
(lp599
g411
asbag69
(g90
g71
NtRp600
(dp601
g74
(dp602
g101
g102
ssg83
g592
sg76
(lp603
S':'
asbag69
(g90
g71
NtRp604
(dp605
g74
(dp606
sg83
g592
sg76
(lp607
g69
(g70
g71
NtRp608
(dp609
g74
(dp610
g82
I3
ssg83
g604
sg76
(lp611
S''
asbasbasbag69
(g85
g71
NtRp612
(dp613
g74
(dp614
sg83
g488
sg76
(lp615
g69
(g90
g71
NtRp616
(dp617
g74
(dp618
g94
g95
ssg83
g612
sg76
(lp619
g432
asbag69
(g90
g71
NtRp620
(dp621
g74
(dp622
g101
g102
ssg83
g612
sg76
(lp623
S':'
asbag69
(g90
g71
NtRp624
(dp625
g74
(dp626
sg83
g612
sg76
(lp627
g69
(g70
g71
NtRp628
(dp629
g74
(dp630
g82
I3
ssg83
g624
sg76
(lp631
S''
asbasbasbag69
(g85
g71
NtRp632
(dp633
g74
(dp634
sg83
g488
sg76
(lp635
g69
(g90
g71
NtRp636
(dp637
g74
(dp638
g94
g95
ssg83
g632
sg76
(lp639
g453
asbag69
(g90
g71
NtRp640
(dp641
g74
(dp642
g101
g102
ssg83
g632
sg76
(lp643
S':'
asbag69
(g90
g71
NtRp644
(dp645
g74
(dp646
sg83
g632
sg76
(lp647
g69
(g70
g71
NtRp648
(dp649
g74
(dp650
g82
I3
ssg83
g644
sg76
(lp651
S''
asbasbasbasbasbasbasbasbasbasbasbag69
(g85
g71
NtRp652
(dp653
g74
(dp654
sg83
g79
sg76
(lp655
g69
(g90
g71
NtRp656
(dp657
g74
(dp658
g94
g95
ssg83
g652
sg76
(lp659
S'env'
p660
asbag69
(g90
g71
NtRp661
(dp662
g74
(dp663
g101
g102
ssg83
g652
sg76
(lp664
S':'
asbag69
(g90
g71
NtRp665
(dp666
g74
(dp667
sg83
g652
sg76
(lp668
g69
(g70
g71
NtRp669
(dp670
g74
(dp671
g82
I5
ssg83
g665
sg76
(lp672
g69
(g78
g71
NtRp673
(dp674
g74
(dp675
g82
I4
ssg83
Nsg76
(lp676
g69
(g85
g71
NtRp677
(dp678
g74
(dp679
sg83
g673
sg76
(lp680
g69
(g90
g71
NtRp681
(dp682
g74
(dp683
g94
g95
ssg83
g677
sg76
(lp684
S'app_folders'
p685
asbag69
(g90
g71
NtRp686
(dp687
g74
(dp688
g101
g102
ssg83
g677
sg76
(lp689
S':'
asbag69
(g90
g71
NtRp690
(dp691
g74
(dp692
sg83
g677
sg76
(lp693
g69
(g70
g71
NtRp694
(dp695
g74
(dp696
g82
I4
ssg83
g690
sg76
(lp697
S"set(['/home/marco/projects/contabilidad/web2py/applications/admin/', '/home/marco/projects/contabilidad/web2py/applications/sueldos/'])"
p698
asbasbasbag69
(g85
g71
NtRp699
(dp700
g74
(dp701
sg83
g673
sg76
(lp702
g69
(g90
g71
NtRp703
(dp704
g74
(dp705
g94
g95
ssg83
g699
sg76
(lp706
S'applications_parent'
p707
asbag69
(g90
g71
NtRp708
(dp709
g74
(dp710
g101
g102
ssg83
g699
sg76
(lp711
S':'
asbag69
(g90
g71
NtRp712
(dp713
g74
(dp714
sg83
g699
sg76
(lp715
g69
(g70
g71
NtRp716
(dp717
g74
(dp718
g82
I4
ssg83
g712
sg76
(lp719
S'/home/marco/projects/contabilidad/web2py'
p720
asbasbasbag69
(g85
g71
NtRp721
(dp722
g74
(dp723
sg83
g673
sg76
(lp724
g69
(g90
g71
NtRp725
(dp726
g74
(dp727
g94
g95
ssg83
g721
sg76
(lp728
S'cmd_args'
p729
asbag69
(g90
g71
NtRp730
(dp731
g74
(dp732
g101
g102
ssg83
g721
sg76
(lp733
S':'
asbag69
(g90
g71
NtRp734
(dp735
g74
(dp736
sg83
g721
sg76
(lp737
g69
(g70
g71
NtRp738
(dp739
g74
(dp740
g82
I4
ssg83
g734
sg76
(lp741
g69
(g78
g71
NtRp742
(dp743
g74
(dp744
g82
I3
ssg83
Nsg76
(lp745
sbasbasbasbag69
(g85
g71
NtRp746
(dp747
g74
(dp748
sg83
g673
sg76
(lp749
g69
(g90
g71
NtRp750
(dp751
g74
(dp752
g94
g95
ssg83
g746
sg76
(lp753
S'cmd_options'
p754
asbag69
(g90
g71
NtRp755
(dp756
g74
(dp757
g101
g102
ssg83
g746
sg76
(lp758
S':'
asbag69
(g90
g71
NtRp759
(dp760
g74
(dp761
sg83
g746
sg76
(lp762
g69
(g70
g71
NtRp763
(dp764
g74
(dp765
g82
I4
ssg83
g759
sg76
(lp766
S"<Values at 0x1aaf128: {'verbose': False, 'ip': '127.0.0.1', 'with_scheduler': False, 'ips': [], 'shutdown_timeout': 5, 'taskbar': False, 'port': 8000, 'maxthreads': None, 'softcron': False, 'server_name': 'malena', 'bpython': False, 'nogui': False, 'pid_filename': 'httpserver.pid', 'extcron': False, 'runcron': False, 'run_system_tests': False, 'test': None, 'folder': '/home/marco/projects/contabilidad/web2py', 'config': '', 'minthreads': None, 'winservice': '', 'shell': None, 'run': '', 'log_filename': 'httpserver.log', 'debuglevel': 30, 'args': [''], 'socket_timeout': 5, 'ssl_ca_certificate': None, 'scheduler': None, 'profiler_filename': None, 'ssl_private_key': '', 'scheduler_groups': None, 'password': 'asd', 'request_queue_size': 5, 'ssl_certificate': '', 'cronjob': False, 'numthreads': None, 'quiet': False, 'interfaces': None, 'import_models': False, 'timeout': 10, 'plain': False, 'nobanner': False}>"
p767
asbasbasbag69
(g85
g71
NtRp768
(dp769
g74
(dp770
sg83
g673
sg76
(lp771
g69
(g90
g71
NtRp772
(dp773
g74
(dp774
g94
g95
ssg83
g768
sg76
(lp775
S'db_sessions'
p776
asbag69
(g90
g71
NtRp777
(dp778
g74
(dp779
g101
g102
ssg83
g768
sg76
(lp780
S':'
asbag69
(g90
g71
NtRp781
(dp782
g74
(dp783
sg83
g768
sg76
(lp784
g69
(g70
g71
NtRp785
(dp786
g74
(dp787
g82
I4
ssg83
g781
sg76
(lp788
S'set([])'
p789
asbasbasbag69
(g85
g71
NtRp790
(dp791
g74
(dp792
sg83
g673
sg76
(lp793
g69
(g90
g71
NtRp794
(dp795
g74
(dp796
g94
g95
ssg83
g790
sg76
(lp797
S'debugging'
p798
asbag69
(g90
g71
NtRp799
(dp800
g74
(dp801
g101
g102
ssg83
g790
sg76
(lp802
S':'
asbag69
(g90
g71
NtRp803
(dp804
g74
(dp805
sg83
g790
sg76
(lp806
g69
(g70
g71
NtRp807
(dp808
g74
(dp809
g82
I4
ssg83
g803
sg76
(lp810
g112
asbasbasbag69
(g85
g71
NtRp811
(dp812
g74
(dp813
sg83
g673
sg76
(lp814
g69
(g90
g71
NtRp815
(dp816
g74
(dp817
g94
g95
ssg83
g811
sg76
(lp818
S'gluon_parent'
p819
asbag69
(g90
g71
NtRp820
(dp821
g74
(dp822
g101
g102
ssg83
g811
sg76
(lp823
S':'
asbag69
(g90
g71
NtRp824
(dp825
g74
(dp826
sg83
g811
sg76
(lp827
g69
(g70
g71
NtRp828
(dp829
g74
(dp830
g82
I4
ssg83
g824
sg76
(lp831
S'/home/marco/projects/contabilidad/web2py'
p832
asbasbasbag69
(g85
g71
NtRp833
(dp834
g74
(dp835
sg83
g673
sg76
(lp836
g69
(g90
g71
NtRp837
(dp838
g74
(dp839
g94
g95
ssg83
g833
sg76
(lp840
S'http_accept'
p841
asbag69
(g90
g71
NtRp842
(dp843
g74
(dp844
g101
g102
ssg83
g833
sg76
(lp845
S':'
asbag69
(g90
g71
NtRp846
(dp847
g74
(dp848
sg83
g833
sg76
(lp849
g69
(g70
g71
NtRp850
(dp851
g74
(dp852
g82
I4
ssg83
g846
sg76
(lp853
S'text/html,application/xhtml+xml,application/xml;q=0.9,*/*;q=0.8'
p854
asbasbasbag69
(g85
g71
NtRp855
(dp856
g74
(dp857
sg83
g673
sg76
(lp858
g69
(g90
g71
NtRp859
(dp860
g74
(dp861
g94
g95
ssg83
g855
sg76
(lp862
S'http_accept_encoding'
p863
asbag69
(g90
g71
NtRp864
(dp865
g74
(dp866
g101
g102
ssg83
g855
sg76
(lp867
S':'
asbag69
(g90
g71
NtRp868
(dp869
g74
(dp870
sg83
g855
sg76
(lp871
g69
(g70
g71
NtRp872
(dp873
g74
(dp874
g82
I4
ssg83
g868
sg76
(lp875
S'gzip, deflate'
p876
asbasbasbag69
(g85
g71
NtRp877
(dp878
g74
(dp879
sg83
g673
sg76
(lp880
g69
(g90
g71
NtRp881
(dp882
g74
(dp883
g94
g95
ssg83
g877
sg76
(lp884
S'http_accept_language'
p885
asbag69
(g90
g71
NtRp886
(dp887
g74
(dp888
g101
g102
ssg83
g877
sg76
(lp889
S':'
asbag69
(g90
g71
NtRp890
(dp891
g74
(dp892
sg83
g877
sg76
(lp893
g69
(g70
g71
NtRp894
(dp895
g74
(dp896
g82
I4
ssg83
g890
sg76
(lp897
S'en-US,en;q=0.5'
p898
asbasbasbag69
(g85
g71
NtRp899
(dp900
g74
(dp901
sg83
g673
sg76
(lp902
g69
(g90
g71
NtRp903
(dp904
g74
(dp905
g94
g95
ssg83
g899
sg76
(lp906
S'http_cache_control'
p907
asbag69
(g90
g71
NtRp908
(dp909
g74
(dp910
g101
g102
ssg83
g899
sg76
(lp911
S':'
asbag69
(g90
g71
NtRp912
(dp913
g74
(dp914
sg83
g899
sg76
(lp915
g69
(g70
g71
NtRp916
(dp917
g74
(dp918
g82
I4
ssg83
g912
sg76
(lp919
S'max-age=0'
p920
asbasbasbag69
(g85
g71
NtRp921
(dp922
g74
(dp923
sg83
g673
sg76
(lp924
g69
(g90
g71
NtRp925
(dp926
g74
(dp927
g94
g95
ssg83
g921
sg76
(lp928
S'http_connection'
p929
asbag69
(g90
g71
NtRp930
(dp931
g74
(dp932
g101
g102
ssg83
g921
sg76
(lp933
S':'
asbag69
(g90
g71
NtRp934
(dp935
g74
(dp936
sg83
g921
sg76
(lp937
g69
(g70
g71
NtRp938
(dp939
g74
(dp940
g82
I4
ssg83
g934
sg76
(lp941
S'keep-alive'
p942
asbasbasbag69
(g85
g71
NtRp943
(dp944
g74
(dp945
sg83
g673
sg76
(lp946
g69
(g90
g71
NtRp947
(dp948
g74
(dp949
g94
g95
ssg83
g943
sg76
(lp950
S'http_cookie'
p951
asbag69
(g90
g71
NtRp952
(dp953
g74
(dp954
g101
g102
ssg83
g943
sg76
(lp955
S':'
asbag69
(g90
g71
NtRp956
(dp957
g74
(dp958
sg83
g943
sg76
(lp959
g69
(g70
g71
NtRp960
(dp961
g74
(dp962
g82
I4
ssg83
g956
sg76
(lp963
S'session_id_admin=127.0.0.1-24af4e14-6d96-45d7-9010-207206732bb5; session_id_sueldos=127.0.0.1-b5ab5c43-cb03-494e-8551-1bb3b74c2938'
p964
asbasbasbag69
(g85
g71
NtRp965
(dp966
g74
(dp967
sg83
g673
sg76
(lp968
g69
(g90
g71
NtRp969
(dp970
g74
(dp971
g94
g95
ssg83
g965
sg76
(lp972
S'http_host'
p973
asbag69
(g90
g71
NtRp974
(dp975
g74
(dp976
g101
g102
ssg83
g965
sg76
(lp977
S':'
asbag69
(g90
g71
NtRp978
(dp979
g74
(dp980
sg83
g965
sg76
(lp981
g69
(g70
g71
NtRp982
(dp983
g74
(dp984
g82
I4
ssg83
g978
sg76
(lp985
S'127.0.0.1:8000'
p986
asbasbasbag69
(g85
g71
NtRp987
(dp988
g74
(dp989
sg83
g673
sg76
(lp990
g69
(g90
g71
NtRp991
(dp992
g74
(dp993
g94
g95
ssg83
g987
sg76
(lp994
S'http_referer'
p995
asbag69
(g90
g71
NtRp996
(dp997
g74
(dp998
g101
g102
ssg83
g987
sg76
(lp999
S':'
asbag69
(g90
g71
NtRp1000
(dp1001
g74
(dp1002
sg83
g987
sg76
(lp1003
g69
(g70
g71
NtRp1004
(dp1005
g74
(dp1006
g82
I4
ssg83
g1000
sg76
(lp1007
S'http://127.0.0.1:8000/sueldos/default/clientes'
p1008
asbasbasbag69
(g85
g71
NtRp1009
(dp1010
g74
(dp1011
sg83
g673
sg76
(lp1012
g69
(g90
g71
NtRp1013
(dp1014
g74
(dp1015
g94
g95
ssg83
g1009
sg76
(lp1016
S'http_user_agent'
p1017
asbag69
(g90
g71
NtRp1018
(dp1019
g74
(dp1020
g101
g102
ssg83
g1009
sg76
(lp1021
S':'
asbag69
(g90
g71
NtRp1022
(dp1023
g74
(dp1024
sg83
g1009
sg76
(lp1025
g69
(g70
g71
NtRp1026
(dp1027
g74
(dp1028
g82
I4
ssg83
g1022
sg76
(lp1029
S'Mozilla/5.0 (X11; Linux x86_64; rv:17.0) Gecko/20100101 Firefox/17.0 Iceweasel/17.0.1'
p1030
asbasbasbag69
(g85
g71
NtRp1031
(dp1032
g74
(dp1033
sg83
g673
sg76
(lp1034
g69
(g90
g71
NtRp1035
(dp1036
g74
(dp1037
g94
g95
ssg83
g1031
sg76
(lp1038
S'is_jython'
p1039
asbag69
(g90
g71
NtRp1040
(dp1041
g74
(dp1042
g101
g102
ssg83
g1031
sg76
(lp1043
S':'
asbag69
(g90
g71
NtRp1044
(dp1045
g74
(dp1046
sg83
g1031
sg76
(lp1047
g69
(g70
g71
NtRp1048
(dp1049
g74
(dp1050
g82
I4
ssg83
g1044
sg76
(lp1051
g112
asbasbasbag69
(g85
g71
NtRp1052
(dp1053
g74
(dp1054
sg83
g673
sg76
(lp1055
g69
(g90
g71
NtRp1056
(dp1057
g74
(dp1058
g94
g95
ssg83
g1052
sg76
(lp1059
S'is_pypy'
p1060
asbag69
(g90
g71
NtRp1061
(dp1062
g74
(dp1063
g101
g102
ssg83
g1052
sg76
(lp1064
S':'
asbag69
(g90
g71
NtRp1065
(dp1066
g74
(dp1067
sg83
g1052
sg76
(lp1068
g69
(g70
g71
NtRp1069
(dp1070
g74
(dp1071
g82
I4
ssg83
g1065
sg76
(lp1072
g112
asbasbasbag69
(g85
g71
NtRp1073
(dp1074
g74
(dp1075
sg83
g673
sg76
(lp1076
g69
(g90
g71
NtRp1077
(dp1078
g74
(dp1079
g94
g95
ssg83
g1073
sg76
(lp1080
S'local_hosts'
p1081
asbag69
(g90
g71
NtRp1082
(dp1083
g74
(dp1084
g101
g102
ssg83
g1073
sg76
(lp1085
S':'
asbag69
(g90
g71
NtRp1086
(dp1087
g74
(dp1088
sg83
g1073
sg76
(lp1089
g69
(g70
g71
NtRp1090
(dp1091
g74
(dp1092
g82
I4
ssg83
g1086
sg76
(lp1093
g69
(g78
g71
NtRp1094
(dp1095
g74
(dp1096
g82
I3
ssg83
Nsg76
(lp1097
g69
(g85
g71
NtRp1098
(dp1099
g74
(dp1100
sg83
g1094
sg76
(lp1101
g69
(g90
g71
NtRp1102
(dp1103
g74
(dp1104
sg83
g1098
sg76
(lp1105
g69
(g70
g71
NtRp1106
(dp1107
g74
(dp1108
g82
I3
ssg83
g1102
sg76
(lp1109
S'malena'
p1110
asbasbasbag69
(g85
g71
NtRp1111
(dp1112
g74
(dp1113
sg83
g1094
sg76
(lp1114
g69
(g90
g71
NtRp1115
(dp1116
g74
(dp1117
sg83
g1111
sg76
(lp1118
g69
(g70
g71
NtRp1119
(dp1120
g74
(dp1121
g82
I3
ssg83
g1115
sg76
(lp1122
S'::1'
p1123
asbasbasbag69
(g85
g71
NtRp1124
(dp1125
g74
(dp1126
sg83
g1094
sg76
(lp1127
g69
(g90
g71
NtRp1128
(dp1129
g74
(dp1130
sg83
g1124
sg76
(lp1131
g69
(g70
g71
NtRp1132
(dp1133
g74
(dp1134
g82
I3
ssg83
g1128
sg76
(lp1135
S'127.0.1.1'
p1136
asbasbasbag69
(g85
g71
NtRp1137
(dp1138
g74
(dp1139
sg83
g1094
sg76
(lp1140
g69
(g90
g71
NtRp1141
(dp1142
g74
(dp1143
sg83
g1137
sg76
(lp1144
g69
(g70
g71
NtRp1145
(dp1146
g74
(dp1147
g82
I3
ssg83
g1141
sg76
(lp1148
S'::ffff:127.0.0.1'
p1149
asbasbasbag69
(g85
g71
NtRp1150
(dp1151
g74
(dp1152
sg83
g1094
sg76
(lp1153
g69
(g90
g71
NtRp1154
(dp1155
g74
(dp1156
sg83
g1150
sg76
(lp1157
g69
(g70
g71
NtRp1158
(dp1159
g74
(dp1160
g82
I3
ssg83
g1154
sg76
(lp1161
S'127.0.0.1'
p1162
asbasbasbasbasbasbasbag69
(g85
g71
NtRp1163
(dp1164
g74
(dp1165
sg83
g673
sg76
(lp1166
g69
(g90
g71
NtRp1167
(dp1168
g74
(dp1169
g94
g95
ssg83
g1163
sg76
(lp1170
S'path_info'
p1171
asbag69
(g90
g71
NtRp1172
(dp1173
g74
(dp1174
g101
g102
ssg83
g1163
sg76
(lp1175
S':'
asbag69
(g90
g71
NtRp1176
(dp1177
g74
(dp1178
sg83
g1163
sg76
(lp1179
g69
(g70
g71
NtRp1180
(dp1181
g74
(dp1182
g82
I4
ssg83
g1176
sg76
(lp1183
S'/sueldos/default/clientes'
p1184
asbasbasbag69
(g85
g71
NtRp1185
(dp1186
g74
(dp1187
sg83
g673
sg76
(lp1188
g69
(g90
g71
NtRp1189
(dp1190
g74
(dp1191
g94
g95
ssg83
g1185
sg76
(lp1192
S'query_string'
p1193
asbag69
(g90
g71
NtRp1194
(dp1195
g74
(dp1196
g101
g102
ssg83
g1185
sg76
(lp1197
S':'
asbag69
(g90
g71
NtRp1198
(dp1199
g74
(dp1200
sg83
g1185
sg76
(lp1201
g69
(g70
g71
NtRp1202
(dp1203
g74
(dp1204
g82
I4
ssg83
g1198
sg76
(lp1205
S''
asbasbasbag69
(g85
g71
NtRp1206
(dp1207
g74
(dp1208
sg83
g673
sg76
(lp1209
g69
(g90
g71
NtRp1210
(dp1211
g74
(dp1212
g94
g95
ssg83
g1206
sg76
(lp1213
S'remote_addr'
p1214
asbag69
(g90
g71
NtRp1215
(dp1216
g74
(dp1217
g101
g102
ssg83
g1206
sg76
(lp1218
S':'
asbag69
(g90
g71
NtRp1219
(dp1220
g74
(dp1221
sg83
g1206
sg76
(lp1222
g69
(g70
g71
NtRp1223
(dp1224
g74
(dp1225
g82
I4
ssg83
g1219
sg76
(lp1226
g224
asbasbasbag69
(g85
g71
NtRp1227
(dp1228
g74
(dp1229
sg83
g673
sg76
(lp1230
g69
(g90
g71
NtRp1231
(dp1232
g74
(dp1233
g94
g95
ssg83
g1227
sg76
(lp1234
S'remote_port'
p1235
asbag69
(g90
g71
NtRp1236
(dp1237
g74
(dp1238
g101
g102
ssg83
g1227
sg76
(lp1239
S':'
asbag69
(g90
g71
NtRp1240
(dp1241
g74
(dp1242
sg83
g1227
sg76
(lp1243
g69
(g70
g71
NtRp1244
(dp1245
g74
(dp1246
g82
I4
ssg83
g1240
sg76
(lp1247
S'57719'
p1248
asbasbasbag69
(g85
g71
NtRp1249
(dp1250
g74
(dp1251
sg83
g673
sg76
(lp1252
g69
(g90
g71
NtRp1253
(dp1254
g74
(dp1255
g94
g95
ssg83
g1249
sg76
(lp1256
S'request_method'
p1257
asbag69
(g90
g71
NtRp1258
(dp1259
g74
(dp1260
g101
g102
ssg83
g1249
sg76
(lp1261
S':'
asbag69
(g90
g71
NtRp1262
(dp1263
g74
(dp1264
sg83
g1249
sg76
(lp1265
g69
(g70
g71
NtRp1266
(dp1267
g74
(dp1268
g82
I4
ssg83
g1262
sg76
(lp1269
S'GET'
p1270
asbasbasbag69
(g85
g71
NtRp1271
(dp1272
g74
(dp1273
sg83
g673
sg76
(lp1274
g69
(g90
g71
NtRp1275
(dp1276
g74
(dp1277
g94
g95
ssg83
g1271
sg76
(lp1278
S'request_uri'
p1279
asbag69
(g90
g71
NtRp1280
(dp1281
g74
(dp1282
g101
g102
ssg83
g1271
sg76
(lp1283
S':'
asbag69
(g90
g71
NtRp1284
(dp1285
g74
(dp1286
sg83
g1271
sg76
(lp1287
g69
(g70
g71
NtRp1288
(dp1289
g74
(dp1290
g82
I4
ssg83
g1284
sg76
(lp1291
g1184
asbasbasbag69
(g85
g71
NtRp1292
(dp1293
g74
(dp1294
sg83
g673
sg76
(lp1295
g69
(g90
g71
NtRp1296
(dp1297
g74
(dp1298
g94
g95
ssg83
g1292
sg76
(lp1299
S'script_name'
p1300
asbag69
(g90
g71
NtRp1301
(dp1302
g74
(dp1303
g101
g102
ssg83
g1292
sg76
(lp1304
S':'
asbag69
(g90
g71
NtRp1305
(dp1306
g74
(dp1307
sg83
g1292
sg76
(lp1308
g69
(g70
g71
NtRp1309
(dp1310
g74
(dp1311
g82
I4
ssg83
g1305
sg76
(lp1312
S''
asbasbasbag69
(g85
g71
NtRp1313
(dp1314
g74
(dp1315
sg83
g673
sg76
(lp1316
g69
(g90
g71
NtRp1317
(dp1318
g74
(dp1319
g94
g95
ssg83
g1313
sg76
(lp1320
S'server_name'
p1321
asbag69
(g90
g71
NtRp1322
(dp1323
g74
(dp1324
g101
g102
ssg83
g1313
sg76
(lp1325
S':'
asbag69
(g90
g71
NtRp1326
(dp1327
g74
(dp1328
sg83
g1313
sg76
(lp1329
g69
(g70
g71
NtRp1330
(dp1331
g74
(dp1332
g82
I4
ssg83
g1326
sg76
(lp1333
S'malena'
p1334
asbasbasbag69
(g85
g71
NtRp1335
(dp1336
g74
(dp1337
sg83
g673
sg76
(lp1338
g69
(g90
g71
NtRp1339
(dp1340
g74
(dp1341
g94
g95
ssg83
g1335
sg76
(lp1342
S'server_port'
p1343
asbag69
(g90
g71
NtRp1344
(dp1345
g74
(dp1346
g101
g102
ssg83
g1335
sg76
(lp1347
S':'
asbag69
(g90
g71
NtRp1348
(dp1349
g74
(dp1350
sg83
g1335
sg76
(lp1351
g69
(g70
g71
NtRp1352
(dp1353
g74
(dp1354
g82
I4
ssg83
g1348
sg76
(lp1355
S'8000'
p1356
asbasbasbag69
(g85
g71
NtRp1357
(dp1358
g74
(dp1359
sg83
g673
sg76
(lp1360
g69
(g90
g71
NtRp1361
(dp1362
g74
(dp1363
g94
g95
ssg83
g1357
sg76
(lp1364
S'server_protocol'
p1365
asbag69
(g90
g71
NtRp1366
(dp1367
g74
(dp1368
g101
g102
ssg83
g1357
sg76
(lp1369
S':'
asbag69
(g90
g71
NtRp1370
(dp1371
g74
(dp1372
sg83
g1357
sg76
(lp1373
g69
(g70
g71
NtRp1374
(dp1375
g74
(dp1376
g82
I4
ssg83
g1370
sg76
(lp1377
S'HTTP/1.1'
p1378
asbasbasbag69
(g85
g71
NtRp1379
(dp1380
g74
(dp1381
sg83
g673
sg76
(lp1382
g69
(g90
g71
NtRp1383
(dp1384
g74
(dp1385
g94
g95
ssg83
g1379
sg76
(lp1386
S'server_software'
p1387
asbag69
(g90
g71
NtRp1388
(dp1389
g74
(dp1390
g101
g102
ssg83
g1379
sg76
(lp1391
S':'
asbag69
(g90
g71
NtRp1392
(dp1393
g74
(dp1394
sg83
g1379
sg76
(lp1395
g69
(g70
g71
NtRp1396
(dp1397
g74
(dp1398
g82
I4
ssg83
g1392
sg76
(lp1399
S'Rocket 1.2.6'
p1400
asbasbasbag69
(g85
g71
NtRp1401
(dp1402
g74
(dp1403
sg83
g673
sg76
(lp1404
g69
(g90
g71
NtRp1405
(dp1406
g74
(dp1407
g94
g95
ssg83
g1401
sg76
(lp1408
S'web2py_path'
p1409
asbag69
(g90
g71
NtRp1410
(dp1411
g74
(dp1412
g101
g102
ssg83
g1401
sg76
(lp1413
S':'
asbag69
(g90
g71
NtRp1414
(dp1415
g74
(dp1416
sg83
g1401
sg76
(lp1417
g69
(g70
g71
NtRp1418
(dp1419
g74
(dp1420
g82
I4
ssg83
g1414
sg76
(lp1421
g720
asbasbasbag69
(g85
g71
NtRp1422
(dp1423
g74
(dp1424
sg83
g673
sg76
(lp1425
g69
(g90
g71
NtRp1426
(dp1427
g74
(dp1428
g94
g95
ssg83
g1422
sg76
(lp1429
S'web2py_version'
p1430
asbag69
(g90
g71
NtRp1431
(dp1432
g74
(dp1433
g101
g102
ssg83
g1422
sg76
(lp1434
S':'
asbag69
(g90
g71
NtRp1435
(dp1436
g74
(dp1437
sg83
g1422
sg76
(lp1438
g69
(g70
g71
NtRp1439
(dp1440
g74
(dp1441
g82
I4
ssg83
g1435
sg76
(lp1442
g69
(g78
g71
NtRp1443
(dp1444
g74
(dp1445
g82
I3
ssg83
Nsg76
(lp1446
g69
(g85
g71
NtRp1447
(dp1448
g74
(dp1449
sg83
g1443
sg76
(lp1450
g69
(g90
g71
NtRp1451
(dp1452
g74
(dp1453
sg83
g1447
sg76
(lp1454
g69
(g70
g71
NtRp1455
(dp1456
g74
(dp1457
g82
I3
ssg83
g1451
sg76
(lp1458
S'2'
asbasbasbag69
(g85
g71
NtRp1459
(dp1460
g74
(dp1461
sg83
g1443
sg76
(lp1462
g69
(g90
g71
NtRp1463
(dp1464
g74
(dp1465
sg83
g1459
sg76
(lp1466
g69
(g70
g71
NtRp1467
(dp1468
g74
(dp1469
g82
I3
ssg83
g1463
sg76
(lp1470
S'3'
asbasbasbag69
(g85
g71
NtRp1471
(dp1472
g74
(dp1473
sg83
g1443
sg76
(lp1474
g69
(g90
g71
NtRp1475
(dp1476
g74
(dp1477
sg83
g1471
sg76
(lp1478
g69
(g70
g71
NtRp1479
(dp1480
g74
(dp1481
g82
I3
ssg83
g1475
sg76
(lp1482
S'0'
asbasbasbag69
(g85
g71
NtRp1483
(dp1484
g74
(dp1485
sg83
g1443
sg76
(lp1486
g69
(g90
g71
NtRp1487
(dp1488
g74
(dp1489
sg83
g1483
sg76
(lp1490
g69
(g70
g71
NtRp1491
(dp1492
g74
(dp1493
g82
I3
ssg83
g1487
sg76
(lp1494
S'datetime.datetime(2012, 12, 4, 10, 55, 53)'
p1495
asbasbasbag69
(g85
g71
NtRp1496
(dp1497
g74
(dp1498
sg83
g1443
sg76
(lp1499
g69
(g90
g71
NtRp1500
(dp1501
g74
(dp1502
sg83
g1496
sg76
(lp1503
g69
(g70
g71
NtRp1504
(dp1505
g74
(dp1506
g82
I3
ssg83
g1500
sg76
(lp1507
S'rc'
p1508
asbasbasbasbasbasbasbag69
(g85
g71
NtRp1509
(dp1510
g74
(dp1511
sg83
g673
sg76
(lp1512
g69
(g90
g71
NtRp1513
(dp1514
g74
(dp1515
g94
g95
ssg83
g1509
sg76
(lp1516
S'wsgi_errors'
p1517
asbag69
(g90
g71
NtRp1518
(dp1519
g74
(dp1520
g101
g102
ssg83
g1509
sg76
(lp1521
S':'
asbag69
(g90
g71
NtRp1522
(dp1523
g74
(dp1524
sg83
g1509
sg76
(lp1525
g69
(g70
g71
NtRp1526
(dp1527
g74
(dp1528
g82
I4
ssg83
g1522
sg76
(lp1529
S"<open file '<stderr>', mode 'w' at 0x7ff97c2cf270>"
p1530
asbasbasbag69
(g85
g71
NtRp1531
(dp1532
g74
(dp1533
sg83
g673
sg76
(lp1534
g69
(g90
g71
NtRp1535
(dp1536
g74
(dp1537
g94
g95
ssg83
g1531
sg76
(lp1538
S'wsgi_file_wrapper'
p1539
asbag69
(g90
g71
NtRp1540
(dp1541
g74
(dp1542
g101
g102
ssg83
g1531
sg76
(lp1543
S':'
asbag69
(g90
g71
NtRp1544
(dp1545
g74
(dp1546
sg83
g1531
sg76
(lp1547
g69
(g70
g71
NtRp1548
(dp1549
g74
(dp1550
g82
I4
ssg83
g1544
sg76
(lp1551
S'<class wsgiref.util.FileWrapper at 0x1a0cc80>'
p1552
asbasbasbag69
(g85
g71
NtRp1553
(dp1554
g74
(dp1555
sg83
g673
sg76
(lp1556
g69
(g90
g71
NtRp1557
(dp1558
g74
(dp1559
g94
g95
ssg83
g1553
sg76
(lp1560
S'wsgi_input'
p1561
asbag69
(g90
g71
NtRp1562
(dp1563
g74
(dp1564
g101
g102
ssg83
g1553
sg76
(lp1565
S':'
asbag69
(g90
g71
NtRp1566
(dp1567
g74
(dp1568
sg83
g1553
sg76
(lp1569
g69
(g70
g71
NtRp1570
(dp1571
g74
(dp1572
g82
I4
ssg83
g1566
sg76
(lp1573
S'<socket._fileobject object at 0x290c8d0>'
p1574
asbasbasbag69
(g85
g71
NtRp1575
(dp1576
g74
(dp1577
sg83
g673
sg76
(lp1578
g69
(g90
g71
NtRp1579
(dp1580
g74
(dp1581
g94
g95
ssg83
g1575
sg76
(lp1582
S'wsgi_multiprocess'
p1583
asbag69
(g90
g71
NtRp1584
(dp1585
g74
(dp1586
g101
g102
ssg83
g1575
sg76
(lp1587
S':'
asbag69
(g90
g71
NtRp1588
(dp1589
g74
(dp1590
sg83
g1575
sg76
(lp1591
g69
(g70
g71
NtRp1592
(dp1593
g74
(dp1594
g82
I4
ssg83
g1588
sg76
(lp1595
g112
asbasbasbag69
(g85
g71
NtRp1596
(dp1597
g74
(dp1598
sg83
g673
sg76
(lp1599
g69
(g90
g71
NtRp1600
(dp1601
g74
(dp1602
g94
g95
ssg83
g1596
sg76
(lp1603
S'wsgi_multithread'
p1604
asbag69
(g90
g71
NtRp1605
(dp1606
g74
(dp1607
g101
g102
ssg83
g1596
sg76
(lp1608
S':'
asbag69
(g90
g71
NtRp1609
(dp1610
g74
(dp1611
sg83
g1596
sg76
(lp1612
g69
(g70
g71
NtRp1613
(dp1614
g74
(dp1615
g82
I4
ssg83
g1609
sg76
(lp1616
S'True'
p1617
asbasbasbag69
(g85
g71
NtRp1618
(dp1619
g74
(dp1620
sg83
g673
sg76
(lp1621
g69
(g90
g71
NtRp1622
(dp1623
g74
(dp1624
g94
g95
ssg83
g1618
sg76
(lp1625
S'wsgi_run_once'
p1626
asbag69
(g90
g71
NtRp1627
(dp1628
g74
(dp1629
g101
g102
ssg83
g1618
sg76
(lp1630
S':'
asbag69
(g90
g71
NtRp1631
(dp1632
g74
(dp1633
sg83
g1618
sg76
(lp1634
g69
(g70
g71
NtRp1635
(dp1636
g74
(dp1637
g82
I4
ssg83
g1631
sg76
(lp1638
g112
asbasbasbag69
(g85
g71
NtRp1639
(dp1640
g74
(dp1641
sg83
g673
sg76
(lp1642
g69
(g90
g71
NtRp1643
(dp1644
g74
(dp1645
g94
g95
ssg83
g1639
sg76
(lp1646
S'wsgi_url_scheme'
p1647
asbag69
(g90
g71
NtRp1648
(dp1649
g74
(dp1650
g101
g102
ssg83
g1639
sg76
(lp1651
S':'
asbag69
(g90
g71
NtRp1652
(dp1653
g74
(dp1654
sg83
g1639
sg76
(lp1655
g69
(g70
g71
NtRp1656
(dp1657
g74
(dp1658
g82
I4
ssg83
g1652
sg76
(lp1659
S'http'
p1660
asbasbasbag69
(g85
g71
NtRp1661
(dp1662
g74
(dp1663
sg83
g673
sg76
(lp1664
g69
(g90
g71
NtRp1665
(dp1666
g74
(dp1667
g94
g95
ssg83
g1661
sg76
(lp1668
S'wsgi_version'
p1669
asbag69
(g90
g71
NtRp1670
(dp1671
g74
(dp1672
g101
g102
ssg83
g1661
sg76
(lp1673
S':'
asbag69
(g90
g71
NtRp1674
(dp1675
g74
(dp1676
sg83
g1661
sg76
(lp1677
g69
(g70
g71
NtRp1678
(dp1679
g74
(dp1680
g82
I4
ssg83
g1674
sg76
(lp1681
g69
(g78
g71
NtRp1682
(dp1683
g74
(dp1684
g82
I3
ssg83
Nsg76
(lp1685
g69
(g85
g71
NtRp1686
(dp1687
g74
(dp1688
sg83
g1682
sg76
(lp1689
g69
(g90
g71
NtRp1690
(dp1691
g74
(dp1692
sg83
g1686
sg76
(lp1693
g69
(g70
g71
NtRp1694
(dp1695
g74
(dp1696
g82
I3
ssg83
g1690
sg76
(lp1697
S'1'
asbasbasbag69
(g85
g71
NtRp1698
(dp1699
g74
(dp1700
sg83
g1682
sg76
(lp1701
g69
(g90
g71
NtRp1702
(dp1703
g74
(dp1704
sg83
g1698
sg76
(lp1705
g69
(g70
g71
NtRp1706
(dp1707
g74
(dp1708
g82
I3
ssg83
g1702
sg76
(lp1709
S'0'
asbasbasbasbasbasbasbasbasbasbasbag69
(g85
g71
NtRp1710
(dp1711
g74
(dp1712
sg83
g79
sg76
(lp1713
g69
(g90
g71
NtRp1714
(dp1715
g74
(dp1716
g94
g95
ssg83
g1710
sg76
(lp1717
S'extension'
p1718
asbag69
(g90
g71
NtRp1719
(dp1720
g74
(dp1721
g101
g102
ssg83
g1710
sg76
(lp1722
S':'
asbag69
(g90
g71
NtRp1723
(dp1724
g74
(dp1725
sg83
g1710
sg76
(lp1726
g69
(g70
g71
NtRp1727
(dp1728
g74
(dp1729
g82
I5
ssg83
g1723
sg76
(lp1730
S'html'
p1731
asbasbasbag69
(g85
g71
NtRp1732
(dp1733
g74
(dp1734
sg83
g79
sg76
(lp1735
g69
(g90
g71
NtRp1736
(dp1737
g74
(dp1738
g94
g95
ssg83
g1732
sg76
(lp1739
S'folder'
p1740
asbag69
(g90
g71
NtRp1741
(dp1742
g74
(dp1743
g101
g102
ssg83
g1732
sg76
(lp1744
S':'
asbag69
(g90
g71
NtRp1745
(dp1746
g74
(dp1747
sg83
g1732
sg76
(lp1748
g69
(g70
g71
NtRp1749
(dp1750
g74
(dp1751
g82
I5
ssg83
g1745
sg76
(lp1752
S'/home/marco/projects/contabilidad/web2py/applications/sueldos/'
p1753
asbasbasbag69
(g85
g71
NtRp1754
(dp1755
g74
(dp1756
sg83
g79
sg76
(lp1757
g69
(g90
g71
NtRp1758
(dp1759
g74
(dp1760
g94
g95
ssg83
g1754
sg76
(lp1761
S'function'
p1762
asbag69
(g90
g71
NtRp1763
(dp1764
g74
(dp1765
g101
g102
ssg83
g1754
sg76
(lp1766
S':'
asbag69
(g90
g71
NtRp1767
(dp1768
g74
(dp1769
sg83
g1754
sg76
(lp1770
g69
(g70
g71
NtRp1771
(dp1772
g74
(dp1773
g82
I5
ssg83
g1767
sg76
(lp1774
S'clientes'
p1775
asbasbasbag69
(g85
g71
NtRp1776
(dp1777
g74
(dp1778
sg83
g79
sg76
(lp1779
g69
(g90
g71
NtRp1780
(dp1781
g74
(dp1782
g94
g95
ssg83
g1776
sg76
(lp1783
S'get_vars'
p1784
asbag69
(g90
g71
NtRp1785
(dp1786
g74
(dp1787
g101
g102
ssg83
g1776
sg76
(lp1788
S':'
asbag69
(g90
g71
NtRp1789
(dp1790
g74
(dp1791
sg83
g1776
sg76
(lp1792
g69
(g70
g71
NtRp1793
(dp1794
g74
(dp1795
g82
I5
ssg83
g1789
sg76
(lp1796
g69
(g78
g71
NtRp1797
(dp1798
g74
(dp1799
g82
I4
ssg83
Nsg76
(lp1800
sbasbasbasbag69
(g85
g71
NtRp1801
(dp1802
g74
(dp1803
sg83
g79
sg76
(lp1804
g69
(g90
g71
NtRp1805
(dp1806
g74
(dp1807
g94
g95
ssg83
g1801
sg76
(lp1808
S'global_settings'
p1809
asbag69
(g90
g71
NtRp1810
(dp1811
g74
(dp1812
g101
g102
ssg83
g1801
sg76
(lp1813
S':'
asbag69
(g90
g71
NtRp1814
(dp1815
g74
(dp1816
sg83
g1801
sg76
(lp1817
g69
(g70
g71
NtRp1818
(dp1819
g74
(dp1820
g82
I5
ssg83
g1814
sg76
(lp1821
g69
(g78
g71
NtRp1822
(dp1823
g74
(dp1824
g82
I4
ssg83
Nsg76
(lp1825
g69
(g85
g71
NtRp1826
(dp1827
g74
(dp1828
sg83
g1822
sg76
(lp1829
g69
(g90
g71
NtRp1830
(dp1831
g74
(dp1832
g94
g95
ssg83
g1826
sg76
(lp1833
g685
asbag69
(g90
g71
NtRp1834
(dp1835
g74
(dp1836
g101
g102
ssg83
g1826
sg76
(lp1837
S':'
asbag69
(g90
g71
NtRp1838
(dp1839
g74
(dp1840
sg83
g1826
sg76
(lp1841
g69
(g70
g71
NtRp1842
(dp1843
g74
(dp1844
g82
I4
ssg83
g1838
sg76
(lp1845
S"set(['/home/marco/projects/contabilidad/web2py/applications/admin/', '/home/marco/projects/contabilidad/web2py/applications/sueldos/'])"
p1846
asbasbasbag69
(g85
g71
NtRp1847
(dp1848
g74
(dp1849
sg83
g1822
sg76
(lp1850
g69
(g90
g71
NtRp1851
(dp1852
g74
(dp1853
g94
g95
ssg83
g1847
sg76
(lp1854
g707
asbag69
(g90
g71
NtRp1855
(dp1856
g74
(dp1857
g101
g102
ssg83
g1847
sg76
(lp1858
S':'
asbag69
(g90
g71
NtRp1859
(dp1860
g74
(dp1861
sg83
g1847
sg76
(lp1862
g69
(g70
g71
NtRp1863
(dp1864
g74
(dp1865
g82
I4
ssg83
g1859
sg76
(lp1866
g720
asbasbasbag69
(g85
g71
NtRp1867
(dp1868
g74
(dp1869
sg83
g1822
sg76
(lp1870
g69
(g90
g71
NtRp1871
(dp1872
g74
(dp1873
g94
g95
ssg83
g1867
sg76
(lp1874
g729
asbag69
(g90
g71
NtRp1875
(dp1876
g74
(dp1877
g101
g102
ssg83
g1867
sg76
(lp1878
S':'
asbag69
(g90
g71
NtRp1879
(dp1880
g74
(dp1881
sg83
g1867
sg76
(lp1882
g69
(g70
g71
NtRp1883
(dp1884
g74
(dp1885
g82
I4
ssg83
g1879
sg76
(lp1886
g69
(g78
g71
NtRp1887
(dp1888
g74
(dp1889
g82
I3
ssg83
Nsg76
(lp1890
sbasbasbasbag69
(g85
g71
NtRp1891
(dp1892
g74
(dp1893
sg83
g1822
sg76
(lp1894
g69
(g90
g71
NtRp1895
(dp1896
g74
(dp1897
g94
g95
ssg83
g1891
sg76
(lp1898
g754
asbag69
(g90
g71
NtRp1899
(dp1900
g74
(dp1901
g101
g102
ssg83
g1891
sg76
(lp1902
S':'
asbag69
(g90
g71
NtRp1903
(dp1904
g74
(dp1905
sg83
g1891
sg76
(lp1906
g69
(g70
g71
NtRp1907
(dp1908
g74
(dp1909
g82
I4
ssg83
g1903
sg76
(lp1910
S"<Values at 0x1aaf128: {'verbose': False, 'ip': '127.0.0.1', 'with_scheduler': False, 'ips': [], 'shutdown_timeout': 5, 'taskbar': False, 'port': 8000, 'maxthreads': None, 'softcron': False, 'server_name': 'malena', 'bpython': False, 'nogui': False, 'pid_filename': 'httpserver.pid', 'extcron': False, 'runcron': False, 'run_system_tests': False, 'test': None, 'folder': '/home/marco/projects/contabilidad/web2py', 'config': '', 'minthreads': None, 'winservice': '', 'shell': None, 'run': '', 'log_filename': 'httpserver.log', 'debuglevel': 30, 'args': [''], 'socket_timeout': 5, 'ssl_ca_certificate': None, 'scheduler': None, 'profiler_filename': None, 'ssl_private_key': '', 'scheduler_groups': None, 'password': 'asd', 'request_queue_size': 5, 'ssl_certificate': '', 'cronjob': False, 'numthreads': None, 'quiet': False, 'interfaces': None, 'import_models': False, 'timeout': 10, 'plain': False, 'nobanner': False}>"
p1911
asbasbasbag69
(g85
g71
NtRp1912
(dp1913
g74
(dp1914
sg83
g1822
sg76
(lp1915
g69
(g90
g71
NtRp1916
(dp1917
g74
(dp1918
g94
g95
ssg83
g1912
sg76
(lp1919
g776
asbag69
(g90
g71
NtRp1920
(dp1921
g74
(dp1922
g101
g102
ssg83
g1912
sg76
(lp1923
S':'
asbag69
(g90
g71
NtRp1924
(dp1925
g74
(dp1926
sg83
g1912
sg76
(lp1927
g69
(g70
g71
NtRp1928
(dp1929
g74
(dp1930
g82
I4
ssg83
g1924
sg76
(lp1931
S'set([])'
p1932
asbasbasbag69
(g85
g71
NtRp1933
(dp1934
g74
(dp1935
sg83
g1822
sg76
(lp1936
g69
(g90
g71
NtRp1937
(dp1938
g74
(dp1939
g94
g95
ssg83
g1933
sg76
(lp1940
g798
asbag69
(g90
g71
NtRp1941
(dp1942
g74
(dp1943
g101
g102
ssg83
g1933
sg76
(lp1944
S':'
asbag69
(g90
g71
NtRp1945
(dp1946
g74
(dp1947
sg83
g1933
sg76
(lp1948
g69
(g70
g71
NtRp1949
(dp1950
g74
(dp1951
g82
I4
ssg83
g1945
sg76
(lp1952
g112
asbasbasbag69
(g85
g71
NtRp1953
(dp1954
g74
(dp1955
sg83
g1822
sg76
(lp1956
g69
(g90
g71
NtRp1957
(dp1958
g74
(dp1959
g94
g95
ssg83
g1953
sg76
(lp1960
g819
asbag69
(g90
g71
NtRp1961
(dp1962
g74
(dp1963
g101
g102
ssg83
g1953
sg76
(lp1964
S':'
asbag69
(g90
g71
NtRp1965
(dp1966
g74
(dp1967
sg83
g1953
sg76
(lp1968
g69
(g70
g71
NtRp1969
(dp1970
g74
(dp1971
g82
I4
ssg83
g1965
sg76
(lp1972
g832
asbasbasbag69
(g85
g71
NtRp1973
(dp1974
g74
(dp1975
sg83
g1822
sg76
(lp1976
g69
(g90
g71
NtRp1977
(dp1978
g74
(dp1979
g94
g95
ssg83
g1973
sg76
(lp1980
g1039
asbag69
(g90
g71
NtRp1981
(dp1982
g74
(dp1983
g101
g102
ssg83
g1973
sg76
(lp1984
S':'
asbag69
(g90
g71
NtRp1985
(dp1986
g74
(dp1987
sg83
g1973
sg76
(lp1988
g69
(g70
g71
NtRp1989
(dp1990
g74
(dp1991
g82
I4
ssg83
g1985
sg76
(lp1992
g112
asbasbasbag69
(g85
g71
NtRp1993
(dp1994
g74
(dp1995
sg83
g1822
sg76
(lp1996
g69
(g90
g71
NtRp1997
(dp1998
g74
(dp1999
g94
g95
ssg83
g1993
sg76
(lp2000
g1060
asbag69
(g90
g71
NtRp2001
(dp2002
g74
(dp2003
g101
g102
ssg83
g1993
sg76
(lp2004
S':'
asbag69
(g90
g71
NtRp2005
(dp2006
g74
(dp2007
sg83
g1993
sg76
(lp2008
g69
(g70
g71
NtRp2009
(dp2010
g74
(dp2011
g82
I4
ssg83
g2005
sg76
(lp2012
g112
asbasbasbag69
(g85
g71
NtRp2013
(dp2014
g74
(dp2015
sg83
g1822
sg76
(lp2016
g69
(g90
g71
NtRp2017
(dp2018
g74
(dp2019
g94
g95
ssg83
g2013
sg76
(lp2020
g1081
asbag69
(g90
g71
NtRp2021
(dp2022
g74
(dp2023
g101
g102
ssg83
g2013
sg76
(lp2024
S':'
asbag69
(g90
g71
NtRp2025
(dp2026
g74
(dp2027
sg83
g2013
sg76
(lp2028
g69
(g70
g71
NtRp2029
(dp2030
g74
(dp2031
g82
I4
ssg83
g2025
sg76
(lp2032
g69
(g78
g71
NtRp2033
(dp2034
g74
(dp2035
g82
I3
ssg83
Nsg76
(lp2036
g69
(g85
g71
NtRp2037
(dp2038
g74
(dp2039
sg83
g2033
sg76
(lp2040
g69
(g90
g71
NtRp2041
(dp2042
g74
(dp2043
sg83
g2037
sg76
(lp2044
g69
(g70
g71
NtRp2045
(dp2046
g74
(dp2047
g82
I3
ssg83
g2041
sg76
(lp2048
g1110
asbasbasbag69
(g85
g71
NtRp2049
(dp2050
g74
(dp2051
sg83
g2033
sg76
(lp2052
g69
(g90
g71
NtRp2053
(dp2054
g74
(dp2055
sg83
g2049
sg76
(lp2056
g69
(g70
g71
NtRp2057
(dp2058
g74
(dp2059
g82
I3
ssg83
g2053
sg76
(lp2060
g1123
asbasbasbag69
(g85
g71
NtRp2061
(dp2062
g74
(dp2063
sg83
g2033
sg76
(lp2064
g69
(g90
g71
NtRp2065
(dp2066
g74
(dp2067
sg83
g2061
sg76
(lp2068
g69
(g70
g71
NtRp2069
(dp2070
g74
(dp2071
g82
I3
ssg83
g2065
sg76
(lp2072
g1136
asbasbasbag69
(g85
g71
NtRp2073
(dp2074
g74
(dp2075
sg83
g2033
sg76
(lp2076
g69
(g90
g71
NtRp2077
(dp2078
g74
(dp2079
sg83
g2073
sg76
(lp2080
g69
(g70
g71
NtRp2081
(dp2082
g74
(dp2083
g82
I3
ssg83
g2077
sg76
(lp2084
g1149
asbasbasbag69
(g85
g71
NtRp2085
(dp2086
g74
(dp2087
sg83
g2033
sg76
(lp2088
g69
(g90
g71
NtRp2089
(dp2090
g74
(dp2091
sg83
g2085
sg76
(lp2092
g69
(g70
g71
NtRp2093
(dp2094
g74
(dp2095
g82
I3
ssg83
g2089
sg76
(lp2096
g1162
asbasbasbasbasbasbasbag69
(g85
g71
NtRp2097
(dp2098
g74
(dp2099
sg83
g1822
sg76
(lp2100
g69
(g90
g71
NtRp2101
(dp2102
g74
(dp2103
g94
g95
ssg83
g2097
sg76
(lp2104
g1430
asbag69
(g90
g71
NtRp2105
(dp2106
g74
(dp2107
g101
g102
ssg83
g2097
sg76
(lp2108
S':'
asbag69
(g90
g71
NtRp2109
(dp2110
g74
(dp2111
sg83
g2097
sg76
(lp2112
g69
(g70
g71
NtRp2113
(dp2114
g74
(dp2115
g82
I4
ssg83
g2109
sg76
(lp2116
g69
(g78
g71
NtRp2117
(dp2118
g74
(dp2119
g82
I3
ssg83
Nsg76
(lp2120
g69
(g85
g71
NtRp2121
(dp2122
g74
(dp2123
sg83
g2117
sg76
(lp2124
g69
(g90
g71
NtRp2125
(dp2126
g74
(dp2127
sg83
g2121
sg76
(lp2128
g69
(g70
g71
NtRp2129
(dp2130
g74
(dp2131
g82
I3
ssg83
g2125
sg76
(lp2132
S'2'
asbasbasbag69
(g85
g71
NtRp2133
(dp2134
g74
(dp2135
sg83
g2117
sg76
(lp2136
g69
(g90
g71
NtRp2137
(dp2138
g74
(dp2139
sg83
g2133
sg76
(lp2140
g69
(g70
g71
NtRp2141
(dp2142
g74
(dp2143
g82
I3
ssg83
g2137
sg76
(lp2144
S'3'
asbasbasbag69
(g85
g71
NtRp2145
(dp2146
g74
(dp2147
sg83
g2117
sg76
(lp2148
g69
(g90
g71
NtRp2149
(dp2150
g74
(dp2151
sg83
g2145
sg76
(lp2152
g69
(g70
g71
NtRp2153
(dp2154
g74
(dp2155
g82
I3
ssg83
g2149
sg76
(lp2156
S'0'
asbasbasbag69
(g85
g71
NtRp2157
(dp2158
g74
(dp2159
sg83
g2117
sg76
(lp2160
g69
(g90
g71
NtRp2161
(dp2162
g74
(dp2163
sg83
g2157
sg76
(lp2164
g69
(g70
g71
NtRp2165
(dp2166
g74
(dp2167
g82
I3
ssg83
g2161
sg76
(lp2168
S'datetime.datetime(2012, 12, 4, 10, 55, 53)'
p2169
asbasbasbag69
(g85
g71
NtRp2170
(dp2171
g74
(dp2172
sg83
g2117
sg76
(lp2173
g69
(g90
g71
NtRp2174
(dp2175
g74
(dp2176
sg83
g2170
sg76
(lp2177
g69
(g70
g71
NtRp2178
(dp2179
g74
(dp2180
g82
I3
ssg83
g2174
sg76
(lp2181
g1508
asbasbasbasbasbasbasbasbasbasbasbag69
(g85
g71
NtRp2182
(dp2183
g74
(dp2184
sg83
g79
sg76
(lp2185
g69
(g90
g71
NtRp2186
(dp2187
g74
(dp2188
g94
g95
ssg83
g2182
sg76
(lp2189
S'is_https'
p2190
asbag69
(g90
g71
NtRp2191
(dp2192
g74
(dp2193
g101
g102
ssg83
g2182
sg76
(lp2194
S':'
asbag69
(g90
g71
NtRp2195
(dp2196
g74
(dp2197
sg83
g2182
sg76
(lp2198
g69
(g70
g71
NtRp2199
(dp2200
g74
(dp2201
g82
I5
ssg83
g2195
sg76
(lp2202
g112
asbasbasbag69
(g85
g71
NtRp2203
(dp2204
g74
(dp2205
sg83
g79
sg76
(lp2206
g69
(g90
g71
NtRp2207
(dp2208
g74
(dp2209
g94
g95
ssg83
g2203
sg76
(lp2210
S'is_local'
p2211
asbag69
(g90
g71
NtRp2212
(dp2213
g74
(dp2214
g101
g102
ssg83
g2203
sg76
(lp2215
S':'
asbag69
(g90
g71
NtRp2216
(dp2217
g74
(dp2218
sg83
g2203
sg76
(lp2219
g69
(g70
g71
NtRp2220
(dp2221
g74
(dp2222
g82
I5
ssg83
g2216
sg76
(lp2223
g1617
asbasbasbag69
(g85
g71
NtRp2224
(dp2225
g74
(dp2226
sg83
g79
sg76
(lp2227
g69
(g90
g71
NtRp2228
(dp2229
g74
(dp2230
g94
g95
ssg83
g2224
sg76
(lp2231
S'is_restful'
p2232
asbag69
(g90
g71
NtRp2233
(dp2234
g74
(dp2235
g101
g102
ssg83
g2224
sg76
(lp2236
S':'
asbag69
(g90
g71
NtRp2237
(dp2238
g74
(dp2239
sg83
g2224
sg76
(lp2240
g69
(g70
g71
NtRp2241
(dp2242
g74
(dp2243
g82
I5
ssg83
g2237
sg76
(lp2244
g112
asbasbasbag69
(g85
g71
NtRp2245
(dp2246
g74
(dp2247
sg83
g79
sg76
(lp2248
g69
(g90
g71
NtRp2249
(dp2250
g74
(dp2251
g94
g95
ssg83
g2245
sg76
(lp2252
S'now'
p2253
asbag69
(g90
g71
NtRp2254
(dp2255
g74
(dp2256
g101
g102
ssg83
g2245
sg76
(lp2257
S':'
asbag69
(g90
g71
NtRp2258
(dp2259
g74
(dp2260
sg83
g2245
sg76
(lp2261
g69
(g70
g71
NtRp2262
(dp2263
g74
(dp2264
g82
I5
ssg83
g2258
sg76
(lp2265
S'datetime.datetime(2013, 1, 11, 3, 30, 46, 251551)'
p2266
asbasbasbag69
(g85
g71
NtRp2267
(dp2268
g74
(dp2269
sg83
g79
sg76
(lp2270
g69
(g90
g71
NtRp2271
(dp2272
g74
(dp2273
g94
g95
ssg83
g2267
sg76
(lp2274
S'post_vars'
p2275
asbag69
(g90
g71
NtRp2276
(dp2277
g74
(dp2278
g101
g102
ssg83
g2267
sg76
(lp2279
S':'
asbag69
(g90
g71
NtRp2280
(dp2281
g74
(dp2282
sg83
g2267
sg76
(lp2283
g69
(g70
g71
NtRp2284
(dp2285
g74
(dp2286
g82
I5
ssg83
g2280
sg76
(lp2287
g69
(g78
g71
NtRp2288
(dp2289
g74
(dp2290
g82
I4
ssg83
Nsg76
(lp2291
sbasbasbasbag69
(g85
g71
NtRp2292
(dp2293
g74
(dp2294
sg83
g79
sg76
(lp2295
g69
(g90
g71
NtRp2296
(dp2297
g74
(dp2298
g94
g95
ssg83
g2292
sg76
(lp2299
S'raw_args'
p2300
asbag69
(g90
g71
NtRp2301
(dp2302
g74
(dp2303
g101
g102
ssg83
g2292
sg76
(lp2304
S':'
asbag69
(g90
g71
NtRp2305
(dp2306
g74
(dp2307
sg83
g2292
sg76
(lp2308
g69
(g70
g71
NtRp2309
(dp2310
g74
(dp2311
g82
I5
ssg83
g2305
sg76
(lp2312
S''
asbasbasbag69
(g85
g71
NtRp2313
(dp2314
g74
(dp2315
sg83
g79
sg76
(lp2316
g69
(g90
g71
NtRp2317
(dp2318
g74
(dp2319
g94
g95
ssg83
g2313
sg76
(lp2320
S'raw_extension'
p2321
asbag69
(g90
g71
NtRp2322
(dp2323
g74
(dp2324
g101
g102
ssg83
g2313
sg76
(lp2325
S':'
asbag69
(g90
g71
NtRp2326
(dp2327
g74
(dp2328
sg83
g2313
sg76
(lp2329
g69
(g70
g71
NtRp2330
(dp2331
g74
(dp2332
g82
I5
ssg83
g2326
sg76
(lp2333
S'None'
p2334
asbasbasbag69
(g85
g71
NtRp2335
(dp2336
g74
(dp2337
sg83
g79
sg76
(lp2338
g69
(g90
g71
NtRp2339
(dp2340
g74
(dp2341
g94
g95
ssg83
g2335
sg76
(lp2342
S'url'
p2343
asbag69
(g90
g71
NtRp2344
(dp2345
g74
(dp2346
g101
g102
ssg83
g2335
sg76
(lp2347
S':'
asbag69
(g90
g71
NtRp2348
(dp2349
g74
(dp2350
sg83
g2335
sg76
(lp2351
g69
(g70
g71
NtRp2352
(dp2353
g74
(dp2354
g82
I5
ssg83
g2348
sg76
(lp2355
g1184
asbasbasbag69
(g85
g71
NtRp2356
(dp2357
g74
(dp2358
sg83
g79
sg76
(lp2359
g69
(g90
g71
NtRp2360
(dp2361
g74
(dp2362
g94
g95
ssg83
g2356
sg76
(lp2363
S'utcnow'
p2364
asbag69
(g90
g71
NtRp2365
(dp2366
g74
(dp2367
g101
g102
ssg83
g2356
sg76
(lp2368
S':'
asbag69
(g90
g71
NtRp2369
(dp2370
g74
(dp2371
sg83
g2356
sg76
(lp2372
g69
(g70
g71
NtRp2373
(dp2374
g74
(dp2375
g82
I5
ssg83
g2369
sg76
(lp2376
S'datetime.datetime(2013, 1, 11, 6, 30, 46, 251591)'
p2377
asbasbasbag69
(g85
g71
NtRp2378
(dp2379
g74
(dp2380
sg83
g79
sg76
(lp2381
g69
(g90
g71
NtRp2382
(dp2383
g74
(dp2384
g94
g95
ssg83
g2378
sg76
(lp2385
S'uuid'
p2386
asbag69
(g90
g71
NtRp2387
(dp2388
g74
(dp2389
g101
g102
ssg83
g2378
sg76
(lp2390
S':'
asbag69
(g90
g71
NtRp2391
(dp2392
g74
(dp2393
sg83
g2378
sg76
(lp2394
g69
(g70
g71
NtRp2395
(dp2396
g74
(dp2397
g82
I5
ssg83
g2391
sg76
(lp2398
S'sueldos/127.0.0.1.2013-01-11.03-30-46.363d6d65-c951-4502-b364-4f9f5d4ab979'
p2399
asbasbasbag69
(g85
g71
NtRp2400
(dp2401
g74
(dp2402
sg83
g79
sg76
(lp2403
g69
(g90
g71
NtRp2404
(dp2405
g74
(dp2406
g94
g95
ssg83
g2400
sg76
(lp2407
S'vars'
p2408
asbag69
(g90
g71
NtRp2409
(dp2410
g74
(dp2411
g101
g102
ssg83
g2400
sg76
(lp2412
S':'
asbag69
(g90
g71
NtRp2413
(dp2414
g74
(dp2415
sg83
g2400
sg76
(lp2416
g69
(g70
g71
NtRp2417
(dp2418
g74
(dp2419
g82
I5
ssg83
g2413
sg76
(lp2420
g69
(g78
g71
NtRp2421
(dp2422
g74
(dp2423
g82
I4
ssg83
Nsg76
(lp2424
sbasbasbasbag69
(g85
g71
NtRp2425
(dp2426
g74
(dp2427
sg83
g79
sg76
(lp2428
g69
(g90
g71
NtRp2429
(dp2430
g74
(dp2431
g94
g95
ssg83
g2425
sg76
(lp2432
S'wsgi'
p2433
asbag69
(g90
g71
NtRp2434
(dp2435
g74
(dp2436
g101
g102
ssg83
g2425
sg76
(lp2437
S':'
asbag69
(g90
g71
NtRp2438
(dp2439
g74
(dp2440
sg83
g2425
sg76
(lp2441
g69
(g70
g71
NtRp2442
(dp2443
g74
(dp2444
g82
I5
ssg83
g2438
sg76
(lp2445
g69
(g78
g71
NtRp2446
(dp2447
g74
(dp2448
g82
I4
ssg83
Nsg76
(lp2449
g69
(g85
g71
NtRp2450
(dp2451
g74
(dp2452
sg83
g2446
sg76
(lp2453
g69
(g90
g71
NtRp2454
(dp2455
g74
(dp2456
g94
g95
ssg83
g2450
sg76
(lp2457
S'environ'
p2458
asbag69
(g90
g71
NtRp2459
(dp2460
g74
(dp2461
g101
g102
ssg83
g2450
sg76
(lp2462
S':'
asbag69
(g90
g71
NtRp2463
(dp2464
g74
(dp2465
sg83
g2450
sg76
(lp2466
g69
(g70
g71
NtRp2467
(dp2468
g74
(dp2469
g82
I4
ssg83
g2463
sg76
(lp2470
g69
(g78
g71
NtRp2471
(dp2472
g74
(dp2473
g82
I3
ssg83
Nsg76
(lp2474
g69
(g85
g71
NtRp2475
(dp2476
g74
(dp2477
sg83
g2471
sg76
(lp2478
g69
(g90
g71
NtRp2479
(dp2480
g74
(dp2481
g94
g95
ssg83
g2475
sg76
(lp2482
S'HTTP_ACCEPT'
p2483
asbag69
(g90
g71
NtRp2484
(dp2485
g74
(dp2486
g101
g102
ssg83
g2475
sg76
(lp2487
S':'
asbag69
(g90
g71
NtRp2488
(dp2489
g74
(dp2490
sg83
g2475
sg76
(lp2491
g69
(g70
g71
NtRp2492
(dp2493
g74
(dp2494
g82
I3
ssg83
g2488
sg76
(lp2495
g854
asbasbasbag69
(g85
g71
NtRp2496
(dp2497
g74
(dp2498
sg83
g2471
sg76
(lp2499
g69
(g90
g71
NtRp2500
(dp2501
g74
(dp2502
g94
g95
ssg83
g2496
sg76
(lp2503
S'HTTP_ACCEPT_ENCODING'
p2504
asbag69
(g90
g71
NtRp2505
(dp2506
g74
(dp2507
g101
g102
ssg83
g2496
sg76
(lp2508
S':'
asbag69
(g90
g71
NtRp2509
(dp2510
g74
(dp2511
sg83
g2496
sg76
(lp2512
g69
(g70
g71
NtRp2513
(dp2514
g74
(dp2515
g82
I3
ssg83
g2509
sg76
(lp2516
g876
asbasbasbag69
(g85
g71
NtRp2517
(dp2518
g74
(dp2519
sg83
g2471
sg76
(lp2520
g69
(g90
g71
NtRp2521
(dp2522
g74
(dp2523
g94
g95
ssg83
g2517
sg76
(lp2524
S'HTTP_ACCEPT_LANGUAGE'
p2525
asbag69
(g90
g71
NtRp2526
(dp2527
g74
(dp2528
g101
g102
ssg83
g2517
sg76
(lp2529
S':'
asbag69
(g90
g71
NtRp2530
(dp2531
g74
(dp2532
sg83
g2517
sg76
(lp2533
g69
(g70
g71
NtRp2534
(dp2535
g74
(dp2536
g82
I3
ssg83
g2530
sg76
(lp2537
g898
asbasbasbag69
(g85
g71
NtRp2538
(dp2539
g74
(dp2540
sg83
g2471
sg76
(lp2541
g69
(g90
g71
NtRp2542
(dp2543
g74
(dp2544
g94
g95
ssg83
g2538
sg76
(lp2545
S'HTTP_CACHE_CONTROL'
p2546
asbag69
(g90
g71
NtRp2547
(dp2548
g74
(dp2549
g101
g102
ssg83
g2538
sg76
(lp2550
S':'
asbag69
(g90
g71
NtRp2551
(dp2552
g74
(dp2553
sg83
g2538
sg76
(lp2554
g69
(g70
g71
NtRp2555
(dp2556
g74
(dp2557
g82
I3
ssg83
g2551
sg76
(lp2558
g920
asbasbasbag69
(g85
g71
NtRp2559
(dp2560
g74
(dp2561
sg83
g2471
sg76
(lp2562
g69
(g90
g71
NtRp2563
(dp2564
g74
(dp2565
g94
g95
ssg83
g2559
sg76
(lp2566
S'HTTP_CONNECTION'
p2567
asbag69
(g90
g71
NtRp2568
(dp2569
g74
(dp2570
g101
g102
ssg83
g2559
sg76
(lp2571
S':'
asbag69
(g90
g71
NtRp2572
(dp2573
g74
(dp2574
sg83
g2559
sg76
(lp2575
g69
(g70
g71
NtRp2576
(dp2577
g74
(dp2578
g82
I3
ssg83
g2572
sg76
(lp2579
g942
asbasbasbag69
(g85
g71
NtRp2580
(dp2581
g74
(dp2582
sg83
g2471
sg76
(lp2583
g69
(g90
g71
NtRp2584
(dp2585
g74
(dp2586
g94
g95
ssg83
g2580
sg76
(lp2587
S'HTTP_COOKIE'
p2588
asbag69
(g90
g71
NtRp2589
(dp2590
g74
(dp2591
g101
g102
ssg83
g2580
sg76
(lp2592
S':'
asbag69
(g90
g71
NtRp2593
(dp2594
g74
(dp2595
sg83
g2580
sg76
(lp2596
g69
(g70
g71
NtRp2597
(dp2598
g74
(dp2599
g82
I3
ssg83
g2593
sg76
(lp2600
g964
asbasbasbag69
(g85
g71
NtRp2601
(dp2602
g74
(dp2603
sg83
g2471
sg76
(lp2604
g69
(g90
g71
NtRp2605
(dp2606
g74
(dp2607
g94
g95
ssg83
g2601
sg76
(lp2608
S'HTTP_HOST'
p2609
asbag69
(g90
g71
NtRp2610
(dp2611
g74
(dp2612
g101
g102
ssg83
g2601
sg76
(lp2613
S':'
asbag69
(g90
g71
NtRp2614
(dp2615
g74
(dp2616
sg83
g2601
sg76
(lp2617
g69
(g70
g71
NtRp2618
(dp2619
g74
(dp2620
g82
I3
ssg83
g2614
sg76
(lp2621
g986
asbasbasbag69
(g85
g71
NtRp2622
(dp2623
g74
(dp2624
sg83
g2471
sg76
(lp2625
g69
(g90
g71
NtRp2626
(dp2627
g74
(dp2628
g94
g95
ssg83
g2622
sg76
(lp2629
S'HTTP_REFERER'
p2630
asbag69
(g90
g71
NtRp2631
(dp2632
g74
(dp2633
g101
g102
ssg83
g2622
sg76
(lp2634
S':'
asbag69
(g90
g71
NtRp2635
(dp2636
g74
(dp2637
sg83
g2622
sg76
(lp2638
g69
(g70
g71
NtRp2639
(dp2640
g74
(dp2641
g82
I3
ssg83
g2635
sg76
(lp2642
g1008
asbasbasbag69
(g85
g71
NtRp2643
(dp2644
g74
(dp2645
sg83
g2471
sg76
(lp2646
g69
(g90
g71
NtRp2647
(dp2648
g74
(dp2649
g94
g95
ssg83
g2643
sg76
(lp2650
S'HTTP_USER_AGENT'
p2651
asbag69
(g90
g71
NtRp2652
(dp2653
g74
(dp2654
g101
g102
ssg83
g2643
sg76
(lp2655
S':'
asbag69
(g90
g71
NtRp2656
(dp2657
g74
(dp2658
sg83
g2643
sg76
(lp2659
g69
(g70
g71
NtRp2660
(dp2661
g74
(dp2662
g82
I3
ssg83
g2656
sg76
(lp2663
g1030
asbasbasbag69
(g85
g71
NtRp2664
(dp2665
g74
(dp2666
sg83
g2471
sg76
(lp2667
g69
(g90
g71
NtRp2668
(dp2669
g74
(dp2670
g94
g95
ssg83
g2664
sg76
(lp2671
S'PATH_INFO'
p2672
asbag69
(g90
g71
NtRp2673
(dp2674
g74
(dp2675
g101
g102
ssg83
g2664
sg76
(lp2676
S':'
asbag69
(g90
g71
NtRp2677
(dp2678
g74
(dp2679
sg83
g2664
sg76
(lp2680
g69
(g70
g71
NtRp2681
(dp2682
g74
(dp2683
g82
I3
ssg83
g2677
sg76
(lp2684
g1184
asbasbasbag69
(g85
g71
NtRp2685
(dp2686
g74
(dp2687
sg83
g2471
sg76
(lp2688
g69
(g90
g71
NtRp2689
(dp2690
g74
(dp2691
g94
g95
ssg83
g2685
sg76
(lp2692
S'QUERY_STRING'
p2693
asbag69
(g90
g71
NtRp2694
(dp2695
g74
(dp2696
g101
g102
ssg83
g2685
sg76
(lp2697
S':'
asbag69
(g90
g71
NtRp2698
(dp2699
g74
(dp2700
sg83
g2685
sg76
(lp2701
g69
(g70
g71
NtRp2702
(dp2703
g74
(dp2704
g82
I3
ssg83
g2698
sg76
(lp2705
S''
asbasbasbag69
(g85
g71
NtRp2706
(dp2707
g74
(dp2708
sg83
g2471
sg76
(lp2709
g69
(g90
g71
NtRp2710
(dp2711
g74
(dp2712
g94
g95
ssg83
g2706
sg76
(lp2713
S'REMOTE_ADDR'
p2714
asbag69
(g90
g71
NtRp2715
(dp2716
g74
(dp2717
g101
g102
ssg83
g2706
sg76
(lp2718
S':'
asbag69
(g90
g71
NtRp2719
(dp2720
g74
(dp2721
sg83
g2706
sg76
(lp2722
g69
(g70
g71
NtRp2723
(dp2724
g74
(dp2725
g82
I3
ssg83
g2719
sg76
(lp2726
g224
asbasbasbag69
(g85
g71
NtRp2727
(dp2728
g74
(dp2729
sg83
g2471
sg76
(lp2730
g69
(g90
g71
NtRp2731
(dp2732
g74
(dp2733
g94
g95
ssg83
g2727
sg76
(lp2734
S'REMOTE_PORT'
p2735
asbag69
(g90
g71
NtRp2736
(dp2737
g74
(dp2738
g101
g102
ssg83
g2727
sg76
(lp2739
S':'
asbag69
(g90
g71
NtRp2740
(dp2741
g74
(dp2742
sg83
g2727
sg76
(lp2743
g69
(g70
g71
NtRp2744
(dp2745
g74
(dp2746
g82
I3
ssg83
g2740
sg76
(lp2747
g1248
asbasbasbag69
(g85
g71
NtRp2748
(dp2749
g74
(dp2750
sg83
g2471
sg76
(lp2751
g69
(g90
g71
NtRp2752
(dp2753
g74
(dp2754
g94
g95
ssg83
g2748
sg76
(lp2755
S'REQUEST_METHOD'
p2756
asbag69
(g90
g71
NtRp2757
(dp2758
g74
(dp2759
g101
g102
ssg83
g2748
sg76
(lp2760
S':'
asbag69
(g90
g71
NtRp2761
(dp2762
g74
(dp2763
sg83
g2748
sg76
(lp2764
g69
(g70
g71
NtRp2765
(dp2766
g74
(dp2767
g82
I3
ssg83
g2761
sg76
(lp2768
g1270
asbasbasbag69
(g85
g71
NtRp2769
(dp2770
g74
(dp2771
sg83
g2471
sg76
(lp2772
g69
(g90
g71
NtRp2773
(dp2774
g74
(dp2775
g94
g95
ssg83
g2769
sg76
(lp2776
S'REQUEST_URI'
p2777
asbag69
(g90
g71
NtRp2778
(dp2779
g74
(dp2780
g101
g102
ssg83
g2769
sg76
(lp2781
S':'
asbag69
(g90
g71
NtRp2782
(dp2783
g74
(dp2784
sg83
g2769
sg76
(lp2785
g69
(g70
g71
NtRp2786
(dp2787
g74
(dp2788
g82
I3
ssg83
g2782
sg76
(lp2789
g1184
asbasbasbag69
(g85
g71
NtRp2790
(dp2791
g74
(dp2792
sg83
g2471
sg76
(lp2793
g69
(g90
g71
NtRp2794
(dp2795
g74
(dp2796
g94
g95
ssg83
g2790
sg76
(lp2797
S'SCRIPT_NAME'
p2798
asbag69
(g90
g71
NtRp2799
(dp2800
g74
(dp2801
g101
g102
ssg83
g2790
sg76
(lp2802
S':'
asbag69
(g90
g71
NtRp2803
(dp2804
g74
(dp2805
sg83
g2790
sg76
(lp2806
g69
(g70
g71
NtRp2807
(dp2808
g74
(dp2809
g82
I3
ssg83
g2803
sg76
(lp2810
S''
asbasbasbag69
(g85
g71
NtRp2811
(dp2812
g74
(dp2813
sg83
g2471
sg76
(lp2814
g69
(g90
g71
NtRp2815
(dp2816
g74
(dp2817
g94
g95
ssg83
g2811
sg76
(lp2818
S'SERVER_NAME'
p2819
asbag69
(g90
g71
NtRp2820
(dp2821
g74
(dp2822
g101
g102
ssg83
g2811
sg76
(lp2823
S':'
asbag69
(g90
g71
NtRp2824
(dp2825
g74
(dp2826
sg83
g2811
sg76
(lp2827
g69
(g70
g71
NtRp2828
(dp2829
g74
(dp2830
g82
I3
ssg83
g2824
sg76
(lp2831
g1334
asbasbasbag69
(g85
g71
NtRp2832
(dp2833
g74
(dp2834
sg83
g2471
sg76
(lp2835
g69
(g90
g71
NtRp2836
(dp2837
g74
(dp2838
g94
g95
ssg83
g2832
sg76
(lp2839
S'SERVER_PORT'
p2840
asbag69
(g90
g71
NtRp2841
(dp2842
g74
(dp2843
g101
g102
ssg83
g2832
sg76
(lp2844
S':'
asbag69
(g90
g71
NtRp2845
(dp2846
g74
(dp2847
sg83
g2832
sg76
(lp2848
g69
(g70
g71
NtRp2849
(dp2850
g74
(dp2851
g82
I3
ssg83
g2845
sg76
(lp2852
g1356
asbasbasbag69
(g85
g71
NtRp2853
(dp2854
g74
(dp2855
sg83
g2471
sg76
(lp2856
g69
(g90
g71
NtRp2857
(dp2858
g74
(dp2859
g94
g95
ssg83
g2853
sg76
(lp2860
S'SERVER_PROTOCOL'
p2861
asbag69
(g90
g71
NtRp2862
(dp2863
g74
(dp2864
g101
g102
ssg83
g2853
sg76
(lp2865
S':'
asbag69
(g90
g71
NtRp2866
(dp2867
g74
(dp2868
sg83
g2853
sg76
(lp2869
g69
(g70
g71
NtRp2870
(dp2871
g74
(dp2872
g82
I3
ssg83
g2866
sg76
(lp2873
g1378
asbasbasbag69
(g85
g71
NtRp2874
(dp2875
g74
(dp2876
sg83
g2471
sg76
(lp2877
g69
(g90
g71
NtRp2878
(dp2879
g74
(dp2880
g94
g95
ssg83
g2874
sg76
(lp2881
S'SERVER_SOFTWARE'
p2882
asbag69
(g90
g71
NtRp2883
(dp2884
g74
(dp2885
g101
g102
ssg83
g2874
sg76
(lp2886
S':'
asbag69
(g90
g71
NtRp2887
(dp2888
g74
(dp2889
sg83
g2874
sg76
(lp2890
g69
(g70
g71
NtRp2891
(dp2892
g74
(dp2893
g82
I3
ssg83
g2887
sg76
(lp2894
g1400
asbasbasbag69
(g85
g71
NtRp2895
(dp2896
g74
(dp2897
sg83
g2471
sg76
(lp2898
g69
(g90
g71
NtRp2899
(dp2900
g74
(dp2901
g94
g95
ssg83
g2895
sg76
(lp2902
S'wsgi.errors'
p2903
asbag69
(g90
g71
NtRp2904
(dp2905
g74
(dp2906
g101
g102
ssg83
g2895
sg76
(lp2907
S':'
asbag69
(g90
g71
NtRp2908
(dp2909
g74
(dp2910
sg83
g2895
sg76
(lp2911
g69
(g70
g71
NtRp2912
(dp2913
g74
(dp2914
g82
I3
ssg83
g2908
sg76
(lp2915
S"<open file '<stderr>', mode 'w' at 0x7ff97c2cf270>"
p2916
asbasbasbag69
(g85
g71
NtRp2917
(dp2918
g74
(dp2919
sg83
g2471
sg76
(lp2920
g69
(g90
g71
NtRp2921
(dp2922
g74
(dp2923
g94
g95
ssg83
g2917
sg76
(lp2924
S'wsgi.file_wrapper'
p2925
asbag69
(g90
g71
NtRp2926
(dp2927
g74
(dp2928
g101
g102
ssg83
g2917
sg76
(lp2929
S':'
asbag69
(g90
g71
NtRp2930
(dp2931
g74
(dp2932
sg83
g2917
sg76
(lp2933
g69
(g70
g71
NtRp2934
(dp2935
g74
(dp2936
g82
I3
ssg83
g2930
sg76
(lp2937
S'<class wsgiref.util.FileWrapper at 0x1a0cc80>'
p2938
asbasbasbag69
(g85
g71
NtRp2939
(dp2940
g74
(dp2941
sg83
g2471
sg76
(lp2942
g69
(g90
g71
NtRp2943
(dp2944
g74
(dp2945
g94
g95
ssg83
g2939
sg76
(lp2946
S'wsgi.input'
p2947
asbag69
(g90
g71
NtRp2948
(dp2949
g74
(dp2950
g101
g102
ssg83
g2939
sg76
(lp2951
S':'
asbag69
(g90
g71
NtRp2952
(dp2953
g74
(dp2954
sg83
g2939
sg76
(lp2955
g69
(g70
g71
NtRp2956
(dp2957
g74
(dp2958
g82
I3
ssg83
g2952
sg76
(lp2959
S'<cStringIO.StringO object at 0x2ea4068>'
p2960
asbasbasbag69
(g85
g71
NtRp2961
(dp2962
g74
(dp2963
sg83
g2471
sg76
(lp2964
g69
(g90
g71
NtRp2965
(dp2966
g74
(dp2967
g94
g95
ssg83
g2961
sg76
(lp2968
S'wsgi.multiprocess'
p2969
asbag69
(g90
g71
NtRp2970
(dp2971
g74
(dp2972
g101
g102
ssg83
g2961
sg76
(lp2973
S':'
asbag69
(g90
g71
NtRp2974
(dp2975
g74
(dp2976
sg83
g2961
sg76
(lp2977
g69
(g70
g71
NtRp2978
(dp2979
g74
(dp2980
g82
I3
ssg83
g2974
sg76
(lp2981
g112
asbasbasbag69
(g85
g71
NtRp2982
(dp2983
g74
(dp2984
sg83
g2471
sg76
(lp2985
g69
(g90
g71
NtRp2986
(dp2987
g74
(dp2988
g94
g95
ssg83
g2982
sg76
(lp2989
S'wsgi.multithread'
p2990
asbag69
(g90
g71
NtRp2991
(dp2992
g74
(dp2993
g101
g102
ssg83
g2982
sg76
(lp2994
S':'
asbag69
(g90
g71
NtRp2995
(dp2996
g74
(dp2997
sg83
g2982
sg76
(lp2998
g69
(g70
g71
NtRp2999
(dp3000
g74
(dp3001
g82
I3
ssg83
g2995
sg76
(lp3002
g1617
asbasbasbag69
(g85
g71
NtRp3003
(dp3004
g74
(dp3005
sg83
g2471
sg76
(lp3006
g69
(g90
g71
NtRp3007
(dp3008
g74
(dp3009
g94
g95
ssg83
g3003
sg76
(lp3010
S'wsgi.run_once'
p3011
asbag69
(g90
g71
NtRp3012
(dp3013
g74
(dp3014
g101
g102
ssg83
g3003
sg76
(lp3015
S':'
asbag69
(g90
g71
NtRp3016
(dp3017
g74
(dp3018
sg83
g3003
sg76
(lp3019
g69
(g70
g71
NtRp3020
(dp3021
g74
(dp3022
g82
I3
ssg83
g3016
sg76
(lp3023
g112
asbasbasbag69
(g85
g71
NtRp3024
(dp3025
g74
(dp3026
sg83
g2471
sg76
(lp3027
g69
(g90
g71
NtRp3028
(dp3029
g74
(dp3030
g94
g95
ssg83
g3024
sg76
(lp3031
S'wsgi.url_scheme'
p3032
asbag69
(g90
g71
NtRp3033
(dp3034
g74
(dp3035
g101
g102
ssg83
g3024
sg76
(lp3036
S':'
asbag69
(g90
g71
NtRp3037
(dp3038
g74
(dp3039
sg83
g3024
sg76
(lp3040
g69
(g70
g71
NtRp3041
(dp3042
g74
(dp3043
g82
I3
ssg83
g3037
sg76
(lp3044
g1660
asbasbasbag69
(g85
g71
NtRp3045
(dp3046
g74
(dp3047
sg83
g2471
sg76
(lp3048
g69
(g90
g71
NtRp3049
(dp3050
g74
(dp3051
g94
g95
ssg83
g3045
sg76
(lp3052
S'wsgi.version'
p3053
asbag69
(g90
g71
NtRp3054
(dp3055
g74
(dp3056
g101
g102
ssg83
g3045
sg76
(lp3057
S':'
asbag69
(g90
g71
NtRp3058
(dp3059
g74
(dp3060
sg83
g3045
sg76
(lp3061
g69
(g70
g71
NtRp3062
(dp3063
g74
(dp3064
g82
I3
ssg83
g3058
sg76
(lp3065
S'1'
asbasbasbasbasbasbasbasbasbasbasbasbasbsS'frames'
p3066
(lp3067
(dp3068
S'file'
p3069
S'/home/marco/projects/contabilidad/web2py/gluon/restricted.py'
p3070
sS'dump'
p3071
(dp3072
S'code'
p3073
S"'# -*- coding: utf-8 -*-\\n# this file is released ...ud())\\n\\nresponse._vars=response._caller(clientes)\\n'"
p3074
sS'layer'
p3075
S"'/home/marco/projects/contabilidad/web2py/applications/sueldos/controllers/default.py'"
p3076
sS'global compile2'
p3077
S'<function compile2>'
p3078
sS'ccode'
p3079
S'undefined'
p3080
ssS'lnum'
p3081
I211
sS'lines'
p3082
(dp3083
I206
S"    environment['__name__'] = '__restricted__'"
p3084
sI207
S'    try:'
p3085
sI208
S'        if isinstance(code, types.CodeType):'
p3086
sI209
S'            ccode = code'
p3087
sI210
S'        else:'
p3088
sI211
S'            ccode = compile2(code, layer)'
p3089
sI212
S'        exec ccode in environment'
p3090
sI213
S'    except HTTP:'
p3091
sI214
S'        raise'
p3092
sI215
S'    except RestrictedError:'
p3093
ssS'call'
p3094
S"(code='# -*- coding: utf-8 -*-\\n# this file is released ...ud())\\n\\nresponse._vars=response._caller(clientes)\\n', environment={'A': <class 'gluon.html.A'>, 'Auth': <class 'gluon.tools.Auth'>, 'B': <class 'gluon.html.B'>, 'BEAUTIFY': <class 'gluon.html.BEAUTIFY'>, 'BODY': <class 'gluon.html.BODY'>, 'BR': <class 'gluon.html.BR'>, 'BUTTON': <class 'gluon.html.BUTTON'>, 'CAT': <class 'gluon.html.CAT'>, 'CENTER': <class 'gluon.html.CENTER'>, 'CLEANUP': <class 'gluon.validators.CLEANUP'>, ...}, layer='/home/marco/projects/contabilidad/web2py/applications/sueldos/controllers/default.py')"
p3095
sS'func'
p3096
S'restricted'
p3097
sa(dp3098
g3069
S'/home/marco/projects/contabilidad/web2py/gluon/restricted.py'
p3099
sg3071
(dp3100
S'builtincompile'
p3101
S'<built-in function compile>'
p3102
sS'code'
p3103
S"'# -*- coding: utf-8 -*-\\n# this file is released ...ud())\\n\\nresponse._vars=response._caller(clientes)\\n'"
p3104
sS'code.rstrip'
p3105
S'<built-in method rstrip of str object>'
p3106
sS').replace'
p3107
g3080
sS'layer'
p3108
S"'/home/marco/projects/contabilidad/web2py/applications/sueldos/controllers/default.py'"
p3109
ssg3081
I194
sg3082
(dp3110
I192
S"    The +'\\n' is necessary else compile fails when code ends in a comment."
p3111
sI193
S'    """'
p3112
sI194
S"    return compile(code.rstrip().replace('\\r\\n', '\\n') + '\\n', layer, 'exec')"
p3113
sI195
S''
sI196
S''
sI197
S"def restricted(code, environment=None, layer='Unknown'):"
p3114
sI198
S'    """'
p3115
sI189
S''
sI190
S'def compile2(code, layer):'
p3116
sI191
S'    """'
p3117
ssg3094
S"(code='# -*- coding: utf-8 -*-\\n# this file is released ...ud())\\n\\nresponse._vars=response._caller(clientes)\\n', layer='/home/marco/projects/contabilidad/web2py/applications/sueldos/controllers/default.py')"
p3118
sg3096
S'compile2'
p3119
sasS'pyver'
p3120
S'Python 2.7.3: /usr/bin/python'
p3121
sS'session'
p3122
g69
(g70
g71
NtRp3123
(dp3124
g74
(dp3125
sg76
(lp3126
g69
(g78
g71
NtRp3127
(dp3128
g74
(dp3129
g82
I5
ssg83
Nsg76
(lp3130
g69
(g85
g71
NtRp3131
(dp3132
g74
(dp3133
sg83
g3127
sg76
(lp3134
g69
(g90
g71
NtRp3135
(dp3136
g74
(dp3137
g94
g95
ssg83
g3131
sg76
(lp3138
S'flash'
p3139
asbag69
(g90
g71
NtRp3140
(dp3141
g74
(dp3142
g101
g102
ssg83
g3131
sg76
(lp3143
S':'
asbag69
(g90
g71
NtRp3144
(dp3145
g74
(dp3146
sg83
g3131
sg76
(lp3147
g69
(g70
g71
NtRp3148
(dp3149
g74
(dp3150
g82
I5
ssg83
g3144
sg76
(lp3151
S'None'
p3152
asbasbasbasbasbsS'etype'
p3153
S"<type 'exceptions.SyntaxError'>"
p3154
sS'date'
p3155
S'Fri Jan 11 03:30:46 2013'
p3156
sS'response'
p3157
g69
(g70
g71
NtRp3158
(dp3159
g74
(dp3160
sg76
(lp3161
g69
(g78
g71
NtRp3162
(dp3163
g74
(dp3164
g82
I5
ssg83
Nsg76
(lp3165
g69
(g85
g71
NtRp3166
(dp3167
g74
(dp3168
sg83
g3162
sg76
(lp3169
g69
(g90
g71
NtRp3170
(dp3171
g74
(dp3172
g94
g95
ssg83
g3166
sg76
(lp3173
g167
asbag69
(g90
g71
NtRp3174
(dp3175
g74
(dp3176
g101
g102
ssg83
g3166
sg76
(lp3177
S':'
asbag69
(g90
g71
NtRp3178
(dp3179
g74
(dp3180
sg83
g3166
sg76
(lp3181
g69
(g70
g71
NtRp3182
(dp3183
g74
(dp3184
g82
I5
ssg83
g3178
sg76
(lp3185
S'<cStringIO.StringO object at 0x31f3068>'
p3186
asbasbasbag69
(g85
g71
NtRp3187
(dp3188
g74
(dp3189
sg83
g3162
sg76
(lp3190
g69
(g90
g71
NtRp3191
(dp3192
g74
(dp3193
g94
g95
ssg83
g3187
sg76
(lp3194
g255
asbag69
(g90
g71
NtRp3195
(dp3196
g74
(dp3197
g101
g102
ssg83
g3187
sg76
(lp3198
S':'
asbag69
(g90
g71
NtRp3199
(dp3200
g74
(dp3201
sg83
g3187
sg76
(lp3202
g69
(g70
g71
NtRp3203
(dp3204
g74
(dp3205
g82
I5
ssg83
g3199
sg76
(lp3206
g69
(g78
g71
NtRp3207
(dp3208
g74
(dp3209
g82
I4
ssg83
Nsg76
(lp3210
g69
(g85
g71
NtRp3211
(dp3212
g74
(dp3213
sg83
g3207
sg76
(lp3214
g69
(g90
g71
NtRp3215
(dp3216
g74
(dp3217
g94
g95
ssg83
g3211
sg76
(lp3218
S'session_id_sueldos'
p3219
asbag69
(g90
g71
NtRp3220
(dp3221
g74
(dp3222
g101
g102
ssg83
g3211
sg76
(lp3223
S':'
asbag69
(g90
g71
NtRp3224
(dp3225
g74
(dp3226
sg83
g3211
sg76
(lp3227
g69
(g70
g71
NtRp3228
(dp3229
g74
(dp3230
g82
I4
ssg83
g3224
sg76
(lp3231
g487
ag69
(g78
g71
NtRp3232
(dp3233
g74
(dp3234
g82
I3
ssg83
Nsg76
(lp3235
g69
(g85
g71
NtRp3236
(dp3237
g74
(dp3238
sg83
g3232
sg76
(lp3239
g69
(g90
g71
NtRp3240
(dp3241
g74
(dp3242
g94
g95
ssg83
g3236
sg76
(lp3243
g306
asbag69
(g90
g71
NtRp3244
(dp3245
g74
(dp3246
g101
g102
ssg83
g3236
sg76
(lp3247
S':'
asbag69
(g90
g71
NtRp3248
(dp3249
g74
(dp3250
sg83
g3236
sg76
(lp3251
g69
(g70
g71
NtRp3252
(dp3253
g74
(dp3254
g82
I3
ssg83
g3248
sg76
(lp3255
S''
asbasbasbag69
(g85
g71
NtRp3256
(dp3257
g74
(dp3258
sg83
g3232
sg76
(lp3259
g69
(g90
g71
NtRp3260
(dp3261
g74
(dp3262
g94
g95
ssg83
g3256
sg76
(lp3263
g327
asbag69
(g90
g71
NtRp3264
(dp3265
g74
(dp3266
g101
g102
ssg83
g3256
sg76
(lp3267
S':'
asbag69
(g90
g71
NtRp3268
(dp3269
g74
(dp3270
sg83
g3256
sg76
(lp3271
g69
(g70
g71
NtRp3272
(dp3273
g74
(dp3274
g82
I3
ssg83
g3268
sg76
(lp3275
S''
asbasbasbag69
(g85
g71
NtRp3276
(dp3277
g74
(dp3278
sg83
g3232
sg76
(lp3279
g69
(g90
g71
NtRp3280
(dp3281
g74
(dp3282
g94
g95
ssg83
g3276
sg76
(lp3283
g348
asbag69
(g90
g71
NtRp3284
(dp3285
g74
(dp3286
g101
g102
ssg83
g3276
sg76
(lp3287
S':'
asbag69
(g90
g71
NtRp3288
(dp3289
g74
(dp3290
sg83
g3276
sg76
(lp3291
g69
(g70
g71
NtRp3292
(dp3293
g74
(dp3294
g82
I3
ssg83
g3288
sg76
(lp3295
S''
asbasbasbag69
(g85
g71
NtRp3296
(dp3297
g74
(dp3298
sg83
g3232
sg76
(lp3299
g69
(g90
g71
NtRp3300
(dp3301
g74
(dp3302
g94
g95
ssg83
g3296
sg76
(lp3303
g369
asbag69
(g90
g71
NtRp3304
(dp3305
g74
(dp3306
g101
g102
ssg83
g3296
sg76
(lp3307
S':'
asbag69
(g90
g71
NtRp3308
(dp3309
g74
(dp3310
sg83
g3296
sg76
(lp3311
g69
(g70
g71
NtRp3312
(dp3313
g74
(dp3314
g82
I3
ssg83
g3308
sg76
(lp3315
S''
asbasbasbag69
(g85
g71
NtRp3316
(dp3317
g74
(dp3318
sg83
g3232
sg76
(lp3319
g69
(g90
g71
NtRp3320
(dp3321
g74
(dp3322
g94
g95
ssg83
g3316
sg76
(lp3323
g390
asbag69
(g90
g71
NtRp3324
(dp3325
g74
(dp3326
g101
g102
ssg83
g3316
sg76
(lp3327
S':'
asbag69
(g90
g71
NtRp3328
(dp3329
g74
(dp3330
sg83
g3316
sg76
(lp3331
g69
(g70
g71
NtRp3332
(dp3333
g74
(dp3334
g82
I3
ssg83
g3328
sg76
(lp3335
S''
asbasbasbag69
(g85
g71
NtRp3336
(dp3337
g74
(dp3338
sg83
g3232
sg76
(lp3339
g69
(g90
g71
NtRp3340
(dp3341
g74
(dp3342
g94
g95
ssg83
g3336
sg76
(lp3343
g411
asbag69
(g90
g71
NtRp3344
(dp3345
g74
(dp3346
g101
g102
ssg83
g3336
sg76
(lp3347
S':'
asbag69
(g90
g71
NtRp3348
(dp3349
g74
(dp3350
sg83
g3336
sg76
(lp3351
g69
(g70
g71
NtRp3352
(dp3353
g74
(dp3354
g82
I3
ssg83
g3348
sg76
(lp3355
S'/'
asbasbasbag69
(g85
g71
NtRp3356
(dp3357
g74
(dp3358
sg83
g3232
sg76
(lp3359
g69
(g90
g71
NtRp3360
(dp3361
g74
(dp3362
g94
g95
ssg83
g3356
sg76
(lp3363
g432
asbag69
(g90
g71
NtRp3364
(dp3365
g74
(dp3366
g101
g102
ssg83
g3356
sg76
(lp3367
S':'
asbag69
(g90
g71
NtRp3368
(dp3369
g74
(dp3370
sg83
g3356
sg76
(lp3371
g69
(g70
g71
NtRp3372
(dp3373
g74
(dp3374
g82
I3
ssg83
g3368
sg76
(lp3375
S''
asbasbasbag69
(g85
g71
NtRp3376
(dp3377
g74
(dp3378
sg83
g3232
sg76
(lp3379
g69
(g90
g71
NtRp3380
(dp3381
g74
(dp3382
g94
g95
ssg83
g3376
sg76
(lp3383
g453
asbag69
(g90
g71
NtRp3384
(dp3385
g74
(dp3386
g101
g102
ssg83
g3376
sg76
(lp3387
S':'
asbag69
(g90
g71
NtRp3388
(dp3389
g74
(dp3390
sg83
g3376
sg76
(lp3391
g69
(g70
g71
NtRp3392
(dp3393
g74
(dp3394
g82
I3
ssg83
g3388
sg76
(lp3395
S''
asbasbasbasbasbasbasbasbasbasbasbag69
(g85
g71
NtRp3396
(dp3397
g74
(dp3398
sg83
g3162
sg76
(lp3399
g69
(g90
g71
NtRp3400
(dp3401
g74
(dp3402
g94
g95
ssg83
g3396
sg76
(lp3403
S'delimiters'
p3404
asbag69
(g90
g71
NtRp3405
(dp3406
g74
(dp3407
g101
g102
ssg83
g3396
sg76
(lp3408
S':'
asbag69
(g90
g71
NtRp3409
(dp3410
g74
(dp3411
sg83
g3396
sg76
(lp3412
g69
(g70
g71
NtRp3413
(dp3414
g74
(dp3415
g82
I5
ssg83
g3409
sg76
(lp3416
g69
(g78
g71
NtRp3417
(dp3418
g74
(dp3419
g82
I4
ssg83
Nsg76
(lp3420
g69
(g85
g71
NtRp3421
(dp3422
g74
(dp3423
sg83
g3417
sg76
(lp3424
g69
(g90
g71
NtRp3425
(dp3426
g74
(dp3427
sg83
g3421
sg76
(lp3428
g69
(g70
g71
NtRp3429
(dp3430
g74
(dp3431
g82
I4
ssg83
g3425
sg76
(lp3432
S'{{'
p3433
asbasbasbag69
(g85
g71
NtRp3434
(dp3435
g74
(dp3436
sg83
g3417
sg76
(lp3437
g69
(g90
g71
NtRp3438
(dp3439
g74
(dp3440
sg83
g3434
sg76
(lp3441
g69
(g70
g71
NtRp3442
(dp3443
g74
(dp3444
g82
I4
ssg83
g3438
sg76
(lp3445
S'}}'
p3446
asbasbasbasbasbasbasbag69
(g85
g71
NtRp3447
(dp3448
g74
(dp3449
sg83
g3162
sg76
(lp3450
g69
(g90
g71
NtRp3451
(dp3452
g74
(dp3453
g94
g95
ssg83
g3447
sg76
(lp3454
S'files'
p3455
asbag69
(g90
g71
NtRp3456
(dp3457
g74
(dp3458
g101
g102
ssg83
g3447
sg76
(lp3459
S':'
asbag69
(g90
g71
NtRp3460
(dp3461
g74
(dp3462
sg83
g3447
sg76
(lp3463
g69
(g70
g71
NtRp3464
(dp3465
g74
(dp3466
g82
I5
ssg83
g3460
sg76
(lp3467
g69
(g78
g71
NtRp3468
(dp3469
g74
(dp3470
g82
I4
ssg83
Nsg76
(lp3471
sbasbasbasbag69
(g85
g71
NtRp3472
(dp3473
g74
(dp3474
sg83
g3162
sg76
(lp3475
g69
(g90
g71
NtRp3476
(dp3477
g74
(dp3478
g94
g95
ssg83
g3472
sg76
(lp3479
S'flash'
p3480
asbag69
(g90
g71
NtRp3481
(dp3482
g74
(dp3483
g101
g102
ssg83
g3472
sg76
(lp3484
S':'
asbag69
(g90
g71
NtRp3485
(dp3486
g74
(dp3487
sg83
g3472
sg76
(lp3488
g69
(g70
g71
NtRp3489
(dp3490
g74
(dp3491
g82
I5
ssg83
g3485
sg76
(lp3492
S''
asbasbasbag69
(g85
g71
NtRp3493
(dp3494
g74
(dp3495
sg83
g3162
sg76
(lp3496
g69
(g90
g71
NtRp3497
(dp3498
g74
(dp3499
g94
g95
ssg83
g3493
sg76
(lp3500
S'generic_patterns'
p3501
asbag69
(g90
g71
NtRp3502
(dp3503
g74
(dp3504
g101
g102
ssg83
g3493
sg76
(lp3505
S':'
asbag69
(g90
g71
NtRp3506
(dp3507
g74
(dp3508
sg83
g3493
sg76
(lp3509
g69
(g70
g71
NtRp3510
(dp3511
g74
(dp3512
g82
I5
ssg83
g3506
sg76
(lp3513
g69
(g78
g71
NtRp3514
(dp3515
g74
(dp3516
g82
I4
ssg83
Nsg76
(lp3517
g69
(g85
g71
NtRp3518
(dp3519
g74
(dp3520
sg83
g3514
sg76
(lp3521
g69
(g90
g71
NtRp3522
(dp3523
g74
(dp3524
sg83
g3518
sg76
(lp3525
g69
(g70
g71
NtRp3526
(dp3527
g74
(dp3528
g82
I4
ssg83
g3522
sg76
(lp3529
S'*'
asbasbasbasbasbasbasbag69
(g85
g71
NtRp3530
(dp3531
g74
(dp3532
sg83
g3162
sg76
(lp3533
g69
(g90
g71
NtRp3534
(dp3535
g74
(dp3536
g94
g95
ssg83
g3530
sg76
(lp3537
S'google_analytics_id'
p3538
asbag69
(g90
g71
NtRp3539
(dp3540
g74
(dp3541
g101
g102
ssg83
g3530
sg76
(lp3542
S':'
asbag69
(g90
g71
NtRp3543
(dp3544
g74
(dp3545
sg83
g3530
sg76
(lp3546
g69
(g70
g71
NtRp3547
(dp3548
g74
(dp3549
g82
I5
ssg83
g3543
sg76
(lp3550
S'None'
p3551
asbasbasbag69
(g85
g71
NtRp3552
(dp3553
g74
(dp3554
sg83
g3162
sg76
(lp3555
g69
(g90
g71
NtRp3556
(dp3557
g74
(dp3558
g94
g95
ssg83
g3552
sg76
(lp3559
S'headers'
p3560
asbag69
(g90
g71
NtRp3561
(dp3562
g74
(dp3563
g101
g102
ssg83
g3552
sg76
(lp3564
S':'
asbag69
(g90
g71
NtRp3565
(dp3566
g74
(dp3567
sg83
g3552
sg76
(lp3568
g69
(g70
g71
NtRp3569
(dp3570
g74
(dp3571
g82
I5
ssg83
g3565
sg76
(lp3572
g69
(g78
g71
NtRp3573
(dp3574
g74
(dp3575
g82
I4
ssg83
Nsg76
(lp3576
g69
(g85
g71
NtRp3577
(dp3578
g74
(dp3579
sg83
g3573
sg76
(lp3580
g69
(g90
g71
NtRp3581
(dp3582
g74
(dp3583
g94
g95
ssg83
g3577
sg76
(lp3584
S'X-Powered-By'
p3585
asbag69
(g90
g71
NtRp3586
(dp3587
g74
(dp3588
g101
g102
ssg83
g3577
sg76
(lp3589
S':'
asbag69
(g90
g71
NtRp3590
(dp3591
g74
(dp3592
sg83
g3577
sg76
(lp3593
g69
(g70
g71
NtRp3594
(dp3595
g74
(dp3596
g82
I4
ssg83
g3590
sg76
(lp3597
S'web2py'
p3598
asbasbasbasbasbasbasbag69
(g85
g71
NtRp3599
(dp3600
g74
(dp3601
sg83
g3162
sg76
(lp3602
g69
(g90
g71
NtRp3603
(dp3604
g74
(dp3605
g94
g95
ssg83
g3599
sg76
(lp3606
S'menu'
p3607
asbag69
(g90
g71
NtRp3608
(dp3609
g74
(dp3610
g101
g102
ssg83
g3599
sg76
(lp3611
S':'
asbag69
(g90
g71
NtRp3612
(dp3613
g74
(dp3614
sg83
g3599
sg76
(lp3615
g69
(g70
g71
NtRp3616
(dp3617
g74
(dp3618
g82
I5
ssg83
g3612
sg76
(lp3619
g69
(g78
g71
NtRp3620
(dp3621
g74
(dp3622
g82
I4
ssg83
Nsg76
(lp3623
g69
(g85
g71
NtRp3624
(dp3625
g74
(dp3626
sg83
g3620
sg76
(lp3627
g69
(g90
g71
NtRp3628
(dp3629
g74
(dp3630
sg83
g3624
sg76
(lp3631
g69
(g70
g71
NtRp3632
(dp3633
g74
(dp3634
g82
I4
ssg83
g3628
sg76
(lp3635
g69
(g78
g71
NtRp3636
(dp3637
g74
(dp3638
g82
I3
ssg83
Nsg76
(lp3639
g69
(g85
g71
NtRp3640
(dp3641
g74
(dp3642
sg83
g3636
sg76
(lp3643
g69
(g90
g71
NtRp3644
(dp3645
g74
(dp3646
sg83
g3640
sg76
(lp3647
g69
(g70
g71
NtRp3648
(dp3649
g74
(dp3650
g82
I3
ssg83
g3644
sg76
(lp3651
cgluon.languages
lazyT_unpickle
p3652
(S's\x04\x00\x00\x00Home'
tRp3653
asbasbasbag69
(g85
g71
NtRp3654
(dp3655
g74
(dp3656
sg83
g3636
sg76
(lp3657
g69
(g90
g71
NtRp3658
(dp3659
g74
(dp3660
sg83
g3654
sg76
(lp3661
g69
(g70
g71
NtRp3662
(dp3663
g74
(dp3664
g82
I3
ssg83
g3658
sg76
(lp3665
g112
asbasbasbag69
(g85
g71
NtRp3666
(dp3667
g74
(dp3668
sg83
g3636
sg76
(lp3669
g69
(g90
g71
NtRp3670
(dp3671
g74
(dp3672
sg83
g3666
sg76
(lp3673
g69
(g70
g71
NtRp3674
(dp3675
g74
(dp3676
g82
I3
ssg83
g3670
sg76
(lp3677
S'/sueldos/default/index'
p3678
asbasbasbag69
(g85
g71
NtRp3679
(dp3680
g74
(dp3681
sg83
g3636
sg76
(lp3682
g69
(g90
g71
NtRp3683
(dp3684
g74
(dp3685
sg83
g3679
sg76
(lp3686
g69
(g70
g71
NtRp3687
(dp3688
g74
(dp3689
g82
I3
ssg83
g3683
sg76
(lp3690
g69
(g78
g71
NtRp3691
(dp3692
g74
(dp3693
g82
I2
ssg83
Nsg76
(lp3694
sbasbasbasbasbasbasbasbag69
(g85
g71
NtRp3695
(dp3696
g74
(dp3697
sg83
g3620
sg76
(lp3698
g69
(g90
g71
NtRp3699
(dp3700
g74
(dp3701
sg83
g3695
sg76
(lp3702
g69
(g70
g71
NtRp3703
(dp3704
g74
(dp3705
g82
I4
ssg83
g3699
sg76
(lp3706
g69
(g78
g71
NtRp3707
(dp3708
g74
(dp3709
g82
I3
ssg83
Nsg76
(lp3710
g69
(g85
g71
NtRp3711
(dp3712
g74
(dp3713
sg83
g3707
sg76
(lp3714
g69
(g90
g71
NtRp3715
(dp3716
g74
(dp3717
sg83
g3711
sg76
(lp3718
g69
(g70
g71
NtRp3719
(dp3720
g74
(dp3721
g82
I3
ssg83
g3715
sg76
(lp3722
g69
(cgluon.html
SPAN
p3723
g71
NtRp3724
(dp3725
g74
(dp3726
S'_class'
p3727
S'highlighted'
p3728
ssg83
Nsg76
(lp3729
g3598
asbasbasbasbag69
(g85
g71
NtRp3730
(dp3731
g74
(dp3732
sg83
g3707
sg76
(lp3733
g69
(g90
g71
NtRp3734
(dp3735
g74
(dp3736
sg83
g3730
sg76
(lp3737
g69
(g70
g71
NtRp3738
(dp3739
g74
(dp3740
g82
I3
ssg83
g3734
sg76
(lp3741
g112
asbasbasbag69
(g85
g71
NtRp3742
(dp3743
g74
(dp3744
sg83
g3707
sg76
(lp3745
g69
(g90
g71
NtRp3746
(dp3747
g74
(dp3748
sg83
g3742
sg76
(lp3749
g69
(g70
g71
NtRp3750
(dp3751
g74
(dp3752
g82
I3
ssg83
g3746
sg76
(lp3753
S'http://web2py.com'
p3754
asbasbasbag69
(g85
g71
NtRp3755
(dp3756
g74
(dp3757
sg83
g3707
sg76
(lp3758
g69
(g90
g71
NtRp3759
(dp3760
g74
(dp3761
sg83
g3755
sg76
(lp3762
g69
(g70
g71
NtRp3763
(dp3764
g74
(dp3765
g82
I3
ssg83
g3759
sg76
(lp3766
g69
(g78
g71
NtRp3767
(dp3768
g74
(dp3769
g82
I2
ssg83
Nsg76
(lp3770
g69
(g85
g71
NtRp3771
(dp3772
g74
(dp3773
sg83
g3767
sg76
(lp3774
g69
(g90
g71
NtRp3775
(dp3776
g74
(dp3777
sg83
g3771
sg76
(lp3778
g69
(g70
g71
NtRp3779
(dp3780
g74
(dp3781
g82
I2
ssg83
g3775
sg76
(lp3782
g69
(g78
g71
NtRp3783
(dp3784
g74
(dp3785
g82
I1
ssg83
Nsg76
(lp3786
g69
(g85
g71
NtRp3787
(dp3788
g74
(dp3789
sg83
g3783
sg76
(lp3790
g69
(g90
g71
NtRp3791
(dp3792
g74
(dp3793
sg83
g3787
sg76
(lp3794
g69
(g70
g71
NtRp3795
(dp3796
g74
(dp3797
g82
I1
ssg83
g3791
sg76
(lp3798
g3652
(S's\x08\x00\x00\x00My Sites'
tRp3799
asbasbasbag69
(g85
g71
NtRp3800
(dp3801
g74
(dp3802
sg83
g3783
sg76
(lp3803
g69
(g90
g71
NtRp3804
(dp3805
g74
(dp3806
sg83
g3800
sg76
(lp3807
g69
(g70
g71
NtRp3808
(dp3809
g74
(dp3810
g82
I1
ssg83
g3804
sg76
(lp3811
I00
asbasbasbag69
(g85
g71
NtRp3812
(dp3813
g74
(dp3814
sg83
g3783
sg76
(lp3815
g69
(g90
g71
NtRp3816
(dp3817
g74
(dp3818
sg83
g3812
sg76
(lp3819
g69
(g70
g71
NtRp3820
(dp3821
g74
(dp3822
g82
I1
ssg83
g3816
sg76
(lp3823
S'/admin/default/site'
p3824
asbasbasbasbasbasbasbag69
(g85
g71
NtRp3825
(dp3826
g74
(dp3827
sg83
g3767
sg76
(lp3828
g69
(g90
g71
NtRp3829
(dp3830
g74
(dp3831
sg83
g3825
sg76
(lp3832
g69
(g70
g71
NtRp3833
(dp3834
g74
(dp3835
g82
I2
ssg83
g3829
sg76
(lp3836
g69
(g78
g71
NtRp3837
(dp3838
g74
(dp3839
g82
I1
ssg83
Nsg76
(lp3840
g69
(g85
g71
NtRp3841
(dp3842
g74
(dp3843
sg83
g3837
sg76
(lp3844
g69
(g90
g71
NtRp3845
(dp3846
g74
(dp3847
sg83
g3841
sg76
(lp3848
g69
(g70
g71
NtRp3849
(dp3850
g74
(dp3851
g82
I1
ssg83
g3845
sg76
(lp3852
g3652
(S's\x08\x00\x00\x00This App'
tRp3853
asbasbasbag69
(g85
g71
NtRp3854
(dp3855
g74
(dp3856
sg83
g3837
sg76
(lp3857
g69
(g90
g71
NtRp3858
(dp3859
g74
(dp3860
sg83
g3854
sg76
(lp3861
g69
(g70
g71
NtRp3862
(dp3863
g74
(dp3864
g82
I1
ssg83
g3858
sg76
(lp3865
I00
asbasbasbag69
(g85
g71
NtRp3866
(dp3867
g74
(dp3868
sg83
g3837
sg76
(lp3869
g69
(g90
g71
NtRp3870
(dp3871
g74
(dp3872
sg83
g3866
sg76
(lp3873
g69
(g70
g71
NtRp3874
(dp3875
g74
(dp3876
g82
I1
ssg83
g3870
sg76
(lp3877
S'/admin/default/design/sueldos'
p3878
asbasbasbag69
(g85
g71
NtRp3879
(dp3880
g74
(dp3881
sg83
g3837
sg76
(lp3882
g69
(g90
g71
NtRp3883
(dp3884
g74
(dp3885
sg83
g3879
sg76
(lp3886
g69
(g70
g71
NtRp3887
(dp3888
g74
(dp3889
g82
I1
ssg83
g3883
sg76
(lp3890
(lp3891
(g3652
(S's\n\x00\x00\x00Controller'
tRp3892
I00
S'/admin/default/edit/sueldos/controllers/default.py'
tp3893
a(g3652
(S's\x04\x00\x00\x00View'
tRp3894
I00
S'/admin/default/edit/sueldos/views/default/clientes.html'
tp3895
a(g3652
(S's\x06\x00\x00\x00Layout'
tRp3896
I00
S'/admin/default/edit/sueldos/views/layout.html'
tp3897
a(g3652
(S's\n\x00\x00\x00Stylesheet'
tRp3898
I00
S'/admin/default/edit/sueldos/static/css/web2py.css'
tp3899
a(g3652
(S's\x08\x00\x00\x00DB Model'
tRp3900
I00
S'/admin/default/edit/sueldos/models/db.py'
tp3901
a(g3652
(S's\n\x00\x00\x00Menu Model'
tRp3902
I00
S'/admin/default/edit/sueldos/models/menu.py'
tp3903
a(g3652
(S's\x08\x00\x00\x00Database'
tRp3904
I00
S'/sueldos/appadmin/index'
tp3905
a(g3652
(S's\x06\x00\x00\x00Errors'
tRp3906
I00
S'/admin/default/errors/sueldos'
tp3907
a(g3652
(S's\x05\x00\x00\x00About'
tRp3908
I00
S'/admin/default/about/sueldos'
tp3909
aasbasbasbasbasbasbasbag69
(g85
g71
NtRp3910
(dp3911
g74
(dp3912
sg83
g3767
sg76
(lp3913
g69
(g90
g71
NtRp3914
(dp3915
g74
(dp3916
sg83
g3910
sg76
(lp3917
g69
(g70
g71
NtRp3918
(dp3919
g74
(dp3920
g82
I2
ssg83
g3914
sg76
(lp3921
g69
(g78
g71
NtRp3922
(dp3923
g74
(dp3924
g82
I1
ssg83
Nsg76
(lp3925
g69
(g85
g71
NtRp3926
(dp3927
g74
(dp3928
sg83
g3922
sg76
(lp3929
g69
(g90
g71
NtRp3930
(dp3931
g74
(dp3932
sg83
g3926
sg76
(lp3933
g69
(g70
g71
NtRp3934
(dp3935
g74
(dp3936
g82
I1
ssg83
g3930
sg76
(lp3937
S'web2py.com'
p3938
asbasbasbag69
(g85
g71
NtRp3939
(dp3940
g74
(dp3941
sg83
g3922
sg76
(lp3942
g69
(g90
g71
NtRp3943
(dp3944
g74
(dp3945
sg83
g3939
sg76
(lp3946
g69
(g70
g71
NtRp3947
(dp3948
g74
(dp3949
g82
I1
ssg83
g3943
sg76
(lp3950
I00
asbasbasbag69
(g85
g71
NtRp3951
(dp3952
g74
(dp3953
sg83
g3922
sg76
(lp3954
g69
(g90
g71
NtRp3955
(dp3956
g74
(dp3957
sg83
g3951
sg76
(lp3958
g69
(g70
g71
NtRp3959
(dp3960
g74
(dp3961
g82
I1
ssg83
g3955
sg76
(lp3962
S'http://www.web2py.com'
p3963
asbasbasbag69
(g85
g71
NtRp3964
(dp3965
g74
(dp3966
sg83
g3922
sg76
(lp3967
g69
(g90
g71
NtRp3968
(dp3969
g74
(dp3970
sg83
g3964
sg76
(lp3971
g69
(g70
g71
NtRp3972
(dp3973
g74
(dp3974
g82
I1
ssg83
g3968
sg76
(lp3975
(lp3976
(g3652
(S's\x08\x00\x00\x00Download'
tRp3977
I00
S'http://www.web2py.com/examples/default/download'
p3978
tp3979
a(g3652
(S's\x07\x00\x00\x00Support'
tRp3980
I00
S'http://www.web2py.com/examples/default/support'
p3981
tp3982
a(g3652
(S's\x04\x00\x00\x00Demo'
tRp3983
I00
S'http://web2py.com/demo_admin'
p3984
tp3985
a(g3652
(S's\x0e\x00\x00\x00Quick Examples'
tRp3986
I00
S'http://web2py.com/examples/default/examples'
p3987
tp3988
a(g3652
(S's\x03\x00\x00\x00FAQ'
tRp3989
I00
S'http://web2py.com/AlterEgo'
p3990
tp3991
a(g3652
(S's\x06\x00\x00\x00Videos'
tRp3992
I00
S'http://www.web2py.com/examples/default/videos/'
p3993
tp3994
a(g3652
(S's\x11\x00\x00\x00Free Applications'
tRp3995
I00
S'http://web2py.com/appliances'
p3996
tp3997
a(g3652
(S's\x07\x00\x00\x00Plugins'
tRp3998
I00
S'http://web2py.com/plugins'
p3999
tp4000
a(g3652
(S's\x07\x00\x00\x00Layouts'
tRp4001
I00
S'http://web2py.com/layouts'
p4002
tp4003
a(g3652
(S's\x07\x00\x00\x00Recipes'
tRp4004
I00
S'http://web2pyslices.com/'
p4005
tp4006
a(g3652
(S's\x08\x00\x00\x00Semantic'
tRp4007
I00
S'http://web2py.com/semantic'
p4008
tp4009
aasbasbasbasbasbasbasbag69
(g85
g71
NtRp4010
(dp4011
g74
(dp4012
sg83
g3767
sg76
(lp4013
g69
(g90
g71
NtRp4014
(dp4015
g74
(dp4016
sg83
g4010
sg76
(lp4017
g69
(g70
g71
NtRp4018
(dp4019
g74
(dp4020
g82
I2
ssg83
g4014
sg76
(lp4021
g69
(g78
g71
NtRp4022
(dp4023
g74
(dp4024
g82
I1
ssg83
Nsg76
(lp4025
g69
(g85
g71
NtRp4026
(dp4027
g74
(dp4028
sg83
g4022
sg76
(lp4029
g69
(g90
g71
NtRp4030
(dp4031
g74
(dp4032
sg83
g4026
sg76
(lp4033
g69
(g70
g71
NtRp4034
(dp4035
g74
(dp4036
g82
I1
ssg83
g4030
sg76
(lp4037
g3652
(S's\r\x00\x00\x00Documentation'
tRp4038
asbasbasbag69
(g85
g71
NtRp4039
(dp4040
g74
(dp4041
sg83
g4022
sg76
(lp4042
g69
(g90
g71
NtRp4043
(dp4044
g74
(dp4045
sg83
g4039
sg76
(lp4046
g69
(g70
g71
NtRp4047
(dp4048
g74
(dp4049
g82
I1
ssg83
g4043
sg76
(lp4050
I00
asbasbasbag69
(g85
g71
NtRp4051
(dp4052
g74
(dp4053
sg83
g4022
sg76
(lp4054
g69
(g90
g71
NtRp4055
(dp4056
g74
(dp4057
sg83
g4051
sg76
(lp4058
g69
(g70
g71
NtRp4059
(dp4060
g74
(dp4061
g82
I1
ssg83
g4055
sg76
(lp4062
S'http://www.web2py.com/book'
p4063
asbasbasbag69
(g85
g71
NtRp4064
(dp4065
g74
(dp4066
sg83
g4022
sg76
(lp4067
g69
(g90
g71
NtRp4068
(dp4069
g74
(dp4070
sg83
g4064
sg76
(lp4071
g69
(g70
g71
NtRp4072
(dp4073
g74
(dp4074
g82
I1
ssg83
g4068
sg76
(lp4075
(lp4076
(g3652
(S's\x07\x00\x00\x00Preface'
tRp4077
I00
S'http://www.web2py.com/book/default/chapter/00'
p4078
tp4079
a(g3652
(S's\x0c\x00\x00\x00Introduction'
tRp4080
I00
S'http://www.web2py.com/book/default/chapter/01'
p4081
tp4082
a(g3652
(S's\x06\x00\x00\x00Python'
tRp4083
I00
S'http://www.web2py.com/book/default/chapter/02'
p4084
tp4085
a(g3652
(S's\x08\x00\x00\x00Overview'
tRp4086
I00
S'http://www.web2py.com/book/default/chapter/03'
p4087
tp4088
a(g3652
(S's\x08\x00\x00\x00The Core'
tRp4089
I00
S'http://www.web2py.com/book/default/chapter/04'
p4090
tp4091
a(g3652
(S's\t\x00\x00\x00The Views'
tRp4092
I00
S'http://www.web2py.com/book/default/chapter/05'
p4093
tp4094
a(g3652
(S's\x08\x00\x00\x00Database'
tRp4095
I00
S'http://www.web2py.com/book/default/chapter/06'
p4096
tp4097
a(g3652
(S's\x14\x00\x00\x00Forms and Validators'
tRp4098
I00
S'http://www.web2py.com/book/default/chapter/07'
p4099
tp4100
a(g3652
(S's\r\x00\x00\x00Email and SMS'
tRp4101
I00
S'http://www.web2py.com/book/default/chapter/08'
p4102
tp4103
a(g3652
(S's\x0e\x00\x00\x00Access Control'
tRp4104
I00
S'http://www.web2py.com/book/default/chapter/09'
p4105
tp4106
a(g3652
(S's\x08\x00\x00\x00Services'
tRp4107
I00
S'http://www.web2py.com/book/default/chapter/10'
p4108
tp4109
a(g3652
(S's\x0c\x00\x00\x00Ajax Recipes'
tRp4110
I00
S'http://www.web2py.com/book/default/chapter/11'
p4111
tp4112
a(g3652
(S's\x16\x00\x00\x00Components and Plugins'
tRp4113
I00
S'http://www.web2py.com/book/default/chapter/12'
p4114
tp4115
a(g3652
(S's\x12\x00\x00\x00Deployment Recipes'
tRp4116
I00
S'http://www.web2py.com/book/default/chapter/13'
p4117
tp4118
a(g3652
(S's\r\x00\x00\x00Other Recipes'
tRp4119
I00
S'http://www.web2py.com/book/default/chapter/14'
p4120
tp4121
a(g3652
(S's\r\x00\x00\x00Buy this book'
tRp4122
I00
S'http://stores.lulu.com/web2py'
p4123
tp4124
aasbasbasbasbasbasbasbag69
(g85
g71
NtRp4125
(dp4126
g74
(dp4127
sg83
g3767
sg76
(lp4128
g69
(g90
g71
NtRp4129
(dp4130
g74
(dp4131
sg83
g4125
sg76
(lp4132
g69
(g70
g71
NtRp4133
(dp4134
g74
(dp4135
g82
I2
ssg83
g4129
sg76
(lp4136
g69
(g78
g71
NtRp4137
(dp4138
g74
(dp4139
g82
I1
ssg83
Nsg76
(lp4140
g69
(g85
g71
NtRp4141
(dp4142
g74
(dp4143
sg83
g4137
sg76
(lp4144
g69
(g90
g71
NtRp4145
(dp4146
g74
(dp4147
sg83
g4141
sg76
(lp4148
g69
(g70
g71
NtRp4149
(dp4150
g74
(dp4151
g82
I1
ssg83
g4145
sg76
(lp4152
g3652
(S's\t\x00\x00\x00Community'
tRp4153
asbasbasbag69
(g85
g71
NtRp4154
(dp4155
g74
(dp4156
sg83
g4137
sg76
(lp4157
g69
(g90
g71
NtRp4158
(dp4159
g74
(dp4160
sg83
g4154
sg76
(lp4161
g69
(g70
g71
NtRp4162
(dp4163
g74
(dp4164
g82
I1
ssg83
g4158
sg76
(lp4165
I00
asbasbasbag69
(g85
g71
NtRp4166
(dp4167
g74
(dp4168
sg83
g4137
sg76
(lp4169
g69
(g90
g71
NtRp4170
(dp4171
g74
(dp4172
sg83
g4166
sg76
(lp4173
g69
(g70
g71
NtRp4174
(dp4175
g74
(dp4176
g82
I1
ssg83
g4170
sg76
(lp4177
Nasbasbasbag69
(g85
g71
NtRp4178
(dp4179
g74
(dp4180
sg83
g4137
sg76
(lp4181
g69
(g90
g71
NtRp4182
(dp4183
g74
(dp4184
sg83
g4178
sg76
(lp4185
g69
(g70
g71
NtRp4186
(dp4187
g74
(dp4188
g82
I1
ssg83
g4182
sg76
(lp4189
(lp4190
(g3652
(S's\x06\x00\x00\x00Groups'
tRp4191
I00
S'http://www.web2py.com/examples/default/usergroups'
p4192
tp4193
a(g3652
(S's\x07\x00\x00\x00Twitter'
tRp4194
I00
S'http://twitter.com/web2py'
p4195
tp4196
a(g3652
(S's\t\x00\x00\x00Live Chat'
tRp4197
I00
S'http://webchat.freenode.net/?channels=web2py'
p4198
tp4199
aasbasbasbasbasbasbasbag69
(g85
g71
NtRp4200
(dp4201
g74
(dp4202
sg83
g3767
sg76
(lp4203
g69
(g90
g71
NtRp4204
(dp4205
g74
(dp4206
sg83
g4200
sg76
(lp4207
g69
(g70
g71
NtRp4208
(dp4209
g74
(dp4210
g82
I2
ssg83
g4204
sg76
(lp4211
g69
(g78
g71
NtRp4212
(dp4213
g74
(dp4214
g82
I1
ssg83
Nsg76
(lp4215
g69
(g85
g71
NtRp4216
(dp4217
g74
(dp4218
sg83
g4212
sg76
(lp4219
g69
(g90
g71
NtRp4220
(dp4221
g74
(dp4222
sg83
g4216
sg76
(lp4223
g69
(g70
g71
NtRp4224
(dp4225
g74
(dp4226
g82
I1
ssg83
g4220
sg76
(lp4227
g3652
(S's\x07\x00\x00\x00Plugins'
tRp4228
asbasbasbag69
(g85
g71
NtRp4229
(dp4230
g74
(dp4231
sg83
g4212
sg76
(lp4232
g69
(g90
g71
NtRp4233
(dp4234
g74
(dp4235
sg83
g4229
sg76
(lp4236
g69
(g70
g71
NtRp4237
(dp4238
g74
(dp4239
g82
I1
ssg83
g4233
sg76
(lp4240
I00
asbasbasbag69
(g85
g71
NtRp4241
(dp4242
g74
(dp4243
sg83
g4212
sg76
(lp4244
g69
(g90
g71
NtRp4245
(dp4246
g74
(dp4247
sg83
g4241
sg76
(lp4248
g69
(g70
g71
NtRp4249
(dp4250
g74
(dp4251
g82
I1
ssg83
g4245
sg76
(lp4252
Nasbasbasbag69
(g85
g71
NtRp4253
(dp4254
g74
(dp4255
sg83
g4212
sg76
(lp4256
g69
(g90
g71
NtRp4257
(dp4258
g74
(dp4259
sg83
g4253
sg76
(lp4260
g69
(g70
g71
NtRp4261
(dp4262
g74
(dp4263
g82
I1
ssg83
g4257
sg76
(lp4264
(lp4265
(S'plugin_wiki'
p4266
I00
S'http://web2py.com/examples/default/download'
p4267
tp4268
a(g3652
(S's\r\x00\x00\x00Other Plugins'
tRp4269
I00
g3999
tp4270
a(g3652
(S's\x0e\x00\x00\x00Layout Plugins'
tRp4271
I00
g4002
tp4272
aasbasbasbasbasbasbasbasbasbasbasbasbasbasbasbasbasbasbasbag69
(g85
g71
NtRp4273
(dp4274
g74
(dp4275
sg83
g3162
sg76
(lp4276
g69
(g90
g71
NtRp4277
(dp4278
g74
(dp4279
g94
g95
ssg83
g4273
sg76
(lp4280
S'meta'
p4281
asbag69
(g90
g71
NtRp4282
(dp4283
g74
(dp4284
g101
g102
ssg83
g4273
sg76
(lp4285
S':'
asbag69
(g90
g71
NtRp4286
(dp4287
g74
(dp4288
sg83
g4273
sg76
(lp4289
g69
(g70
g71
NtRp4290
(dp4291
g74
(dp4292
g82
I5
ssg83
g4286
sg76
(lp4293
g69
(g78
g71
NtRp4294
(dp4295
g74
(dp4296
g82
I4
ssg83
Nsg76
(lp4297
g69
(g85
g71
NtRp4298
(dp4299
g74
(dp4300
sg83
g4294
sg76
(lp4301
g69
(g90
g71
NtRp4302
(dp4303
g74
(dp4304
g94
g95
ssg83
g4298
sg76
(lp4305
S'author'
p4306
asbag69
(g90
g71
NtRp4307
(dp4308
g74
(dp4309
g101
g102
ssg83
g4298
sg76
(lp4310
S':'
asbag69
(g90
g71
NtRp4311
(dp4312
g74
(dp4313
sg83
g4298
sg76
(lp4314
g69
(g70
g71
NtRp4315
(dp4316
g74
(dp4317
g82
I4
ssg83
g4311
sg76
(lp4318
S'Your Name <you@example.com>'
p4319
asbasbasbag69
(g85
g71
NtRp4320
(dp4321
g74
(dp4322
sg83
g4294
sg76
(lp4323
g69
(g90
g71
NtRp4324
(dp4325
g74
(dp4326
g94
g95
ssg83
g4320
sg76
(lp4327
S'description'
p4328
asbag69
(g90
g71
NtRp4329
(dp4330
g74
(dp4331
g101
g102
ssg83
g4320
sg76
(lp4332
S':'
asbag69
(g90
g71
NtRp4333
(dp4334
g74
(dp4335
sg83
g4320
sg76
(lp4336
g69
(g70
g71
NtRp4337
(dp4338
g74
(dp4339
g82
I4
ssg83
g4333
sg76
(lp4340
S'a cool new app'
p4341
asbasbasbag69
(g85
g71
NtRp4342
(dp4343
g74
(dp4344
sg83
g4294
sg76
(lp4345
g69
(g90
g71
NtRp4346
(dp4347
g74
(dp4348
g94
g95
ssg83
g4342
sg76
(lp4349
S'generator'
p4350
asbag69
(g90
g71
NtRp4351
(dp4352
g74
(dp4353
g101
g102
ssg83
g4342
sg76
(lp4354
S':'
asbag69
(g90
g71
NtRp4355
(dp4356
g74
(dp4357
sg83
g4342
sg76
(lp4358
g69
(g70
g71
NtRp4359
(dp4360
g74
(dp4361
g82
I4
ssg83
g4355
sg76
(lp4362
S'Web2py Web Framework'
p4363
asbasbasbag69
(g85
g71
NtRp4364
(dp4365
g74
(dp4366
sg83
g4294
sg76
(lp4367
g69
(g90
g71
NtRp4368
(dp4369
g74
(dp4370
g94
g95
ssg83
g4364
sg76
(lp4371
S'keywords'
p4372
asbag69
(g90
g71
NtRp4373
(dp4374
g74
(dp4375
g101
g102
ssg83
g4364
sg76
(lp4376
S':'
asbag69
(g90
g71
NtRp4377
(dp4378
g74
(dp4379
sg83
g4364
sg76
(lp4380
g69
(g70
g71
NtRp4381
(dp4382
g74
(dp4383
g82
I4
ssg83
g4377
sg76
(lp4384
S'web2py, python, framework'
p4385
asbasbasbasbasbasbasbag69
(g85
g71
NtRp4386
(dp4387
g74
(dp4388
sg83
g3162
sg76
(lp4389
g69
(g90
g71
NtRp4390
(dp4391
g74
(dp4392
g94
g95
ssg83
g4386
sg76
(lp4393
S'models_to_run'
p4394
asbag69
(g90
g71
NtRp4395
(dp4396
g74
(dp4397
g101
g102
ssg83
g4386
sg76
(lp4398
S':'
asbag69
(g90
g71
NtRp4399
(dp4400
g74
(dp4401
sg83
g4386
sg76
(lp4402
g69
(g70
g71
NtRp4403
(dp4404
g74
(dp4405
g82
I5
ssg83
g4399
sg76
(lp4406
g69
(g78
g71
NtRp4407
(dp4408
g74
(dp4409
g82
I4
ssg83
Nsg76
(lp4410
g69
(g85
g71
NtRp4411
(dp4412
g74
(dp4413
sg83
g4407
sg76
(lp4414
g69
(g90
g71
NtRp4415
(dp4416
g74
(dp4417
sg83
g4411
sg76
(lp4418
g69
(g70
g71
NtRp4419
(dp4420
g74
(dp4421
g82
I4
ssg83
g4415
sg76
(lp4422
S'^\\w+\\.py$'
p4423
asbasbasbag69
(g85
g71
NtRp4424
(dp4425
g74
(dp4426
sg83
g4407
sg76
(lp4427
g69
(g90
g71
NtRp4428
(dp4429
g74
(dp4430
sg83
g4424
sg76
(lp4431
g69
(g70
g71
NtRp4432
(dp4433
g74
(dp4434
g82
I4
ssg83
g4428
sg76
(lp4435
S'^default/\\w+\\.py$'
p4436
asbasbasbag69
(g85
g71
NtRp4437
(dp4438
g74
(dp4439
sg83
g4407
sg76
(lp4440
g69
(g90
g71
NtRp4441
(dp4442
g74
(dp4443
sg83
g4437
sg76
(lp4444
g69
(g70
g71
NtRp4445
(dp4446
g74
(dp4447
g82
I4
ssg83
g4441
sg76
(lp4448
S'^default/clientes/\\w+\\.py$'
p4449
asbasbasbasbasbasbasbag69
(g85
g71
NtRp4450
(dp4451
g74
(dp4452
sg83
g3162
sg76
(lp4453
g69
(g90
g71
NtRp4454
(dp4455
g74
(dp4456
g94
g95
ssg83
g4450
sg76
(lp4457
S'postprocessing'
p4458
asbag69
(g90
g71
NtRp4459
(dp4460
g74
(dp4461
g101
g102
ssg83
g4450
sg76
(lp4462
S':'
asbag69
(g90
g71
NtRp4463
(dp4464
g74
(dp4465
sg83
g4450
sg76
(lp4466
g69
(g70
g71
NtRp4467
(dp4468
g74
(dp4469
g82
I5
ssg83
g4463
sg76
(lp4470
g69
(g78
g71
NtRp4471
(dp4472
g74
(dp4473
g82
I4
ssg83
Nsg76
(lp4474
sbasbasbasbag69
(g85
g71
NtRp4475
(dp4476
g74
(dp4477
sg83
g3162
sg76
(lp4478
g69
(g90
g71
NtRp4479
(dp4480
g74
(dp4481
g94
g95
ssg83
g4475
sg76
(lp4482
S'session_cookie_expires'
p4483
asbag69
(g90
g71
NtRp4484
(dp4485
g74
(dp4486
g101
g102
ssg83
g4475
sg76
(lp4487
S':'
asbag69
(g90
g71
NtRp4488
(dp4489
g74
(dp4490
sg83
g4475
sg76
(lp4491
g69
(g70
g71
NtRp4492
(dp4493
g74
(dp4494
g82
I5
ssg83
g4488
sg76
(lp4495
S'None'
p4496
asbasbasbag69
(g85
g71
NtRp4497
(dp4498
g74
(dp4499
sg83
g3162
sg76
(lp4500
g69
(g90
g71
NtRp4501
(dp4502
g74
(dp4503
g94
g95
ssg83
g4497
sg76
(lp4504
S'session_data_name'
p4505
asbag69
(g90
g71
NtRp4506
(dp4507
g74
(dp4508
g101
g102
ssg83
g4497
sg76
(lp4509
S':'
asbag69
(g90
g71
NtRp4510
(dp4511
g74
(dp4512
sg83
g4497
sg76
(lp4513
g69
(g70
g71
NtRp4514
(dp4515
g74
(dp4516
g82
I5
ssg83
g4510
sg76
(lp4517
S'session_data_sueldos'
p4518
asbasbasbag69
(g85
g71
NtRp4519
(dp4520
g74
(dp4521
sg83
g3162
sg76
(lp4522
g69
(g90
g71
NtRp4523
(dp4524
g74
(dp4525
g94
g95
ssg83
g4519
sg76
(lp4526
S'session_file'
p4527
asbag69
(g90
g71
NtRp4528
(dp4529
g74
(dp4530
g101
g102
ssg83
g4519
sg76
(lp4531
S':'
asbag69
(g90
g71
NtRp4532
(dp4533
g74
(dp4534
sg83
g4519
sg76
(lp4535
g69
(g70
g71
NtRp4536
(dp4537
g74
(dp4538
g82
I5
ssg83
g4532
sg76
(lp4539
S"<open file '/home/marco/projects/contabilidad/web2py/applications/sueldos/sessions/127.0.0.1-b5ab5c43-cb03-494e-8551-1bb3b74c2938', mode 'rb+' at 0x2ecbdb0>"
p4540
asbasbasbag69
(g85
g71
NtRp4541
(dp4542
g74
(dp4543
sg83
g3162
sg76
(lp4544
g69
(g90
g71
NtRp4545
(dp4546
g74
(dp4547
g94
g95
ssg83
g4541
sg76
(lp4548
S'session_filename'
p4549
asbag69
(g90
g71
NtRp4550
(dp4551
g74
(dp4552
g101
g102
ssg83
g4541
sg76
(lp4553
S':'
asbag69
(g90
g71
NtRp4554
(dp4555
g74
(dp4556
sg83
g4541
sg76
(lp4557
g69
(g70
g71
NtRp4558
(dp4559
g74
(dp4560
g82
I5
ssg83
g4554
sg76
(lp4561
S'/home/marco/projects/contabilidad/web2py/applications/sueldos/sessions/127.0.0.1-b5ab5c43-cb03-494e-8551-1bb3b74c2938'
p4562
asbasbasbag69
(g85
g71
NtRp4563
(dp4564
g74
(dp4565
sg83
g3162
sg76
(lp4566
g69
(g90
g71
NtRp4567
(dp4568
g74
(dp4569
g94
g95
ssg83
g4563
sg76
(lp4570
S'session_id'
p4571
asbag69
(g90
g71
NtRp4572
(dp4573
g74
(dp4574
g101
g102
ssg83
g4563
sg76
(lp4575
S':'
asbag69
(g90
g71
NtRp4576
(dp4577
g74
(dp4578
sg83
g4563
sg76
(lp4579
g69
(g70
g71
NtRp4580
(dp4581
g74
(dp4582
g82
I5
ssg83
g4576
sg76
(lp4583
g487
asbasbasbag69
(g85
g71
NtRp4584
(dp4585
g74
(dp4586
sg83
g3162
sg76
(lp4587
g69
(g90
g71
NtRp4588
(dp4589
g74
(dp4590
g94
g95
ssg83
g4584
sg76
(lp4591
S'session_id_name'
p4592
asbag69
(g90
g71
NtRp4593
(dp4594
g74
(dp4595
g101
g102
ssg83
g4584
sg76
(lp4596
S':'
asbag69
(g90
g71
NtRp4597
(dp4598
g74
(dp4599
sg83
g4584
sg76
(lp4600
g69
(g70
g71
NtRp4601
(dp4602
g74
(dp4603
g82
I5
ssg83
g4597
sg76
(lp4604
g3219
asbasbasbag69
(g85
g71
NtRp4605
(dp4606
g74
(dp4607
sg83
g3162
sg76
(lp4608
g69
(g90
g71
NtRp4609
(dp4610
g74
(dp4611
g94
g95
ssg83
g4605
sg76
(lp4612
S'session_locked'
p4613
asbag69
(g90
g71
NtRp4614
(dp4615
g74
(dp4616
g101
g102
ssg83
g4605
sg76
(lp4617
S':'
asbag69
(g90
g71
NtRp4618
(dp4619
g74
(dp4620
sg83
g4605
sg76
(lp4621
g69
(g70
g71
NtRp4622
(dp4623
g74
(dp4624
g82
I5
ssg83
g4618
sg76
(lp4625
g1617
asbasbasbag69
(g85
g71
NtRp4626
(dp4627
g74
(dp4628
sg83
g3162
sg76
(lp4629
g69
(g90
g71
NtRp4630
(dp4631
g74
(dp4632
g94
g95
ssg83
g4626
sg76
(lp4633
S'session_new'
p4634
asbag69
(g90
g71
NtRp4635
(dp4636
g74
(dp4637
g101
g102
ssg83
g4626
sg76
(lp4638
S':'
asbag69
(g90
g71
NtRp4639
(dp4640
g74
(dp4641
sg83
g4626
sg76
(lp4642
g69
(g70
g71
NtRp4643
(dp4644
g74
(dp4645
g82
I5
ssg83
g4639
sg76
(lp4646
g112
asbasbasbag69
(g85
g71
NtRp4647
(dp4648
g74
(dp4649
sg83
g3162
sg76
(lp4650
g69
(g90
g71
NtRp4651
(dp4652
g74
(dp4653
g94
g95
ssg83
g4647
sg76
(lp4654
S'session_storage_type'
p4655
asbag69
(g90
g71
NtRp4656
(dp4657
g74
(dp4658
g101
g102
ssg83
g4647
sg76
(lp4659
S':'
asbag69
(g90
g71
NtRp4660
(dp4661
g74
(dp4662
sg83
g4647
sg76
(lp4663
g69
(g70
g71
NtRp4664
(dp4665
g74
(dp4666
g82
I5
ssg83
g4660
sg76
(lp4667
g3069
asbasbasbag69
(g85
g71
NtRp4668
(dp4669
g74
(dp4670
sg83
g3162
sg76
(lp4671
g69
(g90
g71
NtRp4672
(dp4673
g74
(dp4674
g94
g95
ssg83
g4668
sg76
(lp4675
S'status'
p4676
asbag69
(g90
g71
NtRp4677
(dp4678
g74
(dp4679
g101
g102
ssg83
g4668
sg76
(lp4680
S':'
asbag69
(g90
g71
NtRp4681
(dp4682
g74
(dp4683
sg83
g4668
sg76
(lp4684
g69
(g70
g71
NtRp4685
(dp4686
g74
(dp4687
g82
I5
ssg83
g4681
sg76
(lp4688
S'200'
p4689
asbasbasbag69
(g85
g71
NtRp4690
(dp4691
g74
(dp4692
sg83
g3162
sg76
(lp4693
g69
(g90
g71
NtRp4694
(dp4695
g74
(dp4696
g94
g95
ssg83
g4690
sg76
(lp4697
S'subtitle'
p4698
asbag69
(g90
g71
NtRp4699
(dp4700
g74
(dp4701
g101
g102
ssg83
g4690
sg76
(lp4702
S':'
asbag69
(g90
g71
NtRp4703
(dp4704
g74
(dp4705
sg83
g4690
sg76
(lp4706
g69
(g70
g71
NtRp4707
(dp4708
g74
(dp4709
g82
I5
ssg83
g4703
sg76
(lp4710
g3652
(S's,\x00\x00\x00Sistema de liquidacion de sueldos y jornales'
tRp4711
asbasbasbag69
(g85
g71
NtRp4712
(dp4713
g74
(dp4714
sg83
g3162
sg76
(lp4715
g69
(g90
g71
NtRp4716
(dp4717
g74
(dp4718
g94
g95
ssg83
g4712
sg76
(lp4719
S'title'
p4720
asbag69
(g90
g71
NtRp4721
(dp4722
g74
(dp4723
g101
g102
ssg83
g4712
sg76
(lp4724
S':'
asbag69
(g90
g71
NtRp4725
(dp4726
g74
(dp4727
sg83
g4712
sg76
(lp4728
g69
(g70
g71
NtRp4729
(dp4730
g74
(dp4731
g82
I5
ssg83
g4725
sg76
(lp4732
S'Sueldos'
p4733
asbasbasbag69
(g85
g71
NtRp4734
(dp4735
g74
(dp4736
sg83
g3162
sg76
(lp4737
g69
(g90
g71
NtRp4738
(dp4739
g74
(dp4740
g94
g95
ssg83
g4734
sg76
(lp4741
S'view'
p4742
asbag69
(g90
g71
NtRp4743
(dp4744
g74
(dp4745
g101
g102
ssg83
g4734
sg76
(lp4746
S':'
asbag69
(g90
g71
NtRp4747
(dp4748
g74
(dp4749
sg83
g4734
sg76
(lp4750
g69
(g70
g71
NtRp4751
(dp4752
g74
(dp4753
g82
I5
ssg83
g4747
sg76
(lp4754
S'default/clientes.html'
p4755
asbasbasbasbasbsS'locals'
p4756
(dp4757
g4
S"'/home/marco/projects/contabilidad/web2py/applications/sueldos/controllers/default.py'"
p4758
sg6
S"'# -*- coding: utf-8 -*-\\n# this file is released ...ud())\\n\\nresponse._vars=response._caller(clientes)\\n'"
p4759
sssS'traceback'
p4760
S'Traceback (most recent call last):\n  File "/home/marco/projects/contabilidad/web2py/gluon/restricted.py", line 211, in restricted\n    ccode = compile2(code, layer)\n  File "/home/marco/projects/contabilidad/web2py/gluon/restricted.py", line 194, in compile2\n    return compile(code.rstrip().replace(\'\\r\\n\', \'\\n\') + \'\\n\', layer, \'exec\')\n  File "/home/marco/projects/contabilidad/web2py/applications/sueldos/controllers/default.py", line 32\n    anotaciones=db(db.notas.id>0).select(orderby~=db.notas.fecha)\n                                                ^\nSyntaxError: invalid syntax\n'
p4761
s.