(dp1
S'output'
p2
S"<type 'exceptions.AttributeError'> 'Rows' object has no attribute 'count'"
p3
sS'layer'
p4
S'/home/marco/projects/contabilidad/web2py/applications/sueldos/views/default/convenios.html'
p5
sS'code'
p6
S'response.write(\'<!DOCTYPE html>\\n<!-- paulirish.com/2008/conditional-stylesheets-vs-css-hacks-answer-neither/ -->\\n<!--[if lt IE 7]><html class="ie ie6 ie-lte9 ie-lte8 ie-lte7 no-js" lang="\', escape=False)\nresponse.write(T.accepted_language or \'en\')\nresponse.write(\'"> <![endif]-->\\n<!--[if IE 7]><html class="ie ie7 ie-lte9 ie-lte8 ie-lte7 no-js" lang="\', escape=False)\nresponse.write(T.accepted_language or \'en\')\nresponse.write(\'"> <![endif]-->\\n<!--[if IE 8]><html class="ie ie8 ie-lte9 ie-lte8 no-js" lang="\', escape=False)\nresponse.write(T.accepted_language or \'en\')\nresponse.write(\'"> <![endif]-->\\n<!--[if IE 9]><html class="ie9 ie-lte9 no-js" lang="\', escape=False)\nresponse.write(T.accepted_language or \'en\')\nresponse.write(\'"> <![endif]-->\\n<!--[if (gt IE 9)|!(IE)]><!--> <html class="no-js" lang="\', escape=False)\nresponse.write(T.accepted_language or \'en\')\nresponse.write(\'"> <!--<![endif]-->\\n<head>\\n  <meta charset="utf-8" />\\n  <!-- www.phpied.com/conditional-comments-block-downloads/ -->\\n  <!-- Always force latest IE rendering engine\\n       (even in intranet) & Chrome Frame\\n       Remove this if you use the .htaccess -->\\n  <!--[if IE]>\\n      <meta http-equiv="X-UA-Compatible" content="IE=edge\', escape=False)\nresponse.write(not request.is_local and \',chrome=1\' or \'\')\nresponse.write(\'">\\n      <![endif]-->\\n\\n  <title>\', escape=False)\nresponse.write(response.title or request.application)\nresponse.write(\'</title>\\n\\n  <!-- http://dev.w3.org/html5/markup/meta.name.html -->\\n  <meta name="application-name" content="\', escape=False)\nresponse.write(request.application)\nresponse.write(\'" />\\n\\n  <!-- Speaking of Google, don\\\'t forget to set your site up:\\n       http://google.com/webmasters -->\\n  <meta name="google-site-verification" content="" />\\n\\n  <!--  Mobile Viewport Fix\\n        j.mp/mobileviewport & davidbcalhoun.com/2010/viewport-metatag\\n        device-width: Occupy full width of the screen in its current orientation\\n        initial-scale = 1.0 retains dimensions instead of zooming out if page height > device height\\n        user-scalable = yes allows the user to zoom in -->\\n  <meta name="viewport" content="width=device-width, initial-scale=1.0">\\n\\n  <link rel="shortcut icon" href="\', escape=False)\nresponse.write(URL(\'static\',\'images/favicon.ico\'))\nresponse.write(\'" type="image/x-icon">\\n  <link rel="apple-touch-icon" href="\', escape=False)\nresponse.write(URL(\'static\',\'images/favicon.png\'))\nresponse.write(\'">\\n\\n  <!-- All JavaScript at the bottom, except for Modernizr which enables\\n       HTML5 elements & feature detects -->\\n  <script src="\', escape=False)\nresponse.write(URL(\'static\',\'js/modernizr.custom.js\'))\nresponse.write(\'"></script>\\n\\n  <!-- include stylesheets -->\\n  \', escape=False)\nresponse.files.append(URL(\'static\',\'css/web2py.css\'))\nresponse.files.append(URL(\'static\',\'css/bootstrap.min.css\'))\nresponse.files.append(URL(\'static\',\'css/bootstrap-responsive.min.css\'))\nresponse.files.append(URL(\'static\',\'css/web2py_bootstrap.css\'))\nresponse.files.append(URL(\'static\',\'css/awesome/css/font-awesome.min.css\'))\nresponse.files.append(URL(\'static\',\'css/xignus.css\'))\nresponse.write(\'\\n\\n  \', escape=False)\nresponse.write(\'<script type="text/javascript"><!--\\n    // These variables are used by the web2py_ajax_init function in web2py_ajax.js (which is loaded below).\\n    var w2p_ajax_confirm_message = "\', escape=False)\nresponse.write(T(\'Are you sure you want to delete this object?\'))\nresponse.write(\'";\\n    var w2p_ajax_date_format = "\', escape=False)\nresponse.write(T(\'%Y-%m-%d\'))\nresponse.write(\'";\\n    var w2p_ajax_datetime_format = "\', escape=False)\nresponse.write(T(\'%Y-%m-%d %H:%M:%S\'))\nresponse.write(\'";\\n    //--></script>\\n\', escape=False)\nresponse.files.insert(0,URL(\'static\',\'js/jquery.js\'))\nresponse.files.insert(1,URL(\'static\',\'css/calendar.css\'))\nresponse.files.insert(2,URL(\'static\',\'js/calendar.js\'))\nresponse.files.insert(3,URL(\'static\',\'js/web2py.js\'))\nresponse.include_meta()\nresponse.include_files()\nresponse.write(\'\\n\', escape=False)\nresponse.write(\'\\n\\n  \', escape=False)\n# using sidebars need to know what sidebar you want to use\nleft_sidebar_enabled = globals().get(\'left_sidebar_enabled\',False)\nright_sidebar_enabled = globals().get(\'right_sidebar_enabled\',False)\nmiddle_columns = {0:\'span12\',1:\'span9\',2:\'span6\'}[\n(left_sidebar_enabled and 1 or 0)+(right_sidebar_enabled and 1 or 0)]\nresponse.write(\'\\n\\n  <!-- uncomment here to load jquery-ui\\n       <link rel="stylesheet" href="http://ajax.googleapis.com/ajax/libs/jqueryui/1.8.16/themes/base/jquery-ui.css" type="text/css" media="all" />\\n       <script src="http://ajax.googleapis.com/ajax/libs/jqueryui/1.8.16/jquery-ui.min.js" type="text/javascript"></script>\\n       uncomment to load jquery-ui //-->\\n  <noscript><link href="\', escape=False)\nresponse.write(URL(\'static\', \'css/web2py_bootstrap_nojs.css\'))\nresponse.write(\'" rel="stylesheet" type="text/css" /></noscript>\\n  \', escape=False)\nresponse.write(\'\\n</head>\\n\\n<body>\\n  <!-- Navbar ================================================== -->\\n  <div class="navbar navbar-inverse navbar-fixed-top">\\n    <div class="flash">\', escape=False)\nresponse.write(response.flash or \'\')\nresponse.write(\'</div>\\n    <div class="navbar-inner">\\n      <div class="container">\\n        <!-- the next tag is necessary for bootstrap menus, do not remove -->\\n        <button type="button" class="btn btn-navbar" data-toggle="collapse" data-target=".nav-collapse">\\n          <span class="icon-bar"></span>\\n          <span class="icon-bar"></span>\\n          <span class="icon-bar"></span>\\n        </button>\\n        <a class="brand" href="http://www.web2py.com/"><b>web<span>2</span>py</b>&trade;&nbsp;</a>\\n        <ul id="navbar" class="nav pull-right">\', escape=False)\nresponse.write(\'auth\' in globals() and auth.navbar(mode="dropdown") or \'\')\nresponse.write(\'</ul>\\n        <div class="nav-collapse">\\n          \', escape=False)\nis_mobile=request.user_agent().is_mobile\nresponse.write(\'\\n          \', escape=False)\nif response.menu:\n    response.write(\'\\n          \', escape=False)\n    response.write(MENU(response.menu, _class=\'mobile-menu nav\' if is_mobile else \'nav\',mobile=is_mobile,li_class=\'dropdown\',ul_class=\'dropdown-menu\'))\n    response.write(\'\\n          \', escape=False)\n    pass\nresponse.write(\'\\n        </div><!--/.nav-collapse -->\\n      </div>\\n    </div>\\n  </div><!--/top navbar -->\\n\\n  <div class="container">\\n    <!-- Masthead ================================================== -->\\n    <header class="mastheader row" id="header">\\n        <div class="span12">\\n            <div class="page-header">\\n                <h1>\\n                    \', escape=False)\nresponse.write(response.title or request.application)\nresponse.write(\'\\n                    <small>\', escape=False)\nresponse.write(response.subtitle or \'\')\nresponse.write(\'</small>\\n                </h1>\\n            </div>\\n        </div>\\n    </header>\\n\\n    <section id="main" class="main row">\\n        \', escape=False)\nif left_sidebar_enabled:\n    response.write(\'\\n        <div class="span3 left-sidebar">\\n            \', escape=False)\n    response.write(\'\\n            <h3>Left Sidebar</h3>\\n            <p></p>\\n            \', escape=False)\n    response.write(\'\\n        </div>\\n        \', escape=False)\n    pass\nresponse.write(\'\\n\\n        <div class="\', escape=False)\nresponse.write(middle_columns)\nresponse.write(\'">\\n            \', escape=False)\nresponse.write(\'\\n            \', escape=False)\nresponse.write(\'\\n\\n<a href="#nuevo" role="button" class="btn btn-large btn-primary" data-toggle="modal"><h3><i class="icon-plus icon-white"></i> Nuevo convenio</h3></a>\\n<h1>Hay \', escape=False)\nresponse.write(listado.count())\nresponse.write(\' convenios vigentes</h1>\\n<table class="table table-bordered table-hover">\\n<thead>\\n<tr>\\n<th></th>\\n<th>Rubro</th>\\n<th>Sindicato</th>\\n<th>Sitio web</th>\\n<th>Importes de recibo</th>\\n<th>Escalas salariales</th>\\n</tr>\\n</thead>\\n<tbody>\\n\', escape=False)\nfor elemento in listado:\n    response.write(\'\\n<tr>\\n<td><a href="#\', escape=False)\n    response.write(elemento.id)\n    response.write(\'" role="button" class="btn btn-danger" data-toggle="modal"><i class="icon-edit icon-white"></i> Editar</a></td>\\n<td>\', escape=False)\n    response.write(elemento.rubro)\n    response.write(\'</td>\\n<td>\', escape=False)\n    response.write(elemento.sindicato)\n    response.write(\'</td>\\n<td>\', escape=False)\n    response.write(elemento.web)\n    response.write(\'</td>\\n<td>\', escape=False)\n    response.write(A(I(_class=\'icon-money\'),\' Ver valores\', _href=URL(\'vistas\',\'importes\', vars=dict(id=elemento.id, sindicato=elemento.rubro)), _class="btn btn-primary"))\n    response.write(\'</td>\\n<td>\', escape=False)\n    response.write(A(I(_class=\'icon-bar-chart\'),\' Ver escalas\', _href=URL(\'vistas\',\'escalas\', vars=dict(id=elemento.id, sindicato=elemento.rubro)), _class="btn btn-primary"))\n    response.write(\'</td>\\n</tr>\\n\', escape=False)\n    pass\nresponse.write(\'\\n</tbody>\\n</table>\\n\\n<div id="nuevo" class="modal hide fade" tabindex="-1" role="dialog" aria-labelledby="nuevoLabel" aria-hidden="true">\\n  <div class="modal-header">\\n    <button type="button" class="close" data-dismiss="modal" aria-hidden="true">\\xc3\\x97</button>\\n    <h3 id="nuevoLabel">Nuevo convenio</h3>\\n  </div>\\n  <div class="modal-body">\\n    \', escape=False)\nresponse.write(nuevo)\nresponse.write(\'\\n  </div>\\n</div>\\n\\n\\n\', escape=False)\nfor elemento in listado:\n    response.write(\'\\n<div id="\', escape=False)\n    response.write(elemento.id)\n    response.write(\'" class="modal hide fade" tabindex="-1" role="dialog" aria-labelledby="\', escape=False)\n    response.write(elemento.id)\n    response.write(\'Label" aria-hidden="true">\\n  <div class="modal-header">\\n    <button type="button" class="close" data-dismiss="modal" aria-hidden="true">\\xc3\\x97</button>\\n    <h3 id="\', escape=False)\n    response.write(elemento.id)\n    response.write(\'Label">Editar convenio</h3>\\n  </div>\\n  <div class="modal-body">\\n    \', escape=False)\n    response.write(crud.update(db.gremios, elemento.id))\n    response.write(\'\\n  </div>\\n</div>\\n\', escape=False)\n    pass\nresponse.write(\'\\n\', escape=False)\nresponse.write(\'\\n            \', escape=False)\nresponse.write(\'\\n        </div>\\n\\n        \', escape=False)\nif right_sidebar_enabled:\n    response.write(\'\\n        <div class="span3">\\n            \', escape=False)\n    response.write(\'\\n            <h3>Right Sidebar</h3>\\n            <p></p>\\n            \', escape=False)\n    response.write(\'\\n        </div>\\n        \', escape=False)\n    pass\nresponse.write(\'\\n    </section><!--/main-->\\n\\n    <!-- Footer ================================================== -->\\n    <div class="row">\\n        <footer class="footer span12" id="footer">\\n            <div class="footer-content">\\n                \', escape=False)\nresponse.write(\' <!-- this is default footer -->\\n                <div class="copyright pull-left">\', escape=False)\nresponse.write(T(\'Copyright\'))\nresponse.write(\' &#169; \', escape=False)\nresponse.write(request.now.year)\nresponse.write(\'</div>\\n                <div id="poweredBy" class="pull-right">\\n                    \', escape=False)\nresponse.write(T(\'Powered by\'))\nresponse.write(\'\\n                    <a href="http://www.web2py.com/">web2py</a>\\n                </div>\\n                \', escape=False)\nresponse.write(\'\\n            </div>\\n        </footer>\\n    </div>\\n\\n  </div> <!-- /container -->\\n\\n  <!-- The javascript =============================================\\n       (Placed at the end of the document so the pages load faster) -->\\n  <script src="\', escape=False)\nresponse.write(URL(\'static\',\'js/bootstrap.min.js\'))\nresponse.write(\'"></script>\\n  <script src="\', escape=False)\nresponse.write(URL(\'static\',\'js/web2py_bootstrap.js\'))\nresponse.write(\'"></script>\\n  <!--[if lt IE 7 ]>\\n      <script src="\', escape=False)\nresponse.write(URL(\'static\',\'js/dd_belatedpng.js\'))\nresponse.write(\'"></script>\\n      <script> DD_belatedPNG.fix(\\\'img, .png_bg\\\'); //fix any <img> or .png_bg background-images </script>\\n      <![endif]-->\\n  \', escape=False)\nif response.google_analytics_id:\n    response.write(\'<script type="text/javascript"> var _gaq = _gaq || []; _gaq.push([\\\'_setAccount\\\', \\\'\', escape=False)\n    response.write(response.google_analytics_id)\n    response.write("\']); _gaq.push([\'_trackPageview\']); (function() { var ga = document.createElement(\'script\'); ga.type = \'text/javascript\'; ga.async = true; ga.src = (\'https:\' == document.location.protocol ? \'https://ssl\' : \'http://www\') + \'.google-analytics.com/ga.js\'; var s = document.getElementsByTagName(\'script\')[0]; s.parentNode.insertBefore(ga, s); })(); </script> ", escape=False)\n    pass\nresponse.write(\'\\n  <script src="\', escape=False)\nresponse.write(URL(\'static\',\'js/share.js\',vars=dict(static=URL(\'static\',\'images\'))))\nresponse.write(\'"></script>\\n</body>\\n</html>\\n\\n\', escape=False)'
p7
sS'snapshot'
p8
(dp9
S'exception'
p10
(dp11
S'__hash__'
p12
S"<method-wrapper '__hash__' of exceptions.AttributeError object>"
p13
sS'__setattr__'
p14
S"<method-wrapper '__setattr__' of exceptions.AttributeError object>"
p15
sS'__reduce_ex__'
p16
S'<built-in method __reduce_ex__ of exceptions.AttributeError object>'
p17
sS'__getslice__'
p18
S"<method-wrapper '__getslice__' of exceptions.AttributeError object>"
p19
sS'__getitem__'
p20
S"<method-wrapper '__getitem__' of exceptions.AttributeError object>"
p21
sS'__setstate__'
p22
S'<built-in method __setstate__ of exceptions.AttributeError object>'
p23
sS'args'
p24
S'("\'Rows\' object has no attribute \'count\'",)'
p25
sS'__reduce__'
p26
S'<built-in method __reduce__ of exceptions.AttributeError object>'
p27
sS'__str__'
p28
S"<method-wrapper '__str__' of exceptions.AttributeError object>"
p29
sS'__format__'
p30
S'<built-in method __format__ of exceptions.AttributeError object>'
p31
sS'__getattribute__'
p32
S"<method-wrapper '__getattribute__' of exceptions.AttributeError object>"
p33
sS'__class__'
p34
S"<type 'exceptions.AttributeError'>"
p35
sS'__unicode__'
p36
S'<built-in method __unicode__ of exceptions.AttributeError object>'
p37
sS'__delattr__'
p38
S"<method-wrapper '__delattr__' of exceptions.AttributeError object>"
p39
sS'__subclasshook__'
p40
S'<built-in method __subclasshook__ of type object>'
p41
sS'__repr__'
p42
S"<method-wrapper '__repr__' of exceptions.AttributeError object>"
p43
sS'__dict__'
p44
S'{}'
p45
sS'__sizeof__'
p46
S'<built-in method __sizeof__ of exceptions.AttributeError object>'
p47
sS'__doc__'
p48
S"'Attribute not found.'"
p49
sS'__init__'
p50
S"<method-wrapper '__init__' of exceptions.AttributeError object>"
p51
sS'__new__'
p52
S'<built-in method __new__ of type object>'
p53
ssS'evalue'
p54
S"'Rows' object has no attribute 'count'"
p55
sS'request'
p56
ccopy_reg
_reconstructor
p57
(cgluon.html
BEAUTIFY
p58
c__builtin__
object
p59
NtRp60
(dp61
S'attributes'
p62
(dp63
sS'components'
p64
(lp65
g57
(cgluon.html
TABLE
p66
g59
NtRp67
(dp68
g62
(dp69
S'level'
p70
I5
ssS'parent'
p71
Nsg64
(lp72
g57
(cgluon.html
TR
p73
g59
NtRp74
(dp75
g62
(dp76
sg71
g67
sg64
(lp77
g57
(cgluon.html
TD
p78
g59
NtRp79
(dp80
g62
(dp81
S'_style'
p82
S'font-weight:bold;vertical-align:top'
p83
ssg71
g74
sg64
(lp84
S'ajax'
p85
asbag57
(g78
g59
NtRp86
(dp87
g62
(dp88
S'_valign'
p89
S'top'
p90
ssg71
g74
sg64
(lp91
S':'
asbag57
(g78
g59
NtRp92
(dp93
g62
(dp94
sg71
g74
sg64
(lp95
g57
(g58
g59
NtRp96
(dp97
g62
(dp98
g70
I5
ssg71
g92
sg64
(lp99
S'False'
p100
asbasbasbag57
(g73
g59
NtRp101
(dp102
g62
(dp103
sg71
g67
sg64
(lp104
g57
(g78
g59
NtRp105
(dp106
g62
(dp107
g82
g83
ssg71
g101
sg64
(lp108
S'application'
p109
asbag57
(g78
g59
NtRp110
(dp111
g62
(dp112
g89
g90
ssg71
g101
sg64
(lp113
S':'
asbag57
(g78
g59
NtRp114
(dp115
g62
(dp116
sg71
g101
sg64
(lp117
g57
(g58
g59
NtRp118
(dp119
g62
(dp120
g70
I5
ssg71
g114
sg64
(lp121
S'sueldos'
p122
asbasbasbag57
(g73
g59
NtRp123
(dp124
g62
(dp125
sg71
g67
sg64
(lp126
g57
(g78
g59
NtRp127
(dp128
g62
(dp129
g82
g83
ssg71
g123
sg64
(lp130
g24
asbag57
(g78
g59
NtRp131
(dp132
g62
(dp133
g89
g90
ssg71
g123
sg64
(lp134
S':'
asbag57
(g78
g59
NtRp135
(dp136
g62
(dp137
sg71
g123
sg64
(lp138
g57
(g58
g59
NtRp139
(dp140
g62
(dp141
g70
I5
ssg71
g135
sg64
(lp142
g57
(g66
g59
NtRp143
(dp144
g62
(dp145
g70
I4
ssg71
Nsg64
(lp146
sbasbasbasbag57
(g73
g59
NtRp147
(dp148
g62
(dp149
sg71
g67
sg64
(lp150
g57
(g78
g59
NtRp151
(dp152
g62
(dp153
g82
g83
ssg71
g147
sg64
(lp154
S'body'
p155
asbag57
(g78
g59
NtRp156
(dp157
g62
(dp158
g89
g90
ssg71
g147
sg64
(lp159
S':'
asbag57
(g78
g59
NtRp160
(dp161
g62
(dp162
sg71
g147
sg64
(lp163
g57
(g58
g59
NtRp164
(dp165
g62
(dp166
g70
I5
ssg71
g160
sg64
(lp167
S"<open file '<fdopen>', mode 'w+b' at 0x2bfa4b0>"
p168
asbasbasbag57
(g73
g59
NtRp169
(dp170
g62
(dp171
sg71
g67
sg64
(lp172
g57
(g78
g59
NtRp173
(dp174
g62
(dp175
g82
g83
ssg71
g169
sg64
(lp176
S'cid'
p177
asbag57
(g78
g59
NtRp178
(dp179
g62
(dp180
g89
g90
ssg71
g169
sg64
(lp181
S':'
asbag57
(g78
g59
NtRp182
(dp183
g62
(dp184
sg71
g169
sg64
(lp185
g57
(g58
g59
NtRp186
(dp187
g62
(dp188
g70
I5
ssg71
g182
sg64
(lp189
S'None'
p190
asbasbasbag57
(g73
g59
NtRp191
(dp192
g62
(dp193
sg71
g67
sg64
(lp194
g57
(g78
g59
NtRp195
(dp196
g62
(dp197
g82
g83
ssg71
g191
sg64
(lp198
S'client'
p199
asbag57
(g78
g59
NtRp200
(dp201
g62
(dp202
g89
g90
ssg71
g191
sg64
(lp203
S':'
asbag57
(g78
g59
NtRp204
(dp205
g62
(dp206
sg71
g191
sg64
(lp207
g57
(g58
g59
NtRp208
(dp209
g62
(dp210
g70
I5
ssg71
g204
sg64
(lp211
S'127.0.0.1'
p212
asbasbasbag57
(g73
g59
NtRp213
(dp214
g62
(dp215
sg71
g67
sg64
(lp216
g57
(g78
g59
NtRp217
(dp218
g62
(dp219
g82
g83
ssg71
g213
sg64
(lp220
S'controller'
p221
asbag57
(g78
g59
NtRp222
(dp223
g62
(dp224
g89
g90
ssg71
g213
sg64
(lp225
S':'
asbag57
(g78
g59
NtRp226
(dp227
g62
(dp228
sg71
g213
sg64
(lp229
g57
(g58
g59
NtRp230
(dp231
g62
(dp232
g70
I5
ssg71
g226
sg64
(lp233
S'default'
p234
asbasbasbag57
(g73
g59
NtRp235
(dp236
g62
(dp237
sg71
g67
sg64
(lp238
g57
(g78
g59
NtRp239
(dp240
g62
(dp241
g82
g83
ssg71
g235
sg64
(lp242
S'cookies'
p243
asbag57
(g78
g59
NtRp244
(dp245
g62
(dp246
g89
g90
ssg71
g235
sg64
(lp247
S':'
asbag57
(g78
g59
NtRp248
(dp249
g62
(dp250
sg71
g235
sg64
(lp251
g57
(g58
g59
NtRp252
(dp253
g62
(dp254
g70
I5
ssg71
g248
sg64
(lp255
g57
(g66
g59
NtRp256
(dp257
g62
(dp258
g70
I4
ssg71
Nsg64
(lp259
g57
(g73
g59
NtRp260
(dp261
g62
(dp262
sg71
g256
sg64
(lp263
g57
(g78
g59
NtRp264
(dp265
g62
(dp266
g82
g83
ssg71
g260
sg64
(lp267
S'session_id_admin'
p268
asbag57
(g78
g59
NtRp269
(dp270
g62
(dp271
g89
g90
ssg71
g260
sg64
(lp272
S':'
asbag57
(g78
g59
NtRp273
(dp274
g62
(dp275
sg71
g260
sg64
(lp276
g57
(g58
g59
NtRp277
(dp278
g62
(dp279
g70
I4
ssg71
g273
sg64
(lp280
S'127.0.0.1-02abd043-fc6c-40a0-be95-723d18a22c5d'
p281
ag57
(g66
g59
NtRp282
(dp283
g62
(dp284
g70
I3
ssg71
Nsg64
(lp285
g57
(g73
g59
NtRp286
(dp287
g62
(dp288
sg71
g282
sg64
(lp289
g57
(g78
g59
NtRp290
(dp291
g62
(dp292
g82
g83
ssg71
g286
sg64
(lp293
S'comment'
p294
asbag57
(g78
g59
NtRp295
(dp296
g62
(dp297
g89
g90
ssg71
g286
sg64
(lp298
S':'
asbag57
(g78
g59
NtRp299
(dp300
g62
(dp301
sg71
g286
sg64
(lp302
g57
(g58
g59
NtRp303
(dp304
g62
(dp305
g70
I3
ssg71
g299
sg64
(lp306
S''
asbasbasbag57
(g73
g59
NtRp307
(dp308
g62
(dp309
sg71
g282
sg64
(lp310
g57
(g78
g59
NtRp311
(dp312
g62
(dp313
g82
g83
ssg71
g307
sg64
(lp314
S'domain'
p315
asbag57
(g78
g59
NtRp316
(dp317
g62
(dp318
g89
g90
ssg71
g307
sg64
(lp319
S':'
asbag57
(g78
g59
NtRp320
(dp321
g62
(dp322
sg71
g307
sg64
(lp323
g57
(g58
g59
NtRp324
(dp325
g62
(dp326
g70
I3
ssg71
g320
sg64
(lp327
S''
asbasbasbag57
(g73
g59
NtRp328
(dp329
g62
(dp330
sg71
g282
sg64
(lp331
g57
(g78
g59
NtRp332
(dp333
g62
(dp334
g82
g83
ssg71
g328
sg64
(lp335
S'expires'
p336
asbag57
(g78
g59
NtRp337
(dp338
g62
(dp339
g89
g90
ssg71
g328
sg64
(lp340
S':'
asbag57
(g78
g59
NtRp341
(dp342
g62
(dp343
sg71
g328
sg64
(lp344
g57
(g58
g59
NtRp345
(dp346
g62
(dp347
g70
I3
ssg71
g341
sg64
(lp348
S''
asbasbasbag57
(g73
g59
NtRp349
(dp350
g62
(dp351
sg71
g282
sg64
(lp352
g57
(g78
g59
NtRp353
(dp354
g62
(dp355
g82
g83
ssg71
g349
sg64
(lp356
S'httponly'
p357
asbag57
(g78
g59
NtRp358
(dp359
g62
(dp360
g89
g90
ssg71
g349
sg64
(lp361
S':'
asbag57
(g78
g59
NtRp362
(dp363
g62
(dp364
sg71
g349
sg64
(lp365
g57
(g58
g59
NtRp366
(dp367
g62
(dp368
g70
I3
ssg71
g362
sg64
(lp369
S''
asbasbasbag57
(g73
g59
NtRp370
(dp371
g62
(dp372
sg71
g282
sg64
(lp373
g57
(g78
g59
NtRp374
(dp375
g62
(dp376
g82
g83
ssg71
g370
sg64
(lp377
S'max-age'
p378
asbag57
(g78
g59
NtRp379
(dp380
g62
(dp381
g89
g90
ssg71
g370
sg64
(lp382
S':'
asbag57
(g78
g59
NtRp383
(dp384
g62
(dp385
sg71
g370
sg64
(lp386
g57
(g58
g59
NtRp387
(dp388
g62
(dp389
g70
I3
ssg71
g383
sg64
(lp390
S''
asbasbasbag57
(g73
g59
NtRp391
(dp392
g62
(dp393
sg71
g282
sg64
(lp394
g57
(g78
g59
NtRp395
(dp396
g62
(dp397
g82
g83
ssg71
g391
sg64
(lp398
S'path'
p399
asbag57
(g78
g59
NtRp400
(dp401
g62
(dp402
g89
g90
ssg71
g391
sg64
(lp403
S':'
asbag57
(g78
g59
NtRp404
(dp405
g62
(dp406
sg71
g391
sg64
(lp407
g57
(g58
g59
NtRp408
(dp409
g62
(dp410
g70
I3
ssg71
g404
sg64
(lp411
S''
asbasbasbag57
(g73
g59
NtRp412
(dp413
g62
(dp414
sg71
g282
sg64
(lp415
g57
(g78
g59
NtRp416
(dp417
g62
(dp418
g82
g83
ssg71
g412
sg64
(lp419
S'secure'
p420
asbag57
(g78
g59
NtRp421
(dp422
g62
(dp423
g89
g90
ssg71
g412
sg64
(lp424
S':'
asbag57
(g78
g59
NtRp425
(dp426
g62
(dp427
sg71
g412
sg64
(lp428
g57
(g58
g59
NtRp429
(dp430
g62
(dp431
g70
I3
ssg71
g425
sg64
(lp432
S''
asbasbasbag57
(g73
g59
NtRp433
(dp434
g62
(dp435
sg71
g282
sg64
(lp436
g57
(g78
g59
NtRp437
(dp438
g62
(dp439
g82
g83
ssg71
g433
sg64
(lp440
S'version'
p441
asbag57
(g78
g59
NtRp442
(dp443
g62
(dp444
g89
g90
ssg71
g433
sg64
(lp445
S':'
asbag57
(g78
g59
NtRp446
(dp447
g62
(dp448
sg71
g433
sg64
(lp449
g57
(g58
g59
NtRp450
(dp451
g62
(dp452
g70
I3
ssg71
g446
sg64
(lp453
S''
asbasbasbasbasbasbasbag57
(g73
g59
NtRp454
(dp455
g62
(dp456
sg71
g256
sg64
(lp457
g57
(g78
g59
NtRp458
(dp459
g62
(dp460
g82
g83
ssg71
g454
sg64
(lp461
S'session_id_sueldos'
p462
asbag57
(g78
g59
NtRp463
(dp464
g62
(dp465
g89
g90
ssg71
g454
sg64
(lp466
S':'
asbag57
(g78
g59
NtRp467
(dp468
g62
(dp469
sg71
g454
sg64
(lp470
g57
(g58
g59
NtRp471
(dp472
g62
(dp473
g70
I4
ssg71
g467
sg64
(lp474
S'127.0.0.1-05ce4365-dc54-4394-bd3e-60890d75bc96'
p475
ag57
(g66
g59
NtRp476
(dp477
g62
(dp478
g70
I3
ssg71
Nsg64
(lp479
g57
(g73
g59
NtRp480
(dp481
g62
(dp482
sg71
g476
sg64
(lp483
g57
(g78
g59
NtRp484
(dp485
g62
(dp486
g82
g83
ssg71
g480
sg64
(lp487
g294
asbag57
(g78
g59
NtRp488
(dp489
g62
(dp490
g89
g90
ssg71
g480
sg64
(lp491
S':'
asbag57
(g78
g59
NtRp492
(dp493
g62
(dp494
sg71
g480
sg64
(lp495
g57
(g58
g59
NtRp496
(dp497
g62
(dp498
g70
I3
ssg71
g492
sg64
(lp499
S''
asbasbasbag57
(g73
g59
NtRp500
(dp501
g62
(dp502
sg71
g476
sg64
(lp503
g57
(g78
g59
NtRp504
(dp505
g62
(dp506
g82
g83
ssg71
g500
sg64
(lp507
g315
asbag57
(g78
g59
NtRp508
(dp509
g62
(dp510
g89
g90
ssg71
g500
sg64
(lp511
S':'
asbag57
(g78
g59
NtRp512
(dp513
g62
(dp514
sg71
g500
sg64
(lp515
g57
(g58
g59
NtRp516
(dp517
g62
(dp518
g70
I3
ssg71
g512
sg64
(lp519
S''
asbasbasbag57
(g73
g59
NtRp520
(dp521
g62
(dp522
sg71
g476
sg64
(lp523
g57
(g78
g59
NtRp524
(dp525
g62
(dp526
g82
g83
ssg71
g520
sg64
(lp527
g336
asbag57
(g78
g59
NtRp528
(dp529
g62
(dp530
g89
g90
ssg71
g520
sg64
(lp531
S':'
asbag57
(g78
g59
NtRp532
(dp533
g62
(dp534
sg71
g520
sg64
(lp535
g57
(g58
g59
NtRp536
(dp537
g62
(dp538
g70
I3
ssg71
g532
sg64
(lp539
S''
asbasbasbag57
(g73
g59
NtRp540
(dp541
g62
(dp542
sg71
g476
sg64
(lp543
g57
(g78
g59
NtRp544
(dp545
g62
(dp546
g82
g83
ssg71
g540
sg64
(lp547
g357
asbag57
(g78
g59
NtRp548
(dp549
g62
(dp550
g89
g90
ssg71
g540
sg64
(lp551
S':'
asbag57
(g78
g59
NtRp552
(dp553
g62
(dp554
sg71
g540
sg64
(lp555
g57
(g58
g59
NtRp556
(dp557
g62
(dp558
g70
I3
ssg71
g552
sg64
(lp559
S''
asbasbasbag57
(g73
g59
NtRp560
(dp561
g62
(dp562
sg71
g476
sg64
(lp563
g57
(g78
g59
NtRp564
(dp565
g62
(dp566
g82
g83
ssg71
g560
sg64
(lp567
g378
asbag57
(g78
g59
NtRp568
(dp569
g62
(dp570
g89
g90
ssg71
g560
sg64
(lp571
S':'
asbag57
(g78
g59
NtRp572
(dp573
g62
(dp574
sg71
g560
sg64
(lp575
g57
(g58
g59
NtRp576
(dp577
g62
(dp578
g70
I3
ssg71
g572
sg64
(lp579
S''
asbasbasbag57
(g73
g59
NtRp580
(dp581
g62
(dp582
sg71
g476
sg64
(lp583
g57
(g78
g59
NtRp584
(dp585
g62
(dp586
g82
g83
ssg71
g580
sg64
(lp587
g399
asbag57
(g78
g59
NtRp588
(dp589
g62
(dp590
g89
g90
ssg71
g580
sg64
(lp591
S':'
asbag57
(g78
g59
NtRp592
(dp593
g62
(dp594
sg71
g580
sg64
(lp595
g57
(g58
g59
NtRp596
(dp597
g62
(dp598
g70
I3
ssg71
g592
sg64
(lp599
S''
asbasbasbag57
(g73
g59
NtRp600
(dp601
g62
(dp602
sg71
g476
sg64
(lp603
g57
(g78
g59
NtRp604
(dp605
g62
(dp606
g82
g83
ssg71
g600
sg64
(lp607
g420
asbag57
(g78
g59
NtRp608
(dp609
g62
(dp610
g89
g90
ssg71
g600
sg64
(lp611
S':'
asbag57
(g78
g59
NtRp612
(dp613
g62
(dp614
sg71
g600
sg64
(lp615
g57
(g58
g59
NtRp616
(dp617
g62
(dp618
g70
I3
ssg71
g612
sg64
(lp619
S''
asbasbasbag57
(g73
g59
NtRp620
(dp621
g62
(dp622
sg71
g476
sg64
(lp623
g57
(g78
g59
NtRp624
(dp625
g62
(dp626
g82
g83
ssg71
g620
sg64
(lp627
g441
asbag57
(g78
g59
NtRp628
(dp629
g62
(dp630
g89
g90
ssg71
g620
sg64
(lp631
S':'
asbag57
(g78
g59
NtRp632
(dp633
g62
(dp634
sg71
g620
sg64
(lp635
g57
(g58
g59
NtRp636
(dp637
g62
(dp638
g70
I3
ssg71
g632
sg64
(lp639
S''
asbasbasbasbasbasbasbasbasbasbasbag57
(g73
g59
NtRp640
(dp641
g62
(dp642
sg71
g67
sg64
(lp643
g57
(g78
g59
NtRp644
(dp645
g62
(dp646
g82
g83
ssg71
g640
sg64
(lp647
S'env'
p648
asbag57
(g78
g59
NtRp649
(dp650
g62
(dp651
g89
g90
ssg71
g640
sg64
(lp652
S':'
asbag57
(g78
g59
NtRp653
(dp654
g62
(dp655
sg71
g640
sg64
(lp656
g57
(g58
g59
NtRp657
(dp658
g62
(dp659
g70
I5
ssg71
g653
sg64
(lp660
g57
(g66
g59
NtRp661
(dp662
g62
(dp663
g70
I4
ssg71
Nsg64
(lp664
g57
(g73
g59
NtRp665
(dp666
g62
(dp667
sg71
g661
sg64
(lp668
g57
(g78
g59
NtRp669
(dp670
g62
(dp671
g82
g83
ssg71
g665
sg64
(lp672
S'app_folders'
p673
asbag57
(g78
g59
NtRp674
(dp675
g62
(dp676
g89
g90
ssg71
g665
sg64
(lp677
S':'
asbag57
(g78
g59
NtRp678
(dp679
g62
(dp680
sg71
g665
sg64
(lp681
g57
(g58
g59
NtRp682
(dp683
g62
(dp684
g70
I4
ssg71
g678
sg64
(lp685
S"set(['/home/marco/projects/contabilidad/web2py/applications/admin/', '/home/marco/projects/contabilidad/web2py/applications/sueldos/'])"
p686
asbasbasbag57
(g73
g59
NtRp687
(dp688
g62
(dp689
sg71
g661
sg64
(lp690
g57
(g78
g59
NtRp691
(dp692
g62
(dp693
g82
g83
ssg71
g687
sg64
(lp694
S'applications_parent'
p695
asbag57
(g78
g59
NtRp696
(dp697
g62
(dp698
g89
g90
ssg71
g687
sg64
(lp699
S':'
asbag57
(g78
g59
NtRp700
(dp701
g62
(dp702
sg71
g687
sg64
(lp703
g57
(g58
g59
NtRp704
(dp705
g62
(dp706
g70
I4
ssg71
g700
sg64
(lp707
S'/home/marco/projects/contabilidad/web2py'
p708
asbasbasbag57
(g73
g59
NtRp709
(dp710
g62
(dp711
sg71
g661
sg64
(lp712
g57
(g78
g59
NtRp713
(dp714
g62
(dp715
g82
g83
ssg71
g709
sg64
(lp716
S'cmd_args'
p717
asbag57
(g78
g59
NtRp718
(dp719
g62
(dp720
g89
g90
ssg71
g709
sg64
(lp721
S':'
asbag57
(g78
g59
NtRp722
(dp723
g62
(dp724
sg71
g709
sg64
(lp725
g57
(g58
g59
NtRp726
(dp727
g62
(dp728
g70
I4
ssg71
g722
sg64
(lp729
g57
(g66
g59
NtRp730
(dp731
g62
(dp732
g70
I3
ssg71
Nsg64
(lp733
sbasbasbasbag57
(g73
g59
NtRp734
(dp735
g62
(dp736
sg71
g661
sg64
(lp737
g57
(g78
g59
NtRp738
(dp739
g62
(dp740
g82
g83
ssg71
g734
sg64
(lp741
S'cmd_options'
p742
asbag57
(g78
g59
NtRp743
(dp744
g62
(dp745
g89
g90
ssg71
g734
sg64
(lp746
S':'
asbag57
(g78
g59
NtRp747
(dp748
g62
(dp749
sg71
g734
sg64
(lp750
g57
(g58
g59
NtRp751
(dp752
g62
(dp753
g70
I4
ssg71
g747
sg64
(lp754
S"<Values at 0x200f5a8: {'verbose': False, 'ip': '127.0.0.1', 'with_scheduler': False, 'ips': [], 'shutdown_timeout': 5, 'taskbar': False, 'port': 8000, 'maxthreads': None, 'softcron': False, 'server_name': 'malena', 'bpython': False, 'nogui': False, 'pid_filename': 'httpserver.pid', 'extcron': False, 'runcron': False, 'run_system_tests': False, 'test': None, 'folder': '/home/marco/projects/contabilidad/web2py', 'config': '', 'minthreads': None, 'winservice': '', 'shell': None, 'run': '', 'log_filename': 'httpserver.log', 'debuglevel': 30, 'args': [''], 'socket_timeout': 5, 'ssl_ca_certificate': None, 'scheduler': None, 'profiler_filename': None, 'ssl_private_key': '', 'scheduler_groups': None, 'password': 'asd', 'request_queue_size': 5, 'ssl_certificate': '', 'cronjob': False, 'numthreads': None, 'quiet': False, 'interfaces': None, 'import_models': False, 'timeout': 10, 'plain': False, 'nobanner': False}>"
p755
asbasbasbag57
(g73
g59
NtRp756
(dp757
g62
(dp758
sg71
g661
sg64
(lp759
g57
(g78
g59
NtRp760
(dp761
g62
(dp762
g82
g83
ssg71
g756
sg64
(lp763
S'content_length'
p764
asbag57
(g78
g59
NtRp765
(dp766
g62
(dp767
g89
g90
ssg71
g756
sg64
(lp768
S':'
asbag57
(g78
g59
NtRp769
(dp770
g62
(dp771
sg71
g756
sg64
(lp772
g57
(g58
g59
NtRp773
(dp774
g62
(dp775
g70
I4
ssg71
g769
sg64
(lp776
S'967'
p777
asbasbasbag57
(g73
g59
NtRp778
(dp779
g62
(dp780
sg71
g661
sg64
(lp781
g57
(g78
g59
NtRp782
(dp783
g62
(dp784
g82
g83
ssg71
g778
sg64
(lp785
S'content_type'
p786
asbag57
(g78
g59
NtRp787
(dp788
g62
(dp789
g89
g90
ssg71
g778
sg64
(lp790
S':'
asbag57
(g78
g59
NtRp791
(dp792
g62
(dp793
sg71
g778
sg64
(lp794
g57
(g58
g59
NtRp795
(dp796
g62
(dp797
g70
I4
ssg71
g791
sg64
(lp798
S'multipart/form-data; boundary=---------------------------3810113586266093131528157627'
p799
asbasbasbag57
(g73
g59
NtRp800
(dp801
g62
(dp802
sg71
g661
sg64
(lp803
g57
(g78
g59
NtRp804
(dp805
g62
(dp806
g82
g83
ssg71
g800
sg64
(lp807
S'db_sessions'
p808
asbag57
(g78
g59
NtRp809
(dp810
g62
(dp811
g89
g90
ssg71
g800
sg64
(lp812
S':'
asbag57
(g78
g59
NtRp813
(dp814
g62
(dp815
sg71
g800
sg64
(lp816
g57
(g58
g59
NtRp817
(dp818
g62
(dp819
g70
I4
ssg71
g813
sg64
(lp820
S'set([])'
p821
asbasbasbag57
(g73
g59
NtRp822
(dp823
g62
(dp824
sg71
g661
sg64
(lp825
g57
(g78
g59
NtRp826
(dp827
g62
(dp828
g82
g83
ssg71
g822
sg64
(lp829
S'debugging'
p830
asbag57
(g78
g59
NtRp831
(dp832
g62
(dp833
g89
g90
ssg71
g822
sg64
(lp834
S':'
asbag57
(g78
g59
NtRp835
(dp836
g62
(dp837
sg71
g822
sg64
(lp838
g57
(g58
g59
NtRp839
(dp840
g62
(dp841
g70
I4
ssg71
g835
sg64
(lp842
g100
asbasbasbag57
(g73
g59
NtRp843
(dp844
g62
(dp845
sg71
g661
sg64
(lp846
g57
(g78
g59
NtRp847
(dp848
g62
(dp849
g82
g83
ssg71
g843
sg64
(lp850
S'gluon_parent'
p851
asbag57
(g78
g59
NtRp852
(dp853
g62
(dp854
g89
g90
ssg71
g843
sg64
(lp855
S':'
asbag57
(g78
g59
NtRp856
(dp857
g62
(dp858
sg71
g843
sg64
(lp859
g57
(g58
g59
NtRp860
(dp861
g62
(dp862
g70
I4
ssg71
g856
sg64
(lp863
S'/home/marco/projects/contabilidad/web2py'
p864
asbasbasbag57
(g73
g59
NtRp865
(dp866
g62
(dp867
sg71
g661
sg64
(lp868
g57
(g78
g59
NtRp869
(dp870
g62
(dp871
g82
g83
ssg71
g865
sg64
(lp872
S'http_accept'
p873
asbag57
(g78
g59
NtRp874
(dp875
g62
(dp876
g89
g90
ssg71
g865
sg64
(lp877
S':'
asbag57
(g78
g59
NtRp878
(dp879
g62
(dp880
sg71
g865
sg64
(lp881
g57
(g58
g59
NtRp882
(dp883
g62
(dp884
g70
I4
ssg71
g878
sg64
(lp885
S'text/html,application/xhtml+xml,application/xml;q=0.9,*/*;q=0.8'
p886
asbasbasbag57
(g73
g59
NtRp887
(dp888
g62
(dp889
sg71
g661
sg64
(lp890
g57
(g78
g59
NtRp891
(dp892
g62
(dp893
g82
g83
ssg71
g887
sg64
(lp894
S'http_accept_encoding'
p895
asbag57
(g78
g59
NtRp896
(dp897
g62
(dp898
g89
g90
ssg71
g887
sg64
(lp899
S':'
asbag57
(g78
g59
NtRp900
(dp901
g62
(dp902
sg71
g887
sg64
(lp903
g57
(g58
g59
NtRp904
(dp905
g62
(dp906
g70
I4
ssg71
g900
sg64
(lp907
S'gzip, deflate'
p908
asbasbasbag57
(g73
g59
NtRp909
(dp910
g62
(dp911
sg71
g661
sg64
(lp912
g57
(g78
g59
NtRp913
(dp914
g62
(dp915
g82
g83
ssg71
g909
sg64
(lp916
S'http_accept_language'
p917
asbag57
(g78
g59
NtRp918
(dp919
g62
(dp920
g89
g90
ssg71
g909
sg64
(lp921
S':'
asbag57
(g78
g59
NtRp922
(dp923
g62
(dp924
sg71
g909
sg64
(lp925
g57
(g58
g59
NtRp926
(dp927
g62
(dp928
g70
I4
ssg71
g922
sg64
(lp929
S'en-US,en;q=0.5'
p930
asbasbasbag57
(g73
g59
NtRp931
(dp932
g62
(dp933
sg71
g661
sg64
(lp934
g57
(g78
g59
NtRp935
(dp936
g62
(dp937
g82
g83
ssg71
g931
sg64
(lp938
S'http_cache_control'
p939
asbag57
(g78
g59
NtRp940
(dp941
g62
(dp942
g89
g90
ssg71
g931
sg64
(lp943
S':'
asbag57
(g78
g59
NtRp944
(dp945
g62
(dp946
sg71
g931
sg64
(lp947
g57
(g58
g59
NtRp948
(dp949
g62
(dp950
g70
I4
ssg71
g944
sg64
(lp951
S'max-age=0'
p952
asbasbasbag57
(g73
g59
NtRp953
(dp954
g62
(dp955
sg71
g661
sg64
(lp956
g57
(g78
g59
NtRp957
(dp958
g62
(dp959
g82
g83
ssg71
g953
sg64
(lp960
S'http_connection'
p961
asbag57
(g78
g59
NtRp962
(dp963
g62
(dp964
g89
g90
ssg71
g953
sg64
(lp965
S':'
asbag57
(g78
g59
NtRp966
(dp967
g62
(dp968
sg71
g953
sg64
(lp969
g57
(g58
g59
NtRp970
(dp971
g62
(dp972
g70
I4
ssg71
g966
sg64
(lp973
S'keep-alive'
p974
asbasbasbag57
(g73
g59
NtRp975
(dp976
g62
(dp977
sg71
g661
sg64
(lp978
g57
(g78
g59
NtRp979
(dp980
g62
(dp981
g82
g83
ssg71
g975
sg64
(lp982
S'http_content_length'
p983
asbag57
(g78
g59
NtRp984
(dp985
g62
(dp986
g89
g90
ssg71
g975
sg64
(lp987
S':'
asbag57
(g78
g59
NtRp988
(dp989
g62
(dp990
sg71
g975
sg64
(lp991
g57
(g58
g59
NtRp992
(dp993
g62
(dp994
g70
I4
ssg71
g988
sg64
(lp995
g777
asbasbasbag57
(g73
g59
NtRp996
(dp997
g62
(dp998
sg71
g661
sg64
(lp999
g57
(g78
g59
NtRp1000
(dp1001
g62
(dp1002
g82
g83
ssg71
g996
sg64
(lp1003
S'http_content_type'
p1004
asbag57
(g78
g59
NtRp1005
(dp1006
g62
(dp1007
g89
g90
ssg71
g996
sg64
(lp1008
S':'
asbag57
(g78
g59
NtRp1009
(dp1010
g62
(dp1011
sg71
g996
sg64
(lp1012
g57
(g58
g59
NtRp1013
(dp1014
g62
(dp1015
g70
I4
ssg71
g1009
sg64
(lp1016
g799
asbasbasbag57
(g73
g59
NtRp1017
(dp1018
g62
(dp1019
sg71
g661
sg64
(lp1020
g57
(g78
g59
NtRp1021
(dp1022
g62
(dp1023
g82
g83
ssg71
g1017
sg64
(lp1024
S'http_cookie'
p1025
asbag57
(g78
g59
NtRp1026
(dp1027
g62
(dp1028
g89
g90
ssg71
g1017
sg64
(lp1029
S':'
asbag57
(g78
g59
NtRp1030
(dp1031
g62
(dp1032
sg71
g1017
sg64
(lp1033
g57
(g58
g59
NtRp1034
(dp1035
g62
(dp1036
g70
I4
ssg71
g1030
sg64
(lp1037
S'session_id_admin=127.0.0.1-02abd043-fc6c-40a0-be95-723d18a22c5d; session_id_sueldos=127.0.0.1-05ce4365-dc54-4394-bd3e-60890d75bc96'
p1038
asbasbasbag57
(g73
g59
NtRp1039
(dp1040
g62
(dp1041
sg71
g661
sg64
(lp1042
g57
(g78
g59
NtRp1043
(dp1044
g62
(dp1045
g82
g83
ssg71
g1039
sg64
(lp1046
S'http_host'
p1047
asbag57
(g78
g59
NtRp1048
(dp1049
g62
(dp1050
g89
g90
ssg71
g1039
sg64
(lp1051
S':'
asbag57
(g78
g59
NtRp1052
(dp1053
g62
(dp1054
sg71
g1039
sg64
(lp1055
g57
(g58
g59
NtRp1056
(dp1057
g62
(dp1058
g70
I4
ssg71
g1052
sg64
(lp1059
S'127.0.0.1:8000'
p1060
asbasbasbag57
(g73
g59
NtRp1061
(dp1062
g62
(dp1063
sg71
g661
sg64
(lp1064
g57
(g78
g59
NtRp1065
(dp1066
g62
(dp1067
g82
g83
ssg71
g1061
sg64
(lp1068
S'http_referer'
p1069
asbag57
(g78
g59
NtRp1070
(dp1071
g62
(dp1072
g89
g90
ssg71
g1061
sg64
(lp1073
S':'
asbag57
(g78
g59
NtRp1074
(dp1075
g62
(dp1076
sg71
g1061
sg64
(lp1077
g57
(g58
g59
NtRp1078
(dp1079
g62
(dp1080
g70
I4
ssg71
g1074
sg64
(lp1081
S'http://127.0.0.1:8000/sueldos/default/convenios'
p1082
asbasbasbag57
(g73
g59
NtRp1083
(dp1084
g62
(dp1085
sg71
g661
sg64
(lp1086
g57
(g78
g59
NtRp1087
(dp1088
g62
(dp1089
g82
g83
ssg71
g1083
sg64
(lp1090
S'http_user_agent'
p1091
asbag57
(g78
g59
NtRp1092
(dp1093
g62
(dp1094
g89
g90
ssg71
g1083
sg64
(lp1095
S':'
asbag57
(g78
g59
NtRp1096
(dp1097
g62
(dp1098
sg71
g1083
sg64
(lp1099
g57
(g58
g59
NtRp1100
(dp1101
g62
(dp1102
g70
I4
ssg71
g1096
sg64
(lp1103
S'Mozilla/5.0 (X11; Linux x86_64; rv:18.0) Gecko/20100101 Firefox/18.0 Iceweasel/18.0'
p1104
asbasbasbag57
(g73
g59
NtRp1105
(dp1106
g62
(dp1107
sg71
g661
sg64
(lp1108
g57
(g78
g59
NtRp1109
(dp1110
g62
(dp1111
g82
g83
ssg71
g1105
sg64
(lp1112
S'is_jython'
p1113
asbag57
(g78
g59
NtRp1114
(dp1115
g62
(dp1116
g89
g90
ssg71
g1105
sg64
(lp1117
S':'
asbag57
(g78
g59
NtRp1118
(dp1119
g62
(dp1120
sg71
g1105
sg64
(lp1121
g57
(g58
g59
NtRp1122
(dp1123
g62
(dp1124
g70
I4
ssg71
g1118
sg64
(lp1125
g100
asbasbasbag57
(g73
g59
NtRp1126
(dp1127
g62
(dp1128
sg71
g661
sg64
(lp1129
g57
(g78
g59
NtRp1130
(dp1131
g62
(dp1132
g82
g83
ssg71
g1126
sg64
(lp1133
S'is_pypy'
p1134
asbag57
(g78
g59
NtRp1135
(dp1136
g62
(dp1137
g89
g90
ssg71
g1126
sg64
(lp1138
S':'
asbag57
(g78
g59
NtRp1139
(dp1140
g62
(dp1141
sg71
g1126
sg64
(lp1142
g57
(g58
g59
NtRp1143
(dp1144
g62
(dp1145
g70
I4
ssg71
g1139
sg64
(lp1146
g100
asbasbasbag57
(g73
g59
NtRp1147
(dp1148
g62
(dp1149
sg71
g661
sg64
(lp1150
g57
(g78
g59
NtRp1151
(dp1152
g62
(dp1153
g82
g83
ssg71
g1147
sg64
(lp1154
S'local_hosts'
p1155
asbag57
(g78
g59
NtRp1156
(dp1157
g62
(dp1158
g89
g90
ssg71
g1147
sg64
(lp1159
S':'
asbag57
(g78
g59
NtRp1160
(dp1161
g62
(dp1162
sg71
g1147
sg64
(lp1163
g57
(g58
g59
NtRp1164
(dp1165
g62
(dp1166
g70
I4
ssg71
g1160
sg64
(lp1167
g57
(g66
g59
NtRp1168
(dp1169
g62
(dp1170
g70
I3
ssg71
Nsg64
(lp1171
g57
(g73
g59
NtRp1172
(dp1173
g62
(dp1174
sg71
g1168
sg64
(lp1175
g57
(g78
g59
NtRp1176
(dp1177
g62
(dp1178
sg71
g1172
sg64
(lp1179
g57
(g58
g59
NtRp1180
(dp1181
g62
(dp1182
g70
I3
ssg71
g1176
sg64
(lp1183
S'malena'
p1184
asbasbasbag57
(g73
g59
NtRp1185
(dp1186
g62
(dp1187
sg71
g1168
sg64
(lp1188
g57
(g78
g59
NtRp1189
(dp1190
g62
(dp1191
sg71
g1185
sg64
(lp1192
g57
(g58
g59
NtRp1193
(dp1194
g62
(dp1195
g70
I3
ssg71
g1189
sg64
(lp1196
S'::1'
p1197
asbasbasbag57
(g73
g59
NtRp1198
(dp1199
g62
(dp1200
sg71
g1168
sg64
(lp1201
g57
(g78
g59
NtRp1202
(dp1203
g62
(dp1204
sg71
g1198
sg64
(lp1205
g57
(g58
g59
NtRp1206
(dp1207
g62
(dp1208
g70
I3
ssg71
g1202
sg64
(lp1209
S'127.0.1.1'
p1210
asbasbasbag57
(g73
g59
NtRp1211
(dp1212
g62
(dp1213
sg71
g1168
sg64
(lp1214
g57
(g78
g59
NtRp1215
(dp1216
g62
(dp1217
sg71
g1211
sg64
(lp1218
g57
(g58
g59
NtRp1219
(dp1220
g62
(dp1221
g70
I3
ssg71
g1215
sg64
(lp1222
S'::ffff:127.0.0.1'
p1223
asbasbasbag57
(g73
g59
NtRp1224
(dp1225
g62
(dp1226
sg71
g1168
sg64
(lp1227
g57
(g78
g59
NtRp1228
(dp1229
g62
(dp1230
sg71
g1224
sg64
(lp1231
g57
(g58
g59
NtRp1232
(dp1233
g62
(dp1234
g70
I3
ssg71
g1228
sg64
(lp1235
S'127.0.0.1'
p1236
asbasbasbasbasbasbasbag57
(g73
g59
NtRp1237
(dp1238
g62
(dp1239
sg71
g661
sg64
(lp1240
g57
(g78
g59
NtRp1241
(dp1242
g62
(dp1243
g82
g83
ssg71
g1237
sg64
(lp1244
S'path_info'
p1245
asbag57
(g78
g59
NtRp1246
(dp1247
g62
(dp1248
g89
g90
ssg71
g1237
sg64
(lp1249
S':'
asbag57
(g78
g59
NtRp1250
(dp1251
g62
(dp1252
sg71
g1237
sg64
(lp1253
g57
(g58
g59
NtRp1254
(dp1255
g62
(dp1256
g70
I4
ssg71
g1250
sg64
(lp1257
S'/sueldos/default/convenios'
p1258
asbasbasbag57
(g73
g59
NtRp1259
(dp1260
g62
(dp1261
sg71
g661
sg64
(lp1262
g57
(g78
g59
NtRp1263
(dp1264
g62
(dp1265
g82
g83
ssg71
g1259
sg64
(lp1266
S'query_string'
p1267
asbag57
(g78
g59
NtRp1268
(dp1269
g62
(dp1270
g89
g90
ssg71
g1259
sg64
(lp1271
S':'
asbag57
(g78
g59
NtRp1272
(dp1273
g62
(dp1274
sg71
g1259
sg64
(lp1275
g57
(g58
g59
NtRp1276
(dp1277
g62
(dp1278
g70
I4
ssg71
g1272
sg64
(lp1279
S''
asbasbasbag57
(g73
g59
NtRp1280
(dp1281
g62
(dp1282
sg71
g661
sg64
(lp1283
g57
(g78
g59
NtRp1284
(dp1285
g62
(dp1286
g82
g83
ssg71
g1280
sg64
(lp1287
S'remote_addr'
p1288
asbag57
(g78
g59
NtRp1289
(dp1290
g62
(dp1291
g89
g90
ssg71
g1280
sg64
(lp1292
S':'
asbag57
(g78
g59
NtRp1293
(dp1294
g62
(dp1295
sg71
g1280
sg64
(lp1296
g57
(g58
g59
NtRp1297
(dp1298
g62
(dp1299
g70
I4
ssg71
g1293
sg64
(lp1300
g212
asbasbasbag57
(g73
g59
NtRp1301
(dp1302
g62
(dp1303
sg71
g661
sg64
(lp1304
g57
(g78
g59
NtRp1305
(dp1306
g62
(dp1307
g82
g83
ssg71
g1301
sg64
(lp1308
S'remote_port'
p1309
asbag57
(g78
g59
NtRp1310
(dp1311
g62
(dp1312
g89
g90
ssg71
g1301
sg64
(lp1313
S':'
asbag57
(g78
g59
NtRp1314
(dp1315
g62
(dp1316
sg71
g1301
sg64
(lp1317
g57
(g58
g59
NtRp1318
(dp1319
g62
(dp1320
g70
I4
ssg71
g1314
sg64
(lp1321
S'33176'
p1322
asbasbasbag57
(g73
g59
NtRp1323
(dp1324
g62
(dp1325
sg71
g661
sg64
(lp1326
g57
(g78
g59
NtRp1327
(dp1328
g62
(dp1329
g82
g83
ssg71
g1323
sg64
(lp1330
S'request_method'
p1331
asbag57
(g78
g59
NtRp1332
(dp1333
g62
(dp1334
g89
g90
ssg71
g1323
sg64
(lp1335
S':'
asbag57
(g78
g59
NtRp1336
(dp1337
g62
(dp1338
sg71
g1323
sg64
(lp1339
g57
(g58
g59
NtRp1340
(dp1341
g62
(dp1342
g70
I4
ssg71
g1336
sg64
(lp1343
S'POST'
p1344
asbasbasbag57
(g73
g59
NtRp1345
(dp1346
g62
(dp1347
sg71
g661
sg64
(lp1348
g57
(g78
g59
NtRp1349
(dp1350
g62
(dp1351
g82
g83
ssg71
g1345
sg64
(lp1352
S'request_uri'
p1353
asbag57
(g78
g59
NtRp1354
(dp1355
g62
(dp1356
g89
g90
ssg71
g1345
sg64
(lp1357
S':'
asbag57
(g78
g59
NtRp1358
(dp1359
g62
(dp1360
sg71
g1345
sg64
(lp1361
g57
(g58
g59
NtRp1362
(dp1363
g62
(dp1364
g70
I4
ssg71
g1358
sg64
(lp1365
g1258
asbasbasbag57
(g73
g59
NtRp1366
(dp1367
g62
(dp1368
sg71
g661
sg64
(lp1369
g57
(g78
g59
NtRp1370
(dp1371
g62
(dp1372
g82
g83
ssg71
g1366
sg64
(lp1373
S'script_name'
p1374
asbag57
(g78
g59
NtRp1375
(dp1376
g62
(dp1377
g89
g90
ssg71
g1366
sg64
(lp1378
S':'
asbag57
(g78
g59
NtRp1379
(dp1380
g62
(dp1381
sg71
g1366
sg64
(lp1382
g57
(g58
g59
NtRp1383
(dp1384
g62
(dp1385
g70
I4
ssg71
g1379
sg64
(lp1386
S''
asbasbasbag57
(g73
g59
NtRp1387
(dp1388
g62
(dp1389
sg71
g661
sg64
(lp1390
g57
(g78
g59
NtRp1391
(dp1392
g62
(dp1393
g82
g83
ssg71
g1387
sg64
(lp1394
S'server_name'
p1395
asbag57
(g78
g59
NtRp1396
(dp1397
g62
(dp1398
g89
g90
ssg71
g1387
sg64
(lp1399
S':'
asbag57
(g78
g59
NtRp1400
(dp1401
g62
(dp1402
sg71
g1387
sg64
(lp1403
g57
(g58
g59
NtRp1404
(dp1405
g62
(dp1406
g70
I4
ssg71
g1400
sg64
(lp1407
S'malena'
p1408
asbasbasbag57
(g73
g59
NtRp1409
(dp1410
g62
(dp1411
sg71
g661
sg64
(lp1412
g57
(g78
g59
NtRp1413
(dp1414
g62
(dp1415
g82
g83
ssg71
g1409
sg64
(lp1416
S'server_port'
p1417
asbag57
(g78
g59
NtRp1418
(dp1419
g62
(dp1420
g89
g90
ssg71
g1409
sg64
(lp1421
S':'
asbag57
(g78
g59
NtRp1422
(dp1423
g62
(dp1424
sg71
g1409
sg64
(lp1425
g57
(g58
g59
NtRp1426
(dp1427
g62
(dp1428
g70
I4
ssg71
g1422
sg64
(lp1429
S'8000'
p1430
asbasbasbag57
(g73
g59
NtRp1431
(dp1432
g62
(dp1433
sg71
g661
sg64
(lp1434
g57
(g78
g59
NtRp1435
(dp1436
g62
(dp1437
g82
g83
ssg71
g1431
sg64
(lp1438
S'server_protocol'
p1439
asbag57
(g78
g59
NtRp1440
(dp1441
g62
(dp1442
g89
g90
ssg71
g1431
sg64
(lp1443
S':'
asbag57
(g78
g59
NtRp1444
(dp1445
g62
(dp1446
sg71
g1431
sg64
(lp1447
g57
(g58
g59
NtRp1448
(dp1449
g62
(dp1450
g70
I4
ssg71
g1444
sg64
(lp1451
S'HTTP/1.1'
p1452
asbasbasbag57
(g73
g59
NtRp1453
(dp1454
g62
(dp1455
sg71
g661
sg64
(lp1456
g57
(g78
g59
NtRp1457
(dp1458
g62
(dp1459
g82
g83
ssg71
g1453
sg64
(lp1460
S'server_software'
p1461
asbag57
(g78
g59
NtRp1462
(dp1463
g62
(dp1464
g89
g90
ssg71
g1453
sg64
(lp1465
S':'
asbag57
(g78
g59
NtRp1466
(dp1467
g62
(dp1468
sg71
g1453
sg64
(lp1469
g57
(g58
g59
NtRp1470
(dp1471
g62
(dp1472
g70
I4
ssg71
g1466
sg64
(lp1473
S'Rocket 1.2.6'
p1474
asbasbasbag57
(g73
g59
NtRp1475
(dp1476
g62
(dp1477
sg71
g661
sg64
(lp1478
g57
(g78
g59
NtRp1479
(dp1480
g62
(dp1481
g82
g83
ssg71
g1475
sg64
(lp1482
S'web2py_path'
p1483
asbag57
(g78
g59
NtRp1484
(dp1485
g62
(dp1486
g89
g90
ssg71
g1475
sg64
(lp1487
S':'
asbag57
(g78
g59
NtRp1488
(dp1489
g62
(dp1490
sg71
g1475
sg64
(lp1491
g57
(g58
g59
NtRp1492
(dp1493
g62
(dp1494
g70
I4
ssg71
g1488
sg64
(lp1495
g708
asbasbasbag57
(g73
g59
NtRp1496
(dp1497
g62
(dp1498
sg71
g661
sg64
(lp1499
g57
(g78
g59
NtRp1500
(dp1501
g62
(dp1502
g82
g83
ssg71
g1496
sg64
(lp1503
S'web2py_version'
p1504
asbag57
(g78
g59
NtRp1505
(dp1506
g62
(dp1507
g89
g90
ssg71
g1496
sg64
(lp1508
S':'
asbag57
(g78
g59
NtRp1509
(dp1510
g62
(dp1511
sg71
g1496
sg64
(lp1512
g57
(g58
g59
NtRp1513
(dp1514
g62
(dp1515
g70
I4
ssg71
g1509
sg64
(lp1516
g57
(g66
g59
NtRp1517
(dp1518
g62
(dp1519
g70
I3
ssg71
Nsg64
(lp1520
g57
(g73
g59
NtRp1521
(dp1522
g62
(dp1523
sg71
g1517
sg64
(lp1524
g57
(g78
g59
NtRp1525
(dp1526
g62
(dp1527
sg71
g1521
sg64
(lp1528
g57
(g58
g59
NtRp1529
(dp1530
g62
(dp1531
g70
I3
ssg71
g1525
sg64
(lp1532
S'2'
asbasbasbag57
(g73
g59
NtRp1533
(dp1534
g62
(dp1535
sg71
g1517
sg64
(lp1536
g57
(g78
g59
NtRp1537
(dp1538
g62
(dp1539
sg71
g1533
sg64
(lp1540
g57
(g58
g59
NtRp1541
(dp1542
g62
(dp1543
g70
I3
ssg71
g1537
sg64
(lp1544
S'4'
asbasbasbag57
(g73
g59
NtRp1545
(dp1546
g62
(dp1547
sg71
g1517
sg64
(lp1548
g57
(g78
g59
NtRp1549
(dp1550
g62
(dp1551
sg71
g1545
sg64
(lp1552
g57
(g58
g59
NtRp1553
(dp1554
g62
(dp1555
g70
I3
ssg71
g1549
sg64
(lp1556
S'1'
asbasbasbag57
(g73
g59
NtRp1557
(dp1558
g62
(dp1559
sg71
g1517
sg64
(lp1560
g57
(g78
g59
NtRp1561
(dp1562
g62
(dp1563
sg71
g1557
sg64
(lp1564
g57
(g58
g59
NtRp1565
(dp1566
g62
(dp1567
g70
I3
ssg71
g1561
sg64
(lp1568
S'alpha.2'
p1569
asbasbasbag57
(g73
g59
NtRp1570
(dp1571
g62
(dp1572
sg71
g1517
sg64
(lp1573
g57
(g78
g59
NtRp1574
(dp1575
g62
(dp1576
sg71
g1570
sg64
(lp1577
g57
(g58
g59
NtRp1578
(dp1579
g62
(dp1580
g70
I3
ssg71
g1574
sg64
(lp1581
S'datetime.datetime(2013, 1, 10, 21, 26, 18)'
p1582
asbasbasbasbasbasbasbag57
(g73
g59
NtRp1583
(dp1584
g62
(dp1585
sg71
g661
sg64
(lp1586
g57
(g78
g59
NtRp1587
(dp1588
g62
(dp1589
g82
g83
ssg71
g1583
sg64
(lp1590
S'wsgi_errors'
p1591
asbag57
(g78
g59
NtRp1592
(dp1593
g62
(dp1594
g89
g90
ssg71
g1583
sg64
(lp1595
S':'
asbag57
(g78
g59
NtRp1596
(dp1597
g62
(dp1598
sg71
g1583
sg64
(lp1599
g57
(g58
g59
NtRp1600
(dp1601
g62
(dp1602
g70
I4
ssg71
g1596
sg64
(lp1603
S"<open file '<stderr>', mode 'w' at 0x7fb351b01270>"
p1604
asbasbasbag57
(g73
g59
NtRp1605
(dp1606
g62
(dp1607
sg71
g661
sg64
(lp1608
g57
(g78
g59
NtRp1609
(dp1610
g62
(dp1611
g82
g83
ssg71
g1605
sg64
(lp1612
S'wsgi_file_wrapper'
p1613
asbag57
(g78
g59
NtRp1614
(dp1615
g62
(dp1616
g89
g90
ssg71
g1605
sg64
(lp1617
S':'
asbag57
(g78
g59
NtRp1618
(dp1619
g62
(dp1620
sg71
g1605
sg64
(lp1621
g57
(g58
g59
NtRp1622
(dp1623
g62
(dp1624
g70
I4
ssg71
g1618
sg64
(lp1625
S'<class wsgiref.util.FileWrapper at 0x1f754c8>'
p1626
asbasbasbag57
(g73
g59
NtRp1627
(dp1628
g62
(dp1629
sg71
g661
sg64
(lp1630
g57
(g78
g59
NtRp1631
(dp1632
g62
(dp1633
g82
g83
ssg71
g1627
sg64
(lp1634
S'wsgi_input'
p1635
asbag57
(g78
g59
NtRp1636
(dp1637
g62
(dp1638
g89
g90
ssg71
g1627
sg64
(lp1639
S':'
asbag57
(g78
g59
NtRp1640
(dp1641
g62
(dp1642
sg71
g1627
sg64
(lp1643
g57
(g58
g59
NtRp1644
(dp1645
g62
(dp1646
g70
I4
ssg71
g1640
sg64
(lp1647
S'<socket._fileobject object at 0x35da950>'
p1648
asbasbasbag57
(g73
g59
NtRp1649
(dp1650
g62
(dp1651
sg71
g661
sg64
(lp1652
g57
(g78
g59
NtRp1653
(dp1654
g62
(dp1655
g82
g83
ssg71
g1649
sg64
(lp1656
S'wsgi_multiprocess'
p1657
asbag57
(g78
g59
NtRp1658
(dp1659
g62
(dp1660
g89
g90
ssg71
g1649
sg64
(lp1661
S':'
asbag57
(g78
g59
NtRp1662
(dp1663
g62
(dp1664
sg71
g1649
sg64
(lp1665
g57
(g58
g59
NtRp1666
(dp1667
g62
(dp1668
g70
I4
ssg71
g1662
sg64
(lp1669
g100
asbasbasbag57
(g73
g59
NtRp1670
(dp1671
g62
(dp1672
sg71
g661
sg64
(lp1673
g57
(g78
g59
NtRp1674
(dp1675
g62
(dp1676
g82
g83
ssg71
g1670
sg64
(lp1677
S'wsgi_multithread'
p1678
asbag57
(g78
g59
NtRp1679
(dp1680
g62
(dp1681
g89
g90
ssg71
g1670
sg64
(lp1682
S':'
asbag57
(g78
g59
NtRp1683
(dp1684
g62
(dp1685
sg71
g1670
sg64
(lp1686
g57
(g58
g59
NtRp1687
(dp1688
g62
(dp1689
g70
I4
ssg71
g1683
sg64
(lp1690
S'True'
p1691
asbasbasbag57
(g73
g59
NtRp1692
(dp1693
g62
(dp1694
sg71
g661
sg64
(lp1695
g57
(g78
g59
NtRp1696
(dp1697
g62
(dp1698
g82
g83
ssg71
g1692
sg64
(lp1699
S'wsgi_run_once'
p1700
asbag57
(g78
g59
NtRp1701
(dp1702
g62
(dp1703
g89
g90
ssg71
g1692
sg64
(lp1704
S':'
asbag57
(g78
g59
NtRp1705
(dp1706
g62
(dp1707
sg71
g1692
sg64
(lp1708
g57
(g58
g59
NtRp1709
(dp1710
g62
(dp1711
g70
I4
ssg71
g1705
sg64
(lp1712
g100
asbasbasbag57
(g73
g59
NtRp1713
(dp1714
g62
(dp1715
sg71
g661
sg64
(lp1716
g57
(g78
g59
NtRp1717
(dp1718
g62
(dp1719
g82
g83
ssg71
g1713
sg64
(lp1720
S'wsgi_url_scheme'
p1721
asbag57
(g78
g59
NtRp1722
(dp1723
g62
(dp1724
g89
g90
ssg71
g1713
sg64
(lp1725
S':'
asbag57
(g78
g59
NtRp1726
(dp1727
g62
(dp1728
sg71
g1713
sg64
(lp1729
g57
(g58
g59
NtRp1730
(dp1731
g62
(dp1732
g70
I4
ssg71
g1726
sg64
(lp1733
S'http'
p1734
asbasbasbag57
(g73
g59
NtRp1735
(dp1736
g62
(dp1737
sg71
g661
sg64
(lp1738
g57
(g78
g59
NtRp1739
(dp1740
g62
(dp1741
g82
g83
ssg71
g1735
sg64
(lp1742
S'wsgi_version'
p1743
asbag57
(g78
g59
NtRp1744
(dp1745
g62
(dp1746
g89
g90
ssg71
g1735
sg64
(lp1747
S':'
asbag57
(g78
g59
NtRp1748
(dp1749
g62
(dp1750
sg71
g1735
sg64
(lp1751
g57
(g58
g59
NtRp1752
(dp1753
g62
(dp1754
g70
I4
ssg71
g1748
sg64
(lp1755
g57
(g66
g59
NtRp1756
(dp1757
g62
(dp1758
g70
I3
ssg71
Nsg64
(lp1759
g57
(g73
g59
NtRp1760
(dp1761
g62
(dp1762
sg71
g1756
sg64
(lp1763
g57
(g78
g59
NtRp1764
(dp1765
g62
(dp1766
sg71
g1760
sg64
(lp1767
g57
(g58
g59
NtRp1768
(dp1769
g62
(dp1770
g70
I3
ssg71
g1764
sg64
(lp1771
S'1'
asbasbasbag57
(g73
g59
NtRp1772
(dp1773
g62
(dp1774
sg71
g1756
sg64
(lp1775
g57
(g78
g59
NtRp1776
(dp1777
g62
(dp1778
sg71
g1772
sg64
(lp1779
g57
(g58
g59
NtRp1780
(dp1781
g62
(dp1782
g70
I3
ssg71
g1776
sg64
(lp1783
S'0'
asbasbasbasbasbasbasbasbasbasbasbag57
(g73
g59
NtRp1784
(dp1785
g62
(dp1786
sg71
g67
sg64
(lp1787
g57
(g78
g59
NtRp1788
(dp1789
g62
(dp1790
g82
g83
ssg71
g1784
sg64
(lp1791
S'extension'
p1792
asbag57
(g78
g59
NtRp1793
(dp1794
g62
(dp1795
g89
g90
ssg71
g1784
sg64
(lp1796
S':'
asbag57
(g78
g59
NtRp1797
(dp1798
g62
(dp1799
sg71
g1784
sg64
(lp1800
g57
(g58
g59
NtRp1801
(dp1802
g62
(dp1803
g70
I5
ssg71
g1797
sg64
(lp1804
S'html'
p1805
asbasbasbag57
(g73
g59
NtRp1806
(dp1807
g62
(dp1808
sg71
g67
sg64
(lp1809
g57
(g78
g59
NtRp1810
(dp1811
g62
(dp1812
g82
g83
ssg71
g1806
sg64
(lp1813
S'folder'
p1814
asbag57
(g78
g59
NtRp1815
(dp1816
g62
(dp1817
g89
g90
ssg71
g1806
sg64
(lp1818
S':'
asbag57
(g78
g59
NtRp1819
(dp1820
g62
(dp1821
sg71
g1806
sg64
(lp1822
g57
(g58
g59
NtRp1823
(dp1824
g62
(dp1825
g70
I5
ssg71
g1819
sg64
(lp1826
S'/home/marco/projects/contabilidad/web2py/applications/sueldos/'
p1827
asbasbasbag57
(g73
g59
NtRp1828
(dp1829
g62
(dp1830
sg71
g67
sg64
(lp1831
g57
(g78
g59
NtRp1832
(dp1833
g62
(dp1834
g82
g83
ssg71
g1828
sg64
(lp1835
S'function'
p1836
asbag57
(g78
g59
NtRp1837
(dp1838
g62
(dp1839
g89
g90
ssg71
g1828
sg64
(lp1840
S':'
asbag57
(g78
g59
NtRp1841
(dp1842
g62
(dp1843
sg71
g1828
sg64
(lp1844
g57
(g58
g59
NtRp1845
(dp1846
g62
(dp1847
g70
I5
ssg71
g1841
sg64
(lp1848
S'convenios'
p1849
asbasbasbag57
(g73
g59
NtRp1850
(dp1851
g62
(dp1852
sg71
g67
sg64
(lp1853
g57
(g78
g59
NtRp1854
(dp1855
g62
(dp1856
g82
g83
ssg71
g1850
sg64
(lp1857
S'get_vars'
p1858
asbag57
(g78
g59
NtRp1859
(dp1860
g62
(dp1861
g89
g90
ssg71
g1850
sg64
(lp1862
S':'
asbag57
(g78
g59
NtRp1863
(dp1864
g62
(dp1865
sg71
g1850
sg64
(lp1866
g57
(g58
g59
NtRp1867
(dp1868
g62
(dp1869
g70
I5
ssg71
g1863
sg64
(lp1870
g57
(g66
g59
NtRp1871
(dp1872
g62
(dp1873
g70
I4
ssg71
Nsg64
(lp1874
sbasbasbasbag57
(g73
g59
NtRp1875
(dp1876
g62
(dp1877
sg71
g67
sg64
(lp1878
g57
(g78
g59
NtRp1879
(dp1880
g62
(dp1881
g82
g83
ssg71
g1875
sg64
(lp1882
S'global_settings'
p1883
asbag57
(g78
g59
NtRp1884
(dp1885
g62
(dp1886
g89
g90
ssg71
g1875
sg64
(lp1887
S':'
asbag57
(g78
g59
NtRp1888
(dp1889
g62
(dp1890
sg71
g1875
sg64
(lp1891
g57
(g58
g59
NtRp1892
(dp1893
g62
(dp1894
g70
I5
ssg71
g1888
sg64
(lp1895
g57
(g66
g59
NtRp1896
(dp1897
g62
(dp1898
g70
I4
ssg71
Nsg64
(lp1899
g57
(g73
g59
NtRp1900
(dp1901
g62
(dp1902
sg71
g1896
sg64
(lp1903
g57
(g78
g59
NtRp1904
(dp1905
g62
(dp1906
g82
g83
ssg71
g1900
sg64
(lp1907
g673
asbag57
(g78
g59
NtRp1908
(dp1909
g62
(dp1910
g89
g90
ssg71
g1900
sg64
(lp1911
S':'
asbag57
(g78
g59
NtRp1912
(dp1913
g62
(dp1914
sg71
g1900
sg64
(lp1915
g57
(g58
g59
NtRp1916
(dp1917
g62
(dp1918
g70
I4
ssg71
g1912
sg64
(lp1919
S"set(['/home/marco/projects/contabilidad/web2py/applications/admin/', '/home/marco/projects/contabilidad/web2py/applications/sueldos/'])"
p1920
asbasbasbag57
(g73
g59
NtRp1921
(dp1922
g62
(dp1923
sg71
g1896
sg64
(lp1924
g57
(g78
g59
NtRp1925
(dp1926
g62
(dp1927
g82
g83
ssg71
g1921
sg64
(lp1928
g695
asbag57
(g78
g59
NtRp1929
(dp1930
g62
(dp1931
g89
g90
ssg71
g1921
sg64
(lp1932
S':'
asbag57
(g78
g59
NtRp1933
(dp1934
g62
(dp1935
sg71
g1921
sg64
(lp1936
g57
(g58
g59
NtRp1937
(dp1938
g62
(dp1939
g70
I4
ssg71
g1933
sg64
(lp1940
g708
asbasbasbag57
(g73
g59
NtRp1941
(dp1942
g62
(dp1943
sg71
g1896
sg64
(lp1944
g57
(g78
g59
NtRp1945
(dp1946
g62
(dp1947
g82
g83
ssg71
g1941
sg64
(lp1948
g717
asbag57
(g78
g59
NtRp1949
(dp1950
g62
(dp1951
g89
g90
ssg71
g1941
sg64
(lp1952
S':'
asbag57
(g78
g59
NtRp1953
(dp1954
g62
(dp1955
sg71
g1941
sg64
(lp1956
g57
(g58
g59
NtRp1957
(dp1958
g62
(dp1959
g70
I4
ssg71
g1953
sg64
(lp1960
g57
(g66
g59
NtRp1961
(dp1962
g62
(dp1963
g70
I3
ssg71
Nsg64
(lp1964
sbasbasbasbag57
(g73
g59
NtRp1965
(dp1966
g62
(dp1967
sg71
g1896
sg64
(lp1968
g57
(g78
g59
NtRp1969
(dp1970
g62
(dp1971
g82
g83
ssg71
g1965
sg64
(lp1972
g742
asbag57
(g78
g59
NtRp1973
(dp1974
g62
(dp1975
g89
g90
ssg71
g1965
sg64
(lp1976
S':'
asbag57
(g78
g59
NtRp1977
(dp1978
g62
(dp1979
sg71
g1965
sg64
(lp1980
g57
(g58
g59
NtRp1981
(dp1982
g62
(dp1983
g70
I4
ssg71
g1977
sg64
(lp1984
S"<Values at 0x200f5a8: {'verbose': False, 'ip': '127.0.0.1', 'with_scheduler': False, 'ips': [], 'shutdown_timeout': 5, 'taskbar': False, 'port': 8000, 'maxthreads': None, 'softcron': False, 'server_name': 'malena', 'bpython': False, 'nogui': False, 'pid_filename': 'httpserver.pid', 'extcron': False, 'runcron': False, 'run_system_tests': False, 'test': None, 'folder': '/home/marco/projects/contabilidad/web2py', 'config': '', 'minthreads': None, 'winservice': '', 'shell': None, 'run': '', 'log_filename': 'httpserver.log', 'debuglevel': 30, 'args': [''], 'socket_timeout': 5, 'ssl_ca_certificate': None, 'scheduler': None, 'profiler_filename': None, 'ssl_private_key': '', 'scheduler_groups': None, 'password': 'asd', 'request_queue_size': 5, 'ssl_certificate': '', 'cronjob': False, 'numthreads': None, 'quiet': False, 'interfaces': None, 'import_models': False, 'timeout': 10, 'plain': False, 'nobanner': False}>"
p1985
asbasbasbag57
(g73
g59
NtRp1986
(dp1987
g62
(dp1988
sg71
g1896
sg64
(lp1989
g57
(g78
g59
NtRp1990
(dp1991
g62
(dp1992
g82
g83
ssg71
g1986
sg64
(lp1993
g808
asbag57
(g78
g59
NtRp1994
(dp1995
g62
(dp1996
g89
g90
ssg71
g1986
sg64
(lp1997
S':'
asbag57
(g78
g59
NtRp1998
(dp1999
g62
(dp2000
sg71
g1986
sg64
(lp2001
g57
(g58
g59
NtRp2002
(dp2003
g62
(dp2004
g70
I4
ssg71
g1998
sg64
(lp2005
S'set([])'
p2006
asbasbasbag57
(g73
g59
NtRp2007
(dp2008
g62
(dp2009
sg71
g1896
sg64
(lp2010
g57
(g78
g59
NtRp2011
(dp2012
g62
(dp2013
g82
g83
ssg71
g2007
sg64
(lp2014
g830
asbag57
(g78
g59
NtRp2015
(dp2016
g62
(dp2017
g89
g90
ssg71
g2007
sg64
(lp2018
S':'
asbag57
(g78
g59
NtRp2019
(dp2020
g62
(dp2021
sg71
g2007
sg64
(lp2022
g57
(g58
g59
NtRp2023
(dp2024
g62
(dp2025
g70
I4
ssg71
g2019
sg64
(lp2026
g100
asbasbasbag57
(g73
g59
NtRp2027
(dp2028
g62
(dp2029
sg71
g1896
sg64
(lp2030
g57
(g78
g59
NtRp2031
(dp2032
g62
(dp2033
g82
g83
ssg71
g2027
sg64
(lp2034
g851
asbag57
(g78
g59
NtRp2035
(dp2036
g62
(dp2037
g89
g90
ssg71
g2027
sg64
(lp2038
S':'
asbag57
(g78
g59
NtRp2039
(dp2040
g62
(dp2041
sg71
g2027
sg64
(lp2042
g57
(g58
g59
NtRp2043
(dp2044
g62
(dp2045
g70
I4
ssg71
g2039
sg64
(lp2046
g864
asbasbasbag57
(g73
g59
NtRp2047
(dp2048
g62
(dp2049
sg71
g1896
sg64
(lp2050
g57
(g78
g59
NtRp2051
(dp2052
g62
(dp2053
g82
g83
ssg71
g2047
sg64
(lp2054
g1113
asbag57
(g78
g59
NtRp2055
(dp2056
g62
(dp2057
g89
g90
ssg71
g2047
sg64
(lp2058
S':'
asbag57
(g78
g59
NtRp2059
(dp2060
g62
(dp2061
sg71
g2047
sg64
(lp2062
g57
(g58
g59
NtRp2063
(dp2064
g62
(dp2065
g70
I4
ssg71
g2059
sg64
(lp2066
g100
asbasbasbag57
(g73
g59
NtRp2067
(dp2068
g62
(dp2069
sg71
g1896
sg64
(lp2070
g57
(g78
g59
NtRp2071
(dp2072
g62
(dp2073
g82
g83
ssg71
g2067
sg64
(lp2074
g1134
asbag57
(g78
g59
NtRp2075
(dp2076
g62
(dp2077
g89
g90
ssg71
g2067
sg64
(lp2078
S':'
asbag57
(g78
g59
NtRp2079
(dp2080
g62
(dp2081
sg71
g2067
sg64
(lp2082
g57
(g58
g59
NtRp2083
(dp2084
g62
(dp2085
g70
I4
ssg71
g2079
sg64
(lp2086
g100
asbasbasbag57
(g73
g59
NtRp2087
(dp2088
g62
(dp2089
sg71
g1896
sg64
(lp2090
g57
(g78
g59
NtRp2091
(dp2092
g62
(dp2093
g82
g83
ssg71
g2087
sg64
(lp2094
g1155
asbag57
(g78
g59
NtRp2095
(dp2096
g62
(dp2097
g89
g90
ssg71
g2087
sg64
(lp2098
S':'
asbag57
(g78
g59
NtRp2099
(dp2100
g62
(dp2101
sg71
g2087
sg64
(lp2102
g57
(g58
g59
NtRp2103
(dp2104
g62
(dp2105
g70
I4
ssg71
g2099
sg64
(lp2106
g57
(g66
g59
NtRp2107
(dp2108
g62
(dp2109
g70
I3
ssg71
Nsg64
(lp2110
g57
(g73
g59
NtRp2111
(dp2112
g62
(dp2113
sg71
g2107
sg64
(lp2114
g57
(g78
g59
NtRp2115
(dp2116
g62
(dp2117
sg71
g2111
sg64
(lp2118
g57
(g58
g59
NtRp2119
(dp2120
g62
(dp2121
g70
I3
ssg71
g2115
sg64
(lp2122
g1184
asbasbasbag57
(g73
g59
NtRp2123
(dp2124
g62
(dp2125
sg71
g2107
sg64
(lp2126
g57
(g78
g59
NtRp2127
(dp2128
g62
(dp2129
sg71
g2123
sg64
(lp2130
g57
(g58
g59
NtRp2131
(dp2132
g62
(dp2133
g70
I3
ssg71
g2127
sg64
(lp2134
g1197
asbasbasbag57
(g73
g59
NtRp2135
(dp2136
g62
(dp2137
sg71
g2107
sg64
(lp2138
g57
(g78
g59
NtRp2139
(dp2140
g62
(dp2141
sg71
g2135
sg64
(lp2142
g57
(g58
g59
NtRp2143
(dp2144
g62
(dp2145
g70
I3
ssg71
g2139
sg64
(lp2146
g1210
asbasbasbag57
(g73
g59
NtRp2147
(dp2148
g62
(dp2149
sg71
g2107
sg64
(lp2150
g57
(g78
g59
NtRp2151
(dp2152
g62
(dp2153
sg71
g2147
sg64
(lp2154
g57
(g58
g59
NtRp2155
(dp2156
g62
(dp2157
g70
I3
ssg71
g2151
sg64
(lp2158
g1223
asbasbasbag57
(g73
g59
NtRp2159
(dp2160
g62
(dp2161
sg71
g2107
sg64
(lp2162
g57
(g78
g59
NtRp2163
(dp2164
g62
(dp2165
sg71
g2159
sg64
(lp2166
g57
(g58
g59
NtRp2167
(dp2168
g62
(dp2169
g70
I3
ssg71
g2163
sg64
(lp2170
g1236
asbasbasbasbasbasbasbag57
(g73
g59
NtRp2171
(dp2172
g62
(dp2173
sg71
g1896
sg64
(lp2174
g57
(g78
g59
NtRp2175
(dp2176
g62
(dp2177
g82
g83
ssg71
g2171
sg64
(lp2178
g1504
asbag57
(g78
g59
NtRp2179
(dp2180
g62
(dp2181
g89
g90
ssg71
g2171
sg64
(lp2182
S':'
asbag57
(g78
g59
NtRp2183
(dp2184
g62
(dp2185
sg71
g2171
sg64
(lp2186
g57
(g58
g59
NtRp2187
(dp2188
g62
(dp2189
g70
I4
ssg71
g2183
sg64
(lp2190
g57
(g66
g59
NtRp2191
(dp2192
g62
(dp2193
g70
I3
ssg71
Nsg64
(lp2194
g57
(g73
g59
NtRp2195
(dp2196
g62
(dp2197
sg71
g2191
sg64
(lp2198
g57
(g78
g59
NtRp2199
(dp2200
g62
(dp2201
sg71
g2195
sg64
(lp2202
g57
(g58
g59
NtRp2203
(dp2204
g62
(dp2205
g70
I3
ssg71
g2199
sg64
(lp2206
S'2'
asbasbasbag57
(g73
g59
NtRp2207
(dp2208
g62
(dp2209
sg71
g2191
sg64
(lp2210
g57
(g78
g59
NtRp2211
(dp2212
g62
(dp2213
sg71
g2207
sg64
(lp2214
g57
(g58
g59
NtRp2215
(dp2216
g62
(dp2217
g70
I3
ssg71
g2211
sg64
(lp2218
S'4'
asbasbasbag57
(g73
g59
NtRp2219
(dp2220
g62
(dp2221
sg71
g2191
sg64
(lp2222
g57
(g78
g59
NtRp2223
(dp2224
g62
(dp2225
sg71
g2219
sg64
(lp2226
g57
(g58
g59
NtRp2227
(dp2228
g62
(dp2229
g70
I3
ssg71
g2223
sg64
(lp2230
S'1'
asbasbasbag57
(g73
g59
NtRp2231
(dp2232
g62
(dp2233
sg71
g2191
sg64
(lp2234
g57
(g78
g59
NtRp2235
(dp2236
g62
(dp2237
sg71
g2231
sg64
(lp2238
g57
(g58
g59
NtRp2239
(dp2240
g62
(dp2241
g70
I3
ssg71
g2235
sg64
(lp2242
g1569
asbasbasbag57
(g73
g59
NtRp2243
(dp2244
g62
(dp2245
sg71
g2191
sg64
(lp2246
g57
(g78
g59
NtRp2247
(dp2248
g62
(dp2249
sg71
g2243
sg64
(lp2250
g57
(g58
g59
NtRp2251
(dp2252
g62
(dp2253
g70
I3
ssg71
g2247
sg64
(lp2254
S'datetime.datetime(2013, 1, 10, 21, 26, 18)'
p2255
asbasbasbasbasbasbasbasbasbasbasbag57
(g73
g59
NtRp2256
(dp2257
g62
(dp2258
sg71
g67
sg64
(lp2259
g57
(g78
g59
NtRp2260
(dp2261
g62
(dp2262
g82
g83
ssg71
g2256
sg64
(lp2263
S'is_https'
p2264
asbag57
(g78
g59
NtRp2265
(dp2266
g62
(dp2267
g89
g90
ssg71
g2256
sg64
(lp2268
S':'
asbag57
(g78
g59
NtRp2269
(dp2270
g62
(dp2271
sg71
g2256
sg64
(lp2272
g57
(g58
g59
NtRp2273
(dp2274
g62
(dp2275
g70
I5
ssg71
g2269
sg64
(lp2276
g100
asbasbasbag57
(g73
g59
NtRp2277
(dp2278
g62
(dp2279
sg71
g67
sg64
(lp2280
g57
(g78
g59
NtRp2281
(dp2282
g62
(dp2283
g82
g83
ssg71
g2277
sg64
(lp2284
S'is_local'
p2285
asbag57
(g78
g59
NtRp2286
(dp2287
g62
(dp2288
g89
g90
ssg71
g2277
sg64
(lp2289
S':'
asbag57
(g78
g59
NtRp2290
(dp2291
g62
(dp2292
sg71
g2277
sg64
(lp2293
g57
(g58
g59
NtRp2294
(dp2295
g62
(dp2296
g70
I5
ssg71
g2290
sg64
(lp2297
g1691
asbasbasbag57
(g73
g59
NtRp2298
(dp2299
g62
(dp2300
sg71
g67
sg64
(lp2301
g57
(g78
g59
NtRp2302
(dp2303
g62
(dp2304
g82
g83
ssg71
g2298
sg64
(lp2305
S'is_restful'
p2306
asbag57
(g78
g59
NtRp2307
(dp2308
g62
(dp2309
g89
g90
ssg71
g2298
sg64
(lp2310
S':'
asbag57
(g78
g59
NtRp2311
(dp2312
g62
(dp2313
sg71
g2298
sg64
(lp2314
g57
(g58
g59
NtRp2315
(dp2316
g62
(dp2317
g70
I5
ssg71
g2311
sg64
(lp2318
g100
asbasbasbag57
(g73
g59
NtRp2319
(dp2320
g62
(dp2321
sg71
g67
sg64
(lp2322
g57
(g78
g59
NtRp2323
(dp2324
g62
(dp2325
g82
g83
ssg71
g2319
sg64
(lp2326
S'now'
p2327
asbag57
(g78
g59
NtRp2328
(dp2329
g62
(dp2330
g89
g90
ssg71
g2319
sg64
(lp2331
S':'
asbag57
(g78
g59
NtRp2332
(dp2333
g62
(dp2334
sg71
g2319
sg64
(lp2335
g57
(g58
g59
NtRp2336
(dp2337
g62
(dp2338
g70
I5
ssg71
g2332
sg64
(lp2339
S'datetime.datetime(2013, 1, 23, 19, 6, 9, 316751)'
p2340
asbasbasbag57
(g73
g59
NtRp2341
(dp2342
g62
(dp2343
sg71
g67
sg64
(lp2344
g57
(g78
g59
NtRp2345
(dp2346
g62
(dp2347
g82
g83
ssg71
g2341
sg64
(lp2348
S'post_vars'
p2349
asbag57
(g78
g59
NtRp2350
(dp2351
g62
(dp2352
g89
g90
ssg71
g2341
sg64
(lp2353
S':'
asbag57
(g78
g59
NtRp2354
(dp2355
g62
(dp2356
sg71
g2341
sg64
(lp2357
g57
(g58
g59
NtRp2358
(dp2359
g62
(dp2360
g70
I5
ssg71
g2354
sg64
(lp2361
g57
(g66
g59
NtRp2362
(dp2363
g62
(dp2364
g70
I4
ssg71
Nsg64
(lp2365
g57
(g73
g59
NtRp2366
(dp2367
g62
(dp2368
sg71
g2362
sg64
(lp2369
g57
(g78
g59
NtRp2370
(dp2371
g62
(dp2372
g82
g83
ssg71
g2366
sg64
(lp2373
S'id'
p2374
asbag57
(g78
g59
NtRp2375
(dp2376
g62
(dp2377
g89
g90
ssg71
g2366
sg64
(lp2378
S':'
asbag57
(g78
g59
NtRp2379
(dp2380
g62
(dp2381
sg71
g2366
sg64
(lp2382
g57
(g58
g59
NtRp2383
(dp2384
g62
(dp2385
g70
I4
ssg71
g2379
sg64
(lp2386
S'1'
asbasbasbag57
(g73
g59
NtRp2387
(dp2388
g62
(dp2389
sg71
g2362
sg64
(lp2390
g57
(g78
g59
NtRp2391
(dp2392
g62
(dp2393
g82
g83
ssg71
g2387
sg64
(lp2394
S'rubro'
p2395
asbag57
(g78
g59
NtRp2396
(dp2397
g62
(dp2398
g89
g90
ssg71
g2387
sg64
(lp2399
S':'
asbag57
(g78
g59
NtRp2400
(dp2401
g62
(dp2402
sg71
g2387
sg64
(lp2403
g57
(g58
g59
NtRp2404
(dp2405
g62
(dp2406
g70
I4
ssg71
g2400
sg64
(lp2407
S'ALIMENTACI\xc3\x93N'
p2408
asbasbasbag57
(g73
g59
NtRp2409
(dp2410
g62
(dp2411
sg71
g2362
sg64
(lp2412
g57
(g78
g59
NtRp2413
(dp2414
g62
(dp2415
g82
g83
ssg71
g2409
sg64
(lp2416
S'sindicato'
p2417
asbag57
(g78
g59
NtRp2418
(dp2419
g62
(dp2420
g89
g90
ssg71
g2409
sg64
(lp2421
S':'
asbag57
(g78
g59
NtRp2422
(dp2423
g62
(dp2424
sg71
g2409
sg64
(lp2425
g57
(g58
g59
NtRp2426
(dp2427
g62
(dp2428
g70
I4
ssg71
g2422
sg64
(lp2429
S'Sindicato de Trabajadores de Industrias de la Alimentaci\xc3\xb3n.'
p2430
asbasbasbag57
(g73
g59
NtRp2431
(dp2432
g62
(dp2433
sg71
g2362
sg64
(lp2434
g57
(g78
g59
NtRp2435
(dp2436
g62
(dp2437
g82
g83
ssg71
g2431
sg64
(lp2438
S'web'
p2439
asbag57
(g78
g59
NtRp2440
(dp2441
g62
(dp2442
g89
g90
ssg71
g2431
sg64
(lp2443
S':'
asbag57
(g78
g59
NtRp2444
(dp2445
g62
(dp2446
sg71
g2431
sg64
(lp2447
g57
(g58
g59
NtRp2448
(dp2449
g62
(dp2450
g70
I4
ssg71
g2444
sg64
(lp2451
S'http://www.stia.com.ar'
p2452
asbasbasbasbasbasbasbag57
(g73
g59
NtRp2453
(dp2454
g62
(dp2455
sg71
g67
sg64
(lp2456
g57
(g78
g59
NtRp2457
(dp2458
g62
(dp2459
g82
g83
ssg71
g2453
sg64
(lp2460
S'raw_args'
p2461
asbag57
(g78
g59
NtRp2462
(dp2463
g62
(dp2464
g89
g90
ssg71
g2453
sg64
(lp2465
S':'
asbag57
(g78
g59
NtRp2466
(dp2467
g62
(dp2468
sg71
g2453
sg64
(lp2469
g57
(g58
g59
NtRp2470
(dp2471
g62
(dp2472
g70
I5
ssg71
g2466
sg64
(lp2473
S''
asbasbasbag57
(g73
g59
NtRp2474
(dp2475
g62
(dp2476
sg71
g67
sg64
(lp2477
g57
(g78
g59
NtRp2478
(dp2479
g62
(dp2480
g82
g83
ssg71
g2474
sg64
(lp2481
S'raw_extension'
p2482
asbag57
(g78
g59
NtRp2483
(dp2484
g62
(dp2485
g89
g90
ssg71
g2474
sg64
(lp2486
S':'
asbag57
(g78
g59
NtRp2487
(dp2488
g62
(dp2489
sg71
g2474
sg64
(lp2490
g57
(g58
g59
NtRp2491
(dp2492
g62
(dp2493
g70
I5
ssg71
g2487
sg64
(lp2494
S'None'
p2495
asbasbasbag57
(g73
g59
NtRp2496
(dp2497
g62
(dp2498
sg71
g67
sg64
(lp2499
g57
(g78
g59
NtRp2500
(dp2501
g62
(dp2502
g82
g83
ssg71
g2496
sg64
(lp2503
S'url'
p2504
asbag57
(g78
g59
NtRp2505
(dp2506
g62
(dp2507
g89
g90
ssg71
g2496
sg64
(lp2508
S':'
asbag57
(g78
g59
NtRp2509
(dp2510
g62
(dp2511
sg71
g2496
sg64
(lp2512
g57
(g58
g59
NtRp2513
(dp2514
g62
(dp2515
g70
I5
ssg71
g2509
sg64
(lp2516
g1258
asbasbasbag57
(g73
g59
NtRp2517
(dp2518
g62
(dp2519
sg71
g67
sg64
(lp2520
g57
(g78
g59
NtRp2521
(dp2522
g62
(dp2523
g82
g83
ssg71
g2517
sg64
(lp2524
S'utcnow'
p2525
asbag57
(g78
g59
NtRp2526
(dp2527
g62
(dp2528
g89
g90
ssg71
g2517
sg64
(lp2529
S':'
asbag57
(g78
g59
NtRp2530
(dp2531
g62
(dp2532
sg71
g2517
sg64
(lp2533
g57
(g58
g59
NtRp2534
(dp2535
g62
(dp2536
g70
I5
ssg71
g2530
sg64
(lp2537
S'datetime.datetime(2013, 1, 23, 22, 6, 9, 316796)'
p2538
asbasbasbag57
(g73
g59
NtRp2539
(dp2540
g62
(dp2541
sg71
g67
sg64
(lp2542
g57
(g78
g59
NtRp2543
(dp2544
g62
(dp2545
g82
g83
ssg71
g2539
sg64
(lp2546
S'uuid'
p2547
asbag57
(g78
g59
NtRp2548
(dp2549
g62
(dp2550
g89
g90
ssg71
g2539
sg64
(lp2551
S':'
asbag57
(g78
g59
NtRp2552
(dp2553
g62
(dp2554
sg71
g2539
sg64
(lp2555
g57
(g58
g59
NtRp2556
(dp2557
g62
(dp2558
g70
I5
ssg71
g2552
sg64
(lp2559
S'sueldos/127.0.0.1.2013-01-23.19-06-09.a9c6129e-2221-4799-b356-d2ae42e23904'
p2560
asbasbasbag57
(g73
g59
NtRp2561
(dp2562
g62
(dp2563
sg71
g67
sg64
(lp2564
g57
(g78
g59
NtRp2565
(dp2566
g62
(dp2567
g82
g83
ssg71
g2561
sg64
(lp2568
S'vars'
p2569
asbag57
(g78
g59
NtRp2570
(dp2571
g62
(dp2572
g89
g90
ssg71
g2561
sg64
(lp2573
S':'
asbag57
(g78
g59
NtRp2574
(dp2575
g62
(dp2576
sg71
g2561
sg64
(lp2577
g57
(g58
g59
NtRp2578
(dp2579
g62
(dp2580
g70
I5
ssg71
g2574
sg64
(lp2581
g57
(g66
g59
NtRp2582
(dp2583
g62
(dp2584
g70
I4
ssg71
Nsg64
(lp2585
g57
(g73
g59
NtRp2586
(dp2587
g62
(dp2588
sg71
g2582
sg64
(lp2589
g57
(g78
g59
NtRp2590
(dp2591
g62
(dp2592
g82
g83
ssg71
g2586
sg64
(lp2593
g2374
asbag57
(g78
g59
NtRp2594
(dp2595
g62
(dp2596
g89
g90
ssg71
g2586
sg64
(lp2597
S':'
asbag57
(g78
g59
NtRp2598
(dp2599
g62
(dp2600
sg71
g2586
sg64
(lp2601
g57
(g58
g59
NtRp2602
(dp2603
g62
(dp2604
g70
I4
ssg71
g2598
sg64
(lp2605
S'1'
asbasbasbag57
(g73
g59
NtRp2606
(dp2607
g62
(dp2608
sg71
g2582
sg64
(lp2609
g57
(g78
g59
NtRp2610
(dp2611
g62
(dp2612
g82
g83
ssg71
g2606
sg64
(lp2613
g2395
asbag57
(g78
g59
NtRp2614
(dp2615
g62
(dp2616
g89
g90
ssg71
g2606
sg64
(lp2617
S':'
asbag57
(g78
g59
NtRp2618
(dp2619
g62
(dp2620
sg71
g2606
sg64
(lp2621
g57
(g58
g59
NtRp2622
(dp2623
g62
(dp2624
g70
I4
ssg71
g2618
sg64
(lp2625
g2408
asbasbasbag57
(g73
g59
NtRp2626
(dp2627
g62
(dp2628
sg71
g2582
sg64
(lp2629
g57
(g78
g59
NtRp2630
(dp2631
g62
(dp2632
g82
g83
ssg71
g2626
sg64
(lp2633
g2417
asbag57
(g78
g59
NtRp2634
(dp2635
g62
(dp2636
g89
g90
ssg71
g2626
sg64
(lp2637
S':'
asbag57
(g78
g59
NtRp2638
(dp2639
g62
(dp2640
sg71
g2626
sg64
(lp2641
g57
(g58
g59
NtRp2642
(dp2643
g62
(dp2644
g70
I4
ssg71
g2638
sg64
(lp2645
g2430
asbasbasbag57
(g73
g59
NtRp2646
(dp2647
g62
(dp2648
sg71
g2582
sg64
(lp2649
g57
(g78
g59
NtRp2650
(dp2651
g62
(dp2652
g82
g83
ssg71
g2646
sg64
(lp2653
g2439
asbag57
(g78
g59
NtRp2654
(dp2655
g62
(dp2656
g89
g90
ssg71
g2646
sg64
(lp2657
S':'
asbag57
(g78
g59
NtRp2658
(dp2659
g62
(dp2660
sg71
g2646
sg64
(lp2661
g57
(g58
g59
NtRp2662
(dp2663
g62
(dp2664
g70
I4
ssg71
g2658
sg64
(lp2665
g2452
asbasbasbasbasbasbasbag57
(g73
g59
NtRp2666
(dp2667
g62
(dp2668
sg71
g67
sg64
(lp2669
g57
(g78
g59
NtRp2670
(dp2671
g62
(dp2672
g82
g83
ssg71
g2666
sg64
(lp2673
S'wsgi'
p2674
asbag57
(g78
g59
NtRp2675
(dp2676
g62
(dp2677
g89
g90
ssg71
g2666
sg64
(lp2678
S':'
asbag57
(g78
g59
NtRp2679
(dp2680
g62
(dp2681
sg71
g2666
sg64
(lp2682
g57
(g58
g59
NtRp2683
(dp2684
g62
(dp2685
g70
I5
ssg71
g2679
sg64
(lp2686
g57
(g66
g59
NtRp2687
(dp2688
g62
(dp2689
g70
I4
ssg71
Nsg64
(lp2690
g57
(g73
g59
NtRp2691
(dp2692
g62
(dp2693
sg71
g2687
sg64
(lp2694
g57
(g78
g59
NtRp2695
(dp2696
g62
(dp2697
g82
g83
ssg71
g2691
sg64
(lp2698
S'environ'
p2699
asbag57
(g78
g59
NtRp2700
(dp2701
g62
(dp2702
g89
g90
ssg71
g2691
sg64
(lp2703
S':'
asbag57
(g78
g59
NtRp2704
(dp2705
g62
(dp2706
sg71
g2691
sg64
(lp2707
g57
(g58
g59
NtRp2708
(dp2709
g62
(dp2710
g70
I4
ssg71
g2704
sg64
(lp2711
g57
(g66
g59
NtRp2712
(dp2713
g62
(dp2714
g70
I3
ssg71
Nsg64
(lp2715
g57
(g73
g59
NtRp2716
(dp2717
g62
(dp2718
sg71
g2712
sg64
(lp2719
g57
(g78
g59
NtRp2720
(dp2721
g62
(dp2722
g82
g83
ssg71
g2716
sg64
(lp2723
S'CONTENT_LENGTH'
p2724
asbag57
(g78
g59
NtRp2725
(dp2726
g62
(dp2727
g89
g90
ssg71
g2716
sg64
(lp2728
S':'
asbag57
(g78
g59
NtRp2729
(dp2730
g62
(dp2731
sg71
g2716
sg64
(lp2732
g57
(g58
g59
NtRp2733
(dp2734
g62
(dp2735
g70
I3
ssg71
g2729
sg64
(lp2736
g777
asbasbasbag57
(g73
g59
NtRp2737
(dp2738
g62
(dp2739
sg71
g2712
sg64
(lp2740
g57
(g78
g59
NtRp2741
(dp2742
g62
(dp2743
g82
g83
ssg71
g2737
sg64
(lp2744
S'CONTENT_TYPE'
p2745
asbag57
(g78
g59
NtRp2746
(dp2747
g62
(dp2748
g89
g90
ssg71
g2737
sg64
(lp2749
S':'
asbag57
(g78
g59
NtRp2750
(dp2751
g62
(dp2752
sg71
g2737
sg64
(lp2753
g57
(g58
g59
NtRp2754
(dp2755
g62
(dp2756
g70
I3
ssg71
g2750
sg64
(lp2757
g799
asbasbasbag57
(g73
g59
NtRp2758
(dp2759
g62
(dp2760
sg71
g2712
sg64
(lp2761
g57
(g78
g59
NtRp2762
(dp2763
g62
(dp2764
g82
g83
ssg71
g2758
sg64
(lp2765
S'HTTP_ACCEPT'
p2766
asbag57
(g78
g59
NtRp2767
(dp2768
g62
(dp2769
g89
g90
ssg71
g2758
sg64
(lp2770
S':'
asbag57
(g78
g59
NtRp2771
(dp2772
g62
(dp2773
sg71
g2758
sg64
(lp2774
g57
(g58
g59
NtRp2775
(dp2776
g62
(dp2777
g70
I3
ssg71
g2771
sg64
(lp2778
g886
asbasbasbag57
(g73
g59
NtRp2779
(dp2780
g62
(dp2781
sg71
g2712
sg64
(lp2782
g57
(g78
g59
NtRp2783
(dp2784
g62
(dp2785
g82
g83
ssg71
g2779
sg64
(lp2786
S'HTTP_ACCEPT_ENCODING'
p2787
asbag57
(g78
g59
NtRp2788
(dp2789
g62
(dp2790
g89
g90
ssg71
g2779
sg64
(lp2791
S':'
asbag57
(g78
g59
NtRp2792
(dp2793
g62
(dp2794
sg71
g2779
sg64
(lp2795
g57
(g58
g59
NtRp2796
(dp2797
g62
(dp2798
g70
I3
ssg71
g2792
sg64
(lp2799
g908
asbasbasbag57
(g73
g59
NtRp2800
(dp2801
g62
(dp2802
sg71
g2712
sg64
(lp2803
g57
(g78
g59
NtRp2804
(dp2805
g62
(dp2806
g82
g83
ssg71
g2800
sg64
(lp2807
S'HTTP_ACCEPT_LANGUAGE'
p2808
asbag57
(g78
g59
NtRp2809
(dp2810
g62
(dp2811
g89
g90
ssg71
g2800
sg64
(lp2812
S':'
asbag57
(g78
g59
NtRp2813
(dp2814
g62
(dp2815
sg71
g2800
sg64
(lp2816
g57
(g58
g59
NtRp2817
(dp2818
g62
(dp2819
g70
I3
ssg71
g2813
sg64
(lp2820
g930
asbasbasbag57
(g73
g59
NtRp2821
(dp2822
g62
(dp2823
sg71
g2712
sg64
(lp2824
g57
(g78
g59
NtRp2825
(dp2826
g62
(dp2827
g82
g83
ssg71
g2821
sg64
(lp2828
S'HTTP_CACHE_CONTROL'
p2829
asbag57
(g78
g59
NtRp2830
(dp2831
g62
(dp2832
g89
g90
ssg71
g2821
sg64
(lp2833
S':'
asbag57
(g78
g59
NtRp2834
(dp2835
g62
(dp2836
sg71
g2821
sg64
(lp2837
g57
(g58
g59
NtRp2838
(dp2839
g62
(dp2840
g70
I3
ssg71
g2834
sg64
(lp2841
g952
asbasbasbag57
(g73
g59
NtRp2842
(dp2843
g62
(dp2844
sg71
g2712
sg64
(lp2845
g57
(g78
g59
NtRp2846
(dp2847
g62
(dp2848
g82
g83
ssg71
g2842
sg64
(lp2849
S'HTTP_CONNECTION'
p2850
asbag57
(g78
g59
NtRp2851
(dp2852
g62
(dp2853
g89
g90
ssg71
g2842
sg64
(lp2854
S':'
asbag57
(g78
g59
NtRp2855
(dp2856
g62
(dp2857
sg71
g2842
sg64
(lp2858
g57
(g58
g59
NtRp2859
(dp2860
g62
(dp2861
g70
I3
ssg71
g2855
sg64
(lp2862
g974
asbasbasbag57
(g73
g59
NtRp2863
(dp2864
g62
(dp2865
sg71
g2712
sg64
(lp2866
g57
(g78
g59
NtRp2867
(dp2868
g62
(dp2869
g82
g83
ssg71
g2863
sg64
(lp2870
S'HTTP_CONTENT_LENGTH'
p2871
asbag57
(g78
g59
NtRp2872
(dp2873
g62
(dp2874
g89
g90
ssg71
g2863
sg64
(lp2875
S':'
asbag57
(g78
g59
NtRp2876
(dp2877
g62
(dp2878
sg71
g2863
sg64
(lp2879
g57
(g58
g59
NtRp2880
(dp2881
g62
(dp2882
g70
I3
ssg71
g2876
sg64
(lp2883
g777
asbasbasbag57
(g73
g59
NtRp2884
(dp2885
g62
(dp2886
sg71
g2712
sg64
(lp2887
g57
(g78
g59
NtRp2888
(dp2889
g62
(dp2890
g82
g83
ssg71
g2884
sg64
(lp2891
S'HTTP_CONTENT_TYPE'
p2892
asbag57
(g78
g59
NtRp2893
(dp2894
g62
(dp2895
g89
g90
ssg71
g2884
sg64
(lp2896
S':'
asbag57
(g78
g59
NtRp2897
(dp2898
g62
(dp2899
sg71
g2884
sg64
(lp2900
g57
(g58
g59
NtRp2901
(dp2902
g62
(dp2903
g70
I3
ssg71
g2897
sg64
(lp2904
g799
asbasbasbag57
(g73
g59
NtRp2905
(dp2906
g62
(dp2907
sg71
g2712
sg64
(lp2908
g57
(g78
g59
NtRp2909
(dp2910
g62
(dp2911
g82
g83
ssg71
g2905
sg64
(lp2912
S'HTTP_COOKIE'
p2913
asbag57
(g78
g59
NtRp2914
(dp2915
g62
(dp2916
g89
g90
ssg71
g2905
sg64
(lp2917
S':'
asbag57
(g78
g59
NtRp2918
(dp2919
g62
(dp2920
sg71
g2905
sg64
(lp2921
g57
(g58
g59
NtRp2922
(dp2923
g62
(dp2924
g70
I3
ssg71
g2918
sg64
(lp2925
g1038
asbasbasbag57
(g73
g59
NtRp2926
(dp2927
g62
(dp2928
sg71
g2712
sg64
(lp2929
g57
(g78
g59
NtRp2930
(dp2931
g62
(dp2932
g82
g83
ssg71
g2926
sg64
(lp2933
S'HTTP_HOST'
p2934
asbag57
(g78
g59
NtRp2935
(dp2936
g62
(dp2937
g89
g90
ssg71
g2926
sg64
(lp2938
S':'
asbag57
(g78
g59
NtRp2939
(dp2940
g62
(dp2941
sg71
g2926
sg64
(lp2942
g57
(g58
g59
NtRp2943
(dp2944
g62
(dp2945
g70
I3
ssg71
g2939
sg64
(lp2946
g1060
asbasbasbag57
(g73
g59
NtRp2947
(dp2948
g62
(dp2949
sg71
g2712
sg64
(lp2950
g57
(g78
g59
NtRp2951
(dp2952
g62
(dp2953
g82
g83
ssg71
g2947
sg64
(lp2954
S'HTTP_REFERER'
p2955
asbag57
(g78
g59
NtRp2956
(dp2957
g62
(dp2958
g89
g90
ssg71
g2947
sg64
(lp2959
S':'
asbag57
(g78
g59
NtRp2960
(dp2961
g62
(dp2962
sg71
g2947
sg64
(lp2963
g57
(g58
g59
NtRp2964
(dp2965
g62
(dp2966
g70
I3
ssg71
g2960
sg64
(lp2967
g1082
asbasbasbag57
(g73
g59
NtRp2968
(dp2969
g62
(dp2970
sg71
g2712
sg64
(lp2971
g57
(g78
g59
NtRp2972
(dp2973
g62
(dp2974
g82
g83
ssg71
g2968
sg64
(lp2975
S'HTTP_USER_AGENT'
p2976
asbag57
(g78
g59
NtRp2977
(dp2978
g62
(dp2979
g89
g90
ssg71
g2968
sg64
(lp2980
S':'
asbag57
(g78
g59
NtRp2981
(dp2982
g62
(dp2983
sg71
g2968
sg64
(lp2984
g57
(g58
g59
NtRp2985
(dp2986
g62
(dp2987
g70
I3
ssg71
g2981
sg64
(lp2988
g1104
asbasbasbag57
(g73
g59
NtRp2989
(dp2990
g62
(dp2991
sg71
g2712
sg64
(lp2992
g57
(g78
g59
NtRp2993
(dp2994
g62
(dp2995
g82
g83
ssg71
g2989
sg64
(lp2996
S'PATH_INFO'
p2997
asbag57
(g78
g59
NtRp2998
(dp2999
g62
(dp3000
g89
g90
ssg71
g2989
sg64
(lp3001
S':'
asbag57
(g78
g59
NtRp3002
(dp3003
g62
(dp3004
sg71
g2989
sg64
(lp3005
g57
(g58
g59
NtRp3006
(dp3007
g62
(dp3008
g70
I3
ssg71
g3002
sg64
(lp3009
g1258
asbasbasbag57
(g73
g59
NtRp3010
(dp3011
g62
(dp3012
sg71
g2712
sg64
(lp3013
g57
(g78
g59
NtRp3014
(dp3015
g62
(dp3016
g82
g83
ssg71
g3010
sg64
(lp3017
S'QUERY_STRING'
p3018
asbag57
(g78
g59
NtRp3019
(dp3020
g62
(dp3021
g89
g90
ssg71
g3010
sg64
(lp3022
S':'
asbag57
(g78
g59
NtRp3023
(dp3024
g62
(dp3025
sg71
g3010
sg64
(lp3026
g57
(g58
g59
NtRp3027
(dp3028
g62
(dp3029
g70
I3
ssg71
g3023
sg64
(lp3030
S''
asbasbasbag57
(g73
g59
NtRp3031
(dp3032
g62
(dp3033
sg71
g2712
sg64
(lp3034
g57
(g78
g59
NtRp3035
(dp3036
g62
(dp3037
g82
g83
ssg71
g3031
sg64
(lp3038
S'REMOTE_ADDR'
p3039
asbag57
(g78
g59
NtRp3040
(dp3041
g62
(dp3042
g89
g90
ssg71
g3031
sg64
(lp3043
S':'
asbag57
(g78
g59
NtRp3044
(dp3045
g62
(dp3046
sg71
g3031
sg64
(lp3047
g57
(g58
g59
NtRp3048
(dp3049
g62
(dp3050
g70
I3
ssg71
g3044
sg64
(lp3051
g212
asbasbasbag57
(g73
g59
NtRp3052
(dp3053
g62
(dp3054
sg71
g2712
sg64
(lp3055
g57
(g78
g59
NtRp3056
(dp3057
g62
(dp3058
g82
g83
ssg71
g3052
sg64
(lp3059
S'REMOTE_PORT'
p3060
asbag57
(g78
g59
NtRp3061
(dp3062
g62
(dp3063
g89
g90
ssg71
g3052
sg64
(lp3064
S':'
asbag57
(g78
g59
NtRp3065
(dp3066
g62
(dp3067
sg71
g3052
sg64
(lp3068
g57
(g58
g59
NtRp3069
(dp3070
g62
(dp3071
g70
I3
ssg71
g3065
sg64
(lp3072
g1322
asbasbasbag57
(g73
g59
NtRp3073
(dp3074
g62
(dp3075
sg71
g2712
sg64
(lp3076
g57
(g78
g59
NtRp3077
(dp3078
g62
(dp3079
g82
g83
ssg71
g3073
sg64
(lp3080
S'REQUEST_METHOD'
p3081
asbag57
(g78
g59
NtRp3082
(dp3083
g62
(dp3084
g89
g90
ssg71
g3073
sg64
(lp3085
S':'
asbag57
(g78
g59
NtRp3086
(dp3087
g62
(dp3088
sg71
g3073
sg64
(lp3089
g57
(g58
g59
NtRp3090
(dp3091
g62
(dp3092
g70
I3
ssg71
g3086
sg64
(lp3093
g1344
asbasbasbag57
(g73
g59
NtRp3094
(dp3095
g62
(dp3096
sg71
g2712
sg64
(lp3097
g57
(g78
g59
NtRp3098
(dp3099
g62
(dp3100
g82
g83
ssg71
g3094
sg64
(lp3101
S'REQUEST_URI'
p3102
asbag57
(g78
g59
NtRp3103
(dp3104
g62
(dp3105
g89
g90
ssg71
g3094
sg64
(lp3106
S':'
asbag57
(g78
g59
NtRp3107
(dp3108
g62
(dp3109
sg71
g3094
sg64
(lp3110
g57
(g58
g59
NtRp3111
(dp3112
g62
(dp3113
g70
I3
ssg71
g3107
sg64
(lp3114
g1258
asbasbasbag57
(g73
g59
NtRp3115
(dp3116
g62
(dp3117
sg71
g2712
sg64
(lp3118
g57
(g78
g59
NtRp3119
(dp3120
g62
(dp3121
g82
g83
ssg71
g3115
sg64
(lp3122
S'SCRIPT_NAME'
p3123
asbag57
(g78
g59
NtRp3124
(dp3125
g62
(dp3126
g89
g90
ssg71
g3115
sg64
(lp3127
S':'
asbag57
(g78
g59
NtRp3128
(dp3129
g62
(dp3130
sg71
g3115
sg64
(lp3131
g57
(g58
g59
NtRp3132
(dp3133
g62
(dp3134
g70
I3
ssg71
g3128
sg64
(lp3135
S''
asbasbasbag57
(g73
g59
NtRp3136
(dp3137
g62
(dp3138
sg71
g2712
sg64
(lp3139
g57
(g78
g59
NtRp3140
(dp3141
g62
(dp3142
g82
g83
ssg71
g3136
sg64
(lp3143
S'SERVER_NAME'
p3144
asbag57
(g78
g59
NtRp3145
(dp3146
g62
(dp3147
g89
g90
ssg71
g3136
sg64
(lp3148
S':'
asbag57
(g78
g59
NtRp3149
(dp3150
g62
(dp3151
sg71
g3136
sg64
(lp3152
g57
(g58
g59
NtRp3153
(dp3154
g62
(dp3155
g70
I3
ssg71
g3149
sg64
(lp3156
g1408
asbasbasbag57
(g73
g59
NtRp3157
(dp3158
g62
(dp3159
sg71
g2712
sg64
(lp3160
g57
(g78
g59
NtRp3161
(dp3162
g62
(dp3163
g82
g83
ssg71
g3157
sg64
(lp3164
S'SERVER_PORT'
p3165
asbag57
(g78
g59
NtRp3166
(dp3167
g62
(dp3168
g89
g90
ssg71
g3157
sg64
(lp3169
S':'
asbag57
(g78
g59
NtRp3170
(dp3171
g62
(dp3172
sg71
g3157
sg64
(lp3173
g57
(g58
g59
NtRp3174
(dp3175
g62
(dp3176
g70
I3
ssg71
g3170
sg64
(lp3177
g1430
asbasbasbag57
(g73
g59
NtRp3178
(dp3179
g62
(dp3180
sg71
g2712
sg64
(lp3181
g57
(g78
g59
NtRp3182
(dp3183
g62
(dp3184
g82
g83
ssg71
g3178
sg64
(lp3185
S'SERVER_PROTOCOL'
p3186
asbag57
(g78
g59
NtRp3187
(dp3188
g62
(dp3189
g89
g90
ssg71
g3178
sg64
(lp3190
S':'
asbag57
(g78
g59
NtRp3191
(dp3192
g62
(dp3193
sg71
g3178
sg64
(lp3194
g57
(g58
g59
NtRp3195
(dp3196
g62
(dp3197
g70
I3
ssg71
g3191
sg64
(lp3198
g1452
asbasbasbag57
(g73
g59
NtRp3199
(dp3200
g62
(dp3201
sg71
g2712
sg64
(lp3202
g57
(g78
g59
NtRp3203
(dp3204
g62
(dp3205
g82
g83
ssg71
g3199
sg64
(lp3206
S'SERVER_SOFTWARE'
p3207
asbag57
(g78
g59
NtRp3208
(dp3209
g62
(dp3210
g89
g90
ssg71
g3199
sg64
(lp3211
S':'
asbag57
(g78
g59
NtRp3212
(dp3213
g62
(dp3214
sg71
g3199
sg64
(lp3215
g57
(g58
g59
NtRp3216
(dp3217
g62
(dp3218
g70
I3
ssg71
g3212
sg64
(lp3219
g1474
asbasbasbag57
(g73
g59
NtRp3220
(dp3221
g62
(dp3222
sg71
g2712
sg64
(lp3223
g57
(g78
g59
NtRp3224
(dp3225
g62
(dp3226
g82
g83
ssg71
g3220
sg64
(lp3227
S'wsgi.errors'
p3228
asbag57
(g78
g59
NtRp3229
(dp3230
g62
(dp3231
g89
g90
ssg71
g3220
sg64
(lp3232
S':'
asbag57
(g78
g59
NtRp3233
(dp3234
g62
(dp3235
sg71
g3220
sg64
(lp3236
g57
(g58
g59
NtRp3237
(dp3238
g62
(dp3239
g70
I3
ssg71
g3233
sg64
(lp3240
S"<open file '<stderr>', mode 'w' at 0x7fb351b01270>"
p3241
asbasbasbag57
(g73
g59
NtRp3242
(dp3243
g62
(dp3244
sg71
g2712
sg64
(lp3245
g57
(g78
g59
NtRp3246
(dp3247
g62
(dp3248
g82
g83
ssg71
g3242
sg64
(lp3249
S'wsgi.file_wrapper'
p3250
asbag57
(g78
g59
NtRp3251
(dp3252
g62
(dp3253
g89
g90
ssg71
g3242
sg64
(lp3254
S':'
asbag57
(g78
g59
NtRp3255
(dp3256
g62
(dp3257
sg71
g3242
sg64
(lp3258
g57
(g58
g59
NtRp3259
(dp3260
g62
(dp3261
g70
I3
ssg71
g3255
sg64
(lp3262
S'<class wsgiref.util.FileWrapper at 0x1f754c8>'
p3263
asbasbasbag57
(g73
g59
NtRp3264
(dp3265
g62
(dp3266
sg71
g2712
sg64
(lp3267
g57
(g78
g59
NtRp3268
(dp3269
g62
(dp3270
g82
g83
ssg71
g3264
sg64
(lp3271
S'wsgi.input'
p3272
asbag57
(g78
g59
NtRp3273
(dp3274
g62
(dp3275
g89
g90
ssg71
g3264
sg64
(lp3276
S':'
asbag57
(g78
g59
NtRp3277
(dp3278
g62
(dp3279
sg71
g3264
sg64
(lp3280
g57
(g58
g59
NtRp3281
(dp3282
g62
(dp3283
g70
I3
ssg71
g3277
sg64
(lp3284
S"<open file '<fdopen>', mode 'w+b' at 0x2bfa4b0>"
p3285
asbasbasbag57
(g73
g59
NtRp3286
(dp3287
g62
(dp3288
sg71
g2712
sg64
(lp3289
g57
(g78
g59
NtRp3290
(dp3291
g62
(dp3292
g82
g83
ssg71
g3286
sg64
(lp3293
S'wsgi.multiprocess'
p3294
asbag57
(g78
g59
NtRp3295
(dp3296
g62
(dp3297
g89
g90
ssg71
g3286
sg64
(lp3298
S':'
asbag57
(g78
g59
NtRp3299
(dp3300
g62
(dp3301
sg71
g3286
sg64
(lp3302
g57
(g58
g59
NtRp3303
(dp3304
g62
(dp3305
g70
I3
ssg71
g3299
sg64
(lp3306
g100
asbasbasbag57
(g73
g59
NtRp3307
(dp3308
g62
(dp3309
sg71
g2712
sg64
(lp3310
g57
(g78
g59
NtRp3311
(dp3312
g62
(dp3313
g82
g83
ssg71
g3307
sg64
(lp3314
S'wsgi.multithread'
p3315
asbag57
(g78
g59
NtRp3316
(dp3317
g62
(dp3318
g89
g90
ssg71
g3307
sg64
(lp3319
S':'
asbag57
(g78
g59
NtRp3320
(dp3321
g62
(dp3322
sg71
g3307
sg64
(lp3323
g57
(g58
g59
NtRp3324
(dp3325
g62
(dp3326
g70
I3
ssg71
g3320
sg64
(lp3327
g1691
asbasbasbag57
(g73
g59
NtRp3328
(dp3329
g62
(dp3330
sg71
g2712
sg64
(lp3331
g57
(g78
g59
NtRp3332
(dp3333
g62
(dp3334
g82
g83
ssg71
g3328
sg64
(lp3335
S'wsgi.run_once'
p3336
asbag57
(g78
g59
NtRp3337
(dp3338
g62
(dp3339
g89
g90
ssg71
g3328
sg64
(lp3340
S':'
asbag57
(g78
g59
NtRp3341
(dp3342
g62
(dp3343
sg71
g3328
sg64
(lp3344
g57
(g58
g59
NtRp3345
(dp3346
g62
(dp3347
g70
I3
ssg71
g3341
sg64
(lp3348
g100
asbasbasbag57
(g73
g59
NtRp3349
(dp3350
g62
(dp3351
sg71
g2712
sg64
(lp3352
g57
(g78
g59
NtRp3353
(dp3354
g62
(dp3355
g82
g83
ssg71
g3349
sg64
(lp3356
S'wsgi.url_scheme'
p3357
asbag57
(g78
g59
NtRp3358
(dp3359
g62
(dp3360
g89
g90
ssg71
g3349
sg64
(lp3361
S':'
asbag57
(g78
g59
NtRp3362
(dp3363
g62
(dp3364
sg71
g3349
sg64
(lp3365
g57
(g58
g59
NtRp3366
(dp3367
g62
(dp3368
g70
I3
ssg71
g3362
sg64
(lp3369
g1734
asbasbasbag57
(g73
g59
NtRp3370
(dp3371
g62
(dp3372
sg71
g2712
sg64
(lp3373
g57
(g78
g59
NtRp3374
(dp3375
g62
(dp3376
g82
g83
ssg71
g3370
sg64
(lp3377
S'wsgi.version'
p3378
asbag57
(g78
g59
NtRp3379
(dp3380
g62
(dp3381
g89
g90
ssg71
g3370
sg64
(lp3382
S':'
asbag57
(g78
g59
NtRp3383
(dp3384
g62
(dp3385
sg71
g3370
sg64
(lp3386
g57
(g58
g59
NtRp3387
(dp3388
g62
(dp3389
g70
I3
ssg71
g3383
sg64
(lp3390
S'1'
asbasbasbasbasbasbasbasbasbasbasbasbasbsS'frames'
p3391
(lp3392
(dp3393
S'file'
p3394
S'/home/marco/projects/contabilidad/web2py/gluon/restricted.py'
p3395
sS'dump'
p3396
(dp3397
S'environment'
p3398
S"{'A': <class 'gluon.html.A'>, 'Auth': <class 'gluon.tools.Auth'>, 'B': <class 'gluon.html.B'>, 'BEAUTIFY': <class 'gluon.html.BEAUTIFY'>, 'BODY': <class 'gluon.html.BODY'>, 'BR': <class 'gluon.html.BR'>, 'BUTTON': <class 'gluon.html.BUTTON'>, 'CAT': <class 'gluon.html.CAT'>, 'CENTER': <class 'gluon.html.CENTER'>, 'CLEANUP': <class 'gluon.validators.CLEANUP'>, ...}"
p3399
sS'ccode'
p3400
S'<code object <module> at 0x2767c30, file "/home/...ns/sueldos/views/default/convenios.html", line 1>'
p3401
ssS'lnum'
p3402
I212
sS'lines'
p3403
(dp3404
I207
S'    try:'
p3405
sI208
S'        if isinstance(code, types.CodeType):'
p3406
sI209
S'            ccode = code'
p3407
sI210
S'        else:'
p3408
sI211
S'            ccode = compile2(code, layer)'
p3409
sI212
S'        exec ccode in environment'
p3410
sI213
S'    except HTTP:'
p3411
sI214
S'        raise'
p3412
sI215
S'    except RestrictedError:'
p3413
sI216
S'        # do not encapsulate (obfuscate) the original RestrictedError'
p3414
ssS'call'
p3415
S'(code=\'response.write(\\\'<!DOCTYPE html>\\\\n<!-- paulirish...."></script>\\\\n</body>\\\\n</html>\\\\n\\\\n\\\', escape=False)\', environment={\'A\': <class \'gluon.html.A\'>, \'Auth\': <class \'gluon.tools.Auth\'>, \'B\': <class \'gluon.html.B\'>, \'BEAUTIFY\': <class \'gluon.html.BEAUTIFY\'>, \'BODY\': <class \'gluon.html.BODY\'>, \'BR\': <class \'gluon.html.BR\'>, \'BUTTON\': <class \'gluon.html.BUTTON\'>, \'CAT\': <class \'gluon.html.CAT\'>, \'CENTER\': <class \'gluon.html.CENTER\'>, \'CLEANUP\': <class \'gluon.validators.CLEANUP\'>, ...}, layer=\'/home/marco/projects/contabilidad/web2py/applications/sueldos/views/default/convenios.html\')'
p3416
sS'func'
p3417
S'restricted'
p3418
sa(dp3419
g3394
S'/home/marco/projects/contabilidad/web2py/applications/sueldos/views/default/convenios.html'
p3420
sg3396
(dp3421
sg3402
I81
sg3403
(dp3422
I72
S'    response.write(\'\\n        <div class="span3 left-sidebar">\\n            \', escape=False)'
p3423
sI73
S"    response.write('\\n            <h3>Left Sidebar</h3>\\n            <p></p>\\n            ', escape=False)"
p3424
sI74
S"    response.write('\\n        </div>\\n        ', escape=False)"
p3425
sI75
S'    pass'
p3426
sI76
S'response.write(\'\\n\\n        <div class="\', escape=False)'
p3427
sI77
S'response.write(middle_columns)'
p3428
sI78
S'response.write(\'">\\n            \', escape=False)'
p3429
sI79
S"response.write('\\n            ', escape=False)"
p3430
sI80
S'response.write(\'\\n\\n<a href="#nuevo" role="button" class="btn btn-large btn-primary" data-toggle="modal"><h3><i class="icon-plus icon-white"></i> Nuevo convenio</h3></a>\\n<h1>Hay \', escape=False)'
p3431
sI81
S'response.write(listado.count())'
p3432
sI82
S'response.write(\' convenios vigentes</h1>\\n<table class="table table-bordered table-hover">\\n<thead>\\n<tr>\\n<th></th>\\n<th>Rubro</th>\\n<th>Sindicato</th>\\n<th>Sitio web</th>\\n<th>Importes de recibo</th>\\n<th>Escalas salariales</th>\\n</tr>\\n</thead>\\n<tbody>\\n\', escape=False)'
p3433
sI83
S'for elemento in listado:'
p3434
sI84
S'    response.write(\'\\n<tr>\\n<td><a href="#\', escape=False)'
p3435
sI85
S'    response.write(elemento.id)'
p3436
sI86
S'    response.write(\'" role="button" class="btn btn-danger" data-toggle="modal"><i class="icon-edit icon-white"></i> Editar</a></td>\\n<td>\', escape=False)'
p3437
sI87
S'    response.write(elemento.rubro)'
p3438
sI88
S"    response.write('</td>\\n<td>', escape=False)"
p3439
sI89
S'    response.write(elemento.sindicato)'
p3440
sI90
S"    response.write('</td>\\n<td>', escape=False)"
p3441
sI91
S'    response.write(elemento.web)'
p3442
ssg3415
S'()'
p3443
sg3417
S'<module>'
p3444
sasS'pyver'
p3445
S'Python 2.7.3: /usr/bin/python'
p3446
sS'session'
p3447
g57
(g58
g59
NtRp3448
(dp3449
g62
(dp3450
sg64
(lp3451
g57
(g66
g59
NtRp3452
(dp3453
g62
(dp3454
g70
I5
ssg71
Nsg64
(lp3455
g57
(g73
g59
NtRp3456
(dp3457
g62
(dp3458
sg71
g3452
sg64
(lp3459
g57
(g78
g59
NtRp3460
(dp3461
g62
(dp3462
g82
g83
ssg71
g3456
sg64
(lp3463
S'flash'
p3464
asbag57
(g78
g59
NtRp3465
(dp3466
g62
(dp3467
g89
g90
ssg71
g3456
sg64
(lp3468
S':'
asbag57
(g78
g59
NtRp3469
(dp3470
g62
(dp3471
sg71
g3456
sg64
(lp3472
g57
(g58
g59
NtRp3473
(dp3474
g62
(dp3475
g70
I5
ssg71
g3469
sg64
(lp3476
S'None'
p3477
asbasbasbasbasbsS'etype'
p3478
S"<type 'exceptions.AttributeError'>"
p3479
sS'date'
p3480
S'Wed Jan 23 19:06:09 2013'
p3481
sS'response'
p3482
g57
(g58
g59
NtRp3483
(dp3484
g62
(dp3485
sg64
(lp3486
g57
(g66
g59
NtRp3487
(dp3488
g62
(dp3489
g70
I5
ssg71
Nsg64
(lp3490
g57
(g73
g59
NtRp3491
(dp3492
g62
(dp3493
sg71
g3487
sg64
(lp3494
g57
(g78
g59
NtRp3495
(dp3496
g62
(dp3497
g82
g83
ssg71
g3491
sg64
(lp3498
g155
asbag57
(g78
g59
NtRp3499
(dp3500
g62
(dp3501
g89
g90
ssg71
g3491
sg64
(lp3502
S':'
asbag57
(g78
g59
NtRp3503
(dp3504
g62
(dp3505
sg71
g3491
sg64
(lp3506
g57
(g58
g59
NtRp3507
(dp3508
g62
(dp3509
g70
I5
ssg71
g3503
sg64
(lp3510
S'<cStringIO.StringO object at 0x35c4998>'
p3511
asbasbasbag57
(g73
g59
NtRp3512
(dp3513
g62
(dp3514
sg71
g3487
sg64
(lp3515
g57
(g78
g59
NtRp3516
(dp3517
g62
(dp3518
g82
g83
ssg71
g3512
sg64
(lp3519
g243
asbag57
(g78
g59
NtRp3520
(dp3521
g62
(dp3522
g89
g90
ssg71
g3512
sg64
(lp3523
S':'
asbag57
(g78
g59
NtRp3524
(dp3525
g62
(dp3526
sg71
g3512
sg64
(lp3527
g57
(g58
g59
NtRp3528
(dp3529
g62
(dp3530
g70
I5
ssg71
g3524
sg64
(lp3531
g57
(g66
g59
NtRp3532
(dp3533
g62
(dp3534
g70
I4
ssg71
Nsg64
(lp3535
g57
(g73
g59
NtRp3536
(dp3537
g62
(dp3538
sg71
g3532
sg64
(lp3539
g57
(g78
g59
NtRp3540
(dp3541
g62
(dp3542
g82
g83
ssg71
g3536
sg64
(lp3543
S'session_id_sueldos'
p3544
asbag57
(g78
g59
NtRp3545
(dp3546
g62
(dp3547
g89
g90
ssg71
g3536
sg64
(lp3548
S':'
asbag57
(g78
g59
NtRp3549
(dp3550
g62
(dp3551
sg71
g3536
sg64
(lp3552
g57
(g58
g59
NtRp3553
(dp3554
g62
(dp3555
g70
I4
ssg71
g3549
sg64
(lp3556
g475
ag57
(g66
g59
NtRp3557
(dp3558
g62
(dp3559
g70
I3
ssg71
Nsg64
(lp3560
g57
(g73
g59
NtRp3561
(dp3562
g62
(dp3563
sg71
g3557
sg64
(lp3564
g57
(g78
g59
NtRp3565
(dp3566
g62
(dp3567
g82
g83
ssg71
g3561
sg64
(lp3568
g294
asbag57
(g78
g59
NtRp3569
(dp3570
g62
(dp3571
g89
g90
ssg71
g3561
sg64
(lp3572
S':'
asbag57
(g78
g59
NtRp3573
(dp3574
g62
(dp3575
sg71
g3561
sg64
(lp3576
g57
(g58
g59
NtRp3577
(dp3578
g62
(dp3579
g70
I3
ssg71
g3573
sg64
(lp3580
S''
asbasbasbag57
(g73
g59
NtRp3581
(dp3582
g62
(dp3583
sg71
g3557
sg64
(lp3584
g57
(g78
g59
NtRp3585
(dp3586
g62
(dp3587
g82
g83
ssg71
g3581
sg64
(lp3588
g315
asbag57
(g78
g59
NtRp3589
(dp3590
g62
(dp3591
g89
g90
ssg71
g3581
sg64
(lp3592
S':'
asbag57
(g78
g59
NtRp3593
(dp3594
g62
(dp3595
sg71
g3581
sg64
(lp3596
g57
(g58
g59
NtRp3597
(dp3598
g62
(dp3599
g70
I3
ssg71
g3593
sg64
(lp3600
S''
asbasbasbag57
(g73
g59
NtRp3601
(dp3602
g62
(dp3603
sg71
g3557
sg64
(lp3604
g57
(g78
g59
NtRp3605
(dp3606
g62
(dp3607
g82
g83
ssg71
g3601
sg64
(lp3608
g336
asbag57
(g78
g59
NtRp3609
(dp3610
g62
(dp3611
g89
g90
ssg71
g3601
sg64
(lp3612
S':'
asbag57
(g78
g59
NtRp3613
(dp3614
g62
(dp3615
sg71
g3601
sg64
(lp3616
g57
(g58
g59
NtRp3617
(dp3618
g62
(dp3619
g70
I3
ssg71
g3613
sg64
(lp3620
S''
asbasbasbag57
(g73
g59
NtRp3621
(dp3622
g62
(dp3623
sg71
g3557
sg64
(lp3624
g57
(g78
g59
NtRp3625
(dp3626
g62
(dp3627
g82
g83
ssg71
g3621
sg64
(lp3628
g357
asbag57
(g78
g59
NtRp3629
(dp3630
g62
(dp3631
g89
g90
ssg71
g3621
sg64
(lp3632
S':'
asbag57
(g78
g59
NtRp3633
(dp3634
g62
(dp3635
sg71
g3621
sg64
(lp3636
g57
(g58
g59
NtRp3637
(dp3638
g62
(dp3639
g70
I3
ssg71
g3633
sg64
(lp3640
S''
asbasbasbag57
(g73
g59
NtRp3641
(dp3642
g62
(dp3643
sg71
g3557
sg64
(lp3644
g57
(g78
g59
NtRp3645
(dp3646
g62
(dp3647
g82
g83
ssg71
g3641
sg64
(lp3648
g378
asbag57
(g78
g59
NtRp3649
(dp3650
g62
(dp3651
g89
g90
ssg71
g3641
sg64
(lp3652
S':'
asbag57
(g78
g59
NtRp3653
(dp3654
g62
(dp3655
sg71
g3641
sg64
(lp3656
g57
(g58
g59
NtRp3657
(dp3658
g62
(dp3659
g70
I3
ssg71
g3653
sg64
(lp3660
S''
asbasbasbag57
(g73
g59
NtRp3661
(dp3662
g62
(dp3663
sg71
g3557
sg64
(lp3664
g57
(g78
g59
NtRp3665
(dp3666
g62
(dp3667
g82
g83
ssg71
g3661
sg64
(lp3668
g399
asbag57
(g78
g59
NtRp3669
(dp3670
g62
(dp3671
g89
g90
ssg71
g3661
sg64
(lp3672
S':'
asbag57
(g78
g59
NtRp3673
(dp3674
g62
(dp3675
sg71
g3661
sg64
(lp3676
g57
(g58
g59
NtRp3677
(dp3678
g62
(dp3679
g70
I3
ssg71
g3673
sg64
(lp3680
S'/'
asbasbasbag57
(g73
g59
NtRp3681
(dp3682
g62
(dp3683
sg71
g3557
sg64
(lp3684
g57
(g78
g59
NtRp3685
(dp3686
g62
(dp3687
g82
g83
ssg71
g3681
sg64
(lp3688
g420
asbag57
(g78
g59
NtRp3689
(dp3690
g62
(dp3691
g89
g90
ssg71
g3681
sg64
(lp3692
S':'
asbag57
(g78
g59
NtRp3693
(dp3694
g62
(dp3695
sg71
g3681
sg64
(lp3696
g57
(g58
g59
NtRp3697
(dp3698
g62
(dp3699
g70
I3
ssg71
g3693
sg64
(lp3700
S''
asbasbasbag57
(g73
g59
NtRp3701
(dp3702
g62
(dp3703
sg71
g3557
sg64
(lp3704
g57
(g78
g59
NtRp3705
(dp3706
g62
(dp3707
g82
g83
ssg71
g3701
sg64
(lp3708
g441
asbag57
(g78
g59
NtRp3709
(dp3710
g62
(dp3711
g89
g90
ssg71
g3701
sg64
(lp3712
S':'
asbag57
(g78
g59
NtRp3713
(dp3714
g62
(dp3715
sg71
g3701
sg64
(lp3716
g57
(g58
g59
NtRp3717
(dp3718
g62
(dp3719
g70
I3
ssg71
g3713
sg64
(lp3720
S''
asbasbasbasbasbasbasbasbasbasbasbag57
(g73
g59
NtRp3721
(dp3722
g62
(dp3723
sg71
g3487
sg64
(lp3724
g57
(g78
g59
NtRp3725
(dp3726
g62
(dp3727
g82
g83
ssg71
g3721
sg64
(lp3728
S'delimiters'
p3729
asbag57
(g78
g59
NtRp3730
(dp3731
g62
(dp3732
g89
g90
ssg71
g3721
sg64
(lp3733
S':'
asbag57
(g78
g59
NtRp3734
(dp3735
g62
(dp3736
sg71
g3721
sg64
(lp3737
g57
(g58
g59
NtRp3738
(dp3739
g62
(dp3740
g70
I5
ssg71
g3734
sg64
(lp3741
g57
(g66
g59
NtRp3742
(dp3743
g62
(dp3744
g70
I4
ssg71
Nsg64
(lp3745
g57
(g73
g59
NtRp3746
(dp3747
g62
(dp3748
sg71
g3742
sg64
(lp3749
g57
(g78
g59
NtRp3750
(dp3751
g62
(dp3752
sg71
g3746
sg64
(lp3753
g57
(g58
g59
NtRp3754
(dp3755
g62
(dp3756
g70
I4
ssg71
g3750
sg64
(lp3757
S'{{'
p3758
asbasbasbag57
(g73
g59
NtRp3759
(dp3760
g62
(dp3761
sg71
g3742
sg64
(lp3762
g57
(g78
g59
NtRp3763
(dp3764
g62
(dp3765
sg71
g3759
sg64
(lp3766
g57
(g58
g59
NtRp3767
(dp3768
g62
(dp3769
g70
I4
ssg71
g3763
sg64
(lp3770
S'}}'
p3771
asbasbasbasbasbasbasbag57
(g73
g59
NtRp3772
(dp3773
g62
(dp3774
sg71
g3487
sg64
(lp3775
g57
(g78
g59
NtRp3776
(dp3777
g62
(dp3778
g82
g83
ssg71
g3772
sg64
(lp3779
S'files'
p3780
asbag57
(g78
g59
NtRp3781
(dp3782
g62
(dp3783
g89
g90
ssg71
g3772
sg64
(lp3784
S':'
asbag57
(g78
g59
NtRp3785
(dp3786
g62
(dp3787
sg71
g3772
sg64
(lp3788
g57
(g58
g59
NtRp3789
(dp3790
g62
(dp3791
g70
I5
ssg71
g3785
sg64
(lp3792
g57
(g66
g59
NtRp3793
(dp3794
g62
(dp3795
g70
I4
ssg71
Nsg64
(lp3796
g57
(g73
g59
NtRp3797
(dp3798
g62
(dp3799
sg71
g3793
sg64
(lp3800
g57
(g78
g59
NtRp3801
(dp3802
g62
(dp3803
sg71
g3797
sg64
(lp3804
g57
(g58
g59
NtRp3805
(dp3806
g62
(dp3807
g70
I4
ssg71
g3801
sg64
(lp3808
S'/sueldos/static/js/jquery.js'
p3809
asbasbasbag57
(g73
g59
NtRp3810
(dp3811
g62
(dp3812
sg71
g3793
sg64
(lp3813
g57
(g78
g59
NtRp3814
(dp3815
g62
(dp3816
sg71
g3810
sg64
(lp3817
g57
(g58
g59
NtRp3818
(dp3819
g62
(dp3820
g70
I4
ssg71
g3814
sg64
(lp3821
S'/sueldos/static/css/calendar.css'
p3822
asbasbasbag57
(g73
g59
NtRp3823
(dp3824
g62
(dp3825
sg71
g3793
sg64
(lp3826
g57
(g78
g59
NtRp3827
(dp3828
g62
(dp3829
sg71
g3823
sg64
(lp3830
g57
(g58
g59
NtRp3831
(dp3832
g62
(dp3833
g70
I4
ssg71
g3827
sg64
(lp3834
S'/sueldos/static/js/calendar.js'
p3835
asbasbasbag57
(g73
g59
NtRp3836
(dp3837
g62
(dp3838
sg71
g3793
sg64
(lp3839
g57
(g78
g59
NtRp3840
(dp3841
g62
(dp3842
sg71
g3836
sg64
(lp3843
g57
(g58
g59
NtRp3844
(dp3845
g62
(dp3846
g70
I4
ssg71
g3840
sg64
(lp3847
S'/sueldos/static/js/web2py.js'
p3848
asbasbasbag57
(g73
g59
NtRp3849
(dp3850
g62
(dp3851
sg71
g3793
sg64
(lp3852
g57
(g78
g59
NtRp3853
(dp3854
g62
(dp3855
sg71
g3849
sg64
(lp3856
g57
(g58
g59
NtRp3857
(dp3858
g62
(dp3859
g70
I4
ssg71
g3853
sg64
(lp3860
S'/sueldos/static/css/web2py.css'
p3861
asbasbasbag57
(g73
g59
NtRp3862
(dp3863
g62
(dp3864
sg71
g3793
sg64
(lp3865
g57
(g78
g59
NtRp3866
(dp3867
g62
(dp3868
sg71
g3862
sg64
(lp3869
g57
(g58
g59
NtRp3870
(dp3871
g62
(dp3872
g70
I4
ssg71
g3866
sg64
(lp3873
S'/sueldos/static/css/bootstrap.min.css'
p3874
asbasbasbag57
(g73
g59
NtRp3875
(dp3876
g62
(dp3877
sg71
g3793
sg64
(lp3878
g57
(g78
g59
NtRp3879
(dp3880
g62
(dp3881
sg71
g3875
sg64
(lp3882
g57
(g58
g59
NtRp3883
(dp3884
g62
(dp3885
g70
I4
ssg71
g3879
sg64
(lp3886
S'/sueldos/static/css/bootstrap-responsive.min.css'
p3887
asbasbasbag57
(g73
g59
NtRp3888
(dp3889
g62
(dp3890
sg71
g3793
sg64
(lp3891
g57
(g78
g59
NtRp3892
(dp3893
g62
(dp3894
sg71
g3888
sg64
(lp3895
g57
(g58
g59
NtRp3896
(dp3897
g62
(dp3898
g70
I4
ssg71
g3892
sg64
(lp3899
S'/sueldos/static/css/web2py_bootstrap.css'
p3900
asbasbasbag57
(g73
g59
NtRp3901
(dp3902
g62
(dp3903
sg71
g3793
sg64
(lp3904
g57
(g78
g59
NtRp3905
(dp3906
g62
(dp3907
sg71
g3901
sg64
(lp3908
g57
(g58
g59
NtRp3909
(dp3910
g62
(dp3911
g70
I4
ssg71
g3905
sg64
(lp3912
S'/sueldos/static/css/awesome/css/font-awesome.min.css'
p3913
asbasbasbag57
(g73
g59
NtRp3914
(dp3915
g62
(dp3916
sg71
g3793
sg64
(lp3917
g57
(g78
g59
NtRp3918
(dp3919
g62
(dp3920
sg71
g3914
sg64
(lp3921
g57
(g58
g59
NtRp3922
(dp3923
g62
(dp3924
g70
I4
ssg71
g3918
sg64
(lp3925
S'/sueldos/static/css/xignus.css'
p3926
asbasbasbasbasbasbasbag57
(g73
g59
NtRp3927
(dp3928
g62
(dp3929
sg71
g3487
sg64
(lp3930
g57
(g78
g59
NtRp3931
(dp3932
g62
(dp3933
g82
g83
ssg71
g3927
sg64
(lp3934
S'flash'
p3935
asbag57
(g78
g59
NtRp3936
(dp3937
g62
(dp3938
g89
g90
ssg71
g3927
sg64
(lp3939
S':'
asbag57
(g78
g59
NtRp3940
(dp3941
g62
(dp3942
sg71
g3927
sg64
(lp3943
g57
(g58
g59
NtRp3944
(dp3945
g62
(dp3946
g70
I5
ssg71
g3940
sg64
(lp3947
S''
asbasbasbag57
(g73
g59
NtRp3948
(dp3949
g62
(dp3950
sg71
g3487
sg64
(lp3951
g57
(g78
g59
NtRp3952
(dp3953
g62
(dp3954
g82
g83
ssg71
g3948
sg64
(lp3955
S'generic_patterns'
p3956
asbag57
(g78
g59
NtRp3957
(dp3958
g62
(dp3959
g89
g90
ssg71
g3948
sg64
(lp3960
S':'
asbag57
(g78
g59
NtRp3961
(dp3962
g62
(dp3963
sg71
g3948
sg64
(lp3964
g57
(g58
g59
NtRp3965
(dp3966
g62
(dp3967
g70
I5
ssg71
g3961
sg64
(lp3968
g57
(g66
g59
NtRp3969
(dp3970
g62
(dp3971
g70
I4
ssg71
Nsg64
(lp3972
g57
(g73
g59
NtRp3973
(dp3974
g62
(dp3975
sg71
g3969
sg64
(lp3976
g57
(g78
g59
NtRp3977
(dp3978
g62
(dp3979
sg71
g3973
sg64
(lp3980
g57
(g58
g59
NtRp3981
(dp3982
g62
(dp3983
g70
I4
ssg71
g3977
sg64
(lp3984
S'*'
asbasbasbasbasbasbasbag57
(g73
g59
NtRp3985
(dp3986
g62
(dp3987
sg71
g3487
sg64
(lp3988
g57
(g78
g59
NtRp3989
(dp3990
g62
(dp3991
g82
g83
ssg71
g3985
sg64
(lp3992
S'google_analytics_id'
p3993
asbag57
(g78
g59
NtRp3994
(dp3995
g62
(dp3996
g89
g90
ssg71
g3985
sg64
(lp3997
S':'
asbag57
(g78
g59
NtRp3998
(dp3999
g62
(dp4000
sg71
g3985
sg64
(lp4001
g57
(g58
g59
NtRp4002
(dp4003
g62
(dp4004
g70
I5
ssg71
g3998
sg64
(lp4005
S'None'
p4006
asbasbasbag57
(g73
g59
NtRp4007
(dp4008
g62
(dp4009
sg71
g3487
sg64
(lp4010
g57
(g78
g59
NtRp4011
(dp4012
g62
(dp4013
g82
g83
ssg71
g4007
sg64
(lp4014
S'headers'
p4015
asbag57
(g78
g59
NtRp4016
(dp4017
g62
(dp4018
g89
g90
ssg71
g4007
sg64
(lp4019
S':'
asbag57
(g78
g59
NtRp4020
(dp4021
g62
(dp4022
sg71
g4007
sg64
(lp4023
g57
(g58
g59
NtRp4024
(dp4025
g62
(dp4026
g70
I5
ssg71
g4020
sg64
(lp4027
g57
(g66
g59
NtRp4028
(dp4029
g62
(dp4030
g70
I4
ssg71
Nsg64
(lp4031
g57
(g73
g59
NtRp4032
(dp4033
g62
(dp4034
sg71
g4028
sg64
(lp4035
g57
(g78
g59
NtRp4036
(dp4037
g62
(dp4038
g82
g83
ssg71
g4032
sg64
(lp4039
S'X-Powered-By'
p4040
asbag57
(g78
g59
NtRp4041
(dp4042
g62
(dp4043
g89
g90
ssg71
g4032
sg64
(lp4044
S':'
asbag57
(g78
g59
NtRp4045
(dp4046
g62
(dp4047
sg71
g4032
sg64
(lp4048
g57
(g58
g59
NtRp4049
(dp4050
g62
(dp4051
g70
I4
ssg71
g4045
sg64
(lp4052
S'web2py'
p4053
asbasbasbasbasbasbasbag57
(g73
g59
NtRp4054
(dp4055
g62
(dp4056
sg71
g3487
sg64
(lp4057
g57
(g78
g59
NtRp4058
(dp4059
g62
(dp4060
g82
g83
ssg71
g4054
sg64
(lp4061
S'menu'
p4062
asbag57
(g78
g59
NtRp4063
(dp4064
g62
(dp4065
g89
g90
ssg71
g4054
sg64
(lp4066
S':'
asbag57
(g78
g59
NtRp4067
(dp4068
g62
(dp4069
sg71
g4054
sg64
(lp4070
g57
(g58
g59
NtRp4071
(dp4072
g62
(dp4073
g70
I5
ssg71
g4067
sg64
(lp4074
g57
(g66
g59
NtRp4075
(dp4076
g62
(dp4077
g70
I4
ssg71
Nsg64
(lp4078
g57
(g73
g59
NtRp4079
(dp4080
g62
(dp4081
sg71
g4075
sg64
(lp4082
g57
(g78
g59
NtRp4083
(dp4084
g62
(dp4085
sg71
g4079
sg64
(lp4086
g57
(g58
g59
NtRp4087
(dp4088
g62
(dp4089
g70
I4
ssg71
g4083
sg64
(lp4090
g57
(g66
g59
NtRp4091
(dp4092
g62
(dp4093
g70
I3
ssg71
Nsg64
(lp4094
g57
(g73
g59
NtRp4095
(dp4096
g62
(dp4097
sg71
g4091
sg64
(lp4098
g57
(g78
g59
NtRp4099
(dp4100
g62
(dp4101
sg71
g4095
sg64
(lp4102
g57
(g58
g59
NtRp4103
(dp4104
g62
(dp4105
g70
I3
ssg71
g4099
sg64
(lp4106
cgluon.languages
lazyT_unpickle
p4107
(S's\x04\x00\x00\x00Home'
tRp4108
asbasbasbag57
(g73
g59
NtRp4109
(dp4110
g62
(dp4111
sg71
g4091
sg64
(lp4112
g57
(g78
g59
NtRp4113
(dp4114
g62
(dp4115
sg71
g4109
sg64
(lp4116
g57
(g58
g59
NtRp4117
(dp4118
g62
(dp4119
g70
I3
ssg71
g4113
sg64
(lp4120
g100
asbasbasbag57
(g73
g59
NtRp4121
(dp4122
g62
(dp4123
sg71
g4091
sg64
(lp4124
g57
(g78
g59
NtRp4125
(dp4126
g62
(dp4127
sg71
g4121
sg64
(lp4128
g57
(g58
g59
NtRp4129
(dp4130
g62
(dp4131
g70
I3
ssg71
g4125
sg64
(lp4132
S'/sueldos/default/index'
p4133
asbasbasbag57
(g73
g59
NtRp4134
(dp4135
g62
(dp4136
sg71
g4091
sg64
(lp4137
g57
(g78
g59
NtRp4138
(dp4139
g62
(dp4140
sg71
g4134
sg64
(lp4141
g57
(g58
g59
NtRp4142
(dp4143
g62
(dp4144
g70
I3
ssg71
g4138
sg64
(lp4145
g57
(g66
g59
NtRp4146
(dp4147
g62
(dp4148
g70
I2
ssg71
Nsg64
(lp4149
sbasbasbasbasbasbasbasbag57
(g73
g59
NtRp4150
(dp4151
g62
(dp4152
sg71
g4075
sg64
(lp4153
g57
(g78
g59
NtRp4154
(dp4155
g62
(dp4156
sg71
g4150
sg64
(lp4157
g57
(g58
g59
NtRp4158
(dp4159
g62
(dp4160
g70
I4
ssg71
g4154
sg64
(lp4161
g57
(g66
g59
NtRp4162
(dp4163
g62
(dp4164
g70
I3
ssg71
Nsg64
(lp4165
g57
(g73
g59
NtRp4166
(dp4167
g62
(dp4168
sg71
g4162
sg64
(lp4169
g57
(g78
g59
NtRp4170
(dp4171
g62
(dp4172
sg71
g4166
sg64
(lp4173
g57
(g58
g59
NtRp4174
(dp4175
g62
(dp4176
g70
I3
ssg71
g4170
sg64
(lp4177
g57
(cgluon.html
SPAN
p4178
g59
NtRp4179
(dp4180
g62
(dp4181
S'_class'
p4182
S'highlighted'
p4183
ssg71
g57
(cgluon.html
A
p4184
g59
NtRp4185
(dp4186
g62
(dp4187
S'_href'
p4188
S'http://web2py.com'
p4189
ssg71
g57
(cgluon.html
LI
p4190
g59
NtRp4191
(dp4192
g62
(dp4193
g4182
S'dropdown'
p4194
ssg71
g57
(cgluon.html
UL
p4195
g59
NtRp4196
(dp4197
g62
(dp4198
S'mobile'
p4199
I00
sS'ul_class'
p4200
S'dropdown-menu'
p4201
sS'li_last'
p4202
S'web2py-menu-last'
p4203
sS'li_class'
p4204
g4194
sS'li_first'
p4205
S'web2py-menu-first'
p4206
sg4182
S'nav'
p4207
sS'li_active'
p4208
S'web2py-menu-active'
p4209
ssg71
Nsg64
(lp4210
g57
(g4190
g59
NtRp4211
(dp4212
g62
(dp4213
g4182
g4206
ssg71
g4196
sg64
(lp4214
g57
(g4184
g59
NtRp4215
(dp4216
g62
(dp4217
g4188
g4133
ssg71
g4211
sg64
(lp4218
g4108
asbasbag4191
asbsg64
(lp4219
g4185
ag57
(g4195
g59
NtRp4220
(dp4221
g62
(dp4222
g4182
g4201
ssg71
g4191
sg64
(lp4223
g57
(g4190
g59
NtRp4224
(dp4225
g62
(dp4226
sg71
g4220
sg64
(lp4227
g57
(g4184
g59
NtRp4228
(dp4229
g62
(dp4230
g4188
S'/admin/default/site'
p4231
ssg71
g4224
sg64
(lp4232
g4107
(S's\x08\x00\x00\x00My Sites'
tRp4233
asbasbag57
(g4190
g59
NtRp4234
(dp4235
g62
(dp4236
g4182
g4194
ssg71
g4220
sg64
(lp4237
g57
(g4184
g59
NtRp4238
(dp4239
g62
(dp4240
g4188
S'/admin/default/design/sueldos'
p4241
ssg71
g4234
sg64
(lp4242
g4107
(S's\x08\x00\x00\x00This App'
tRp4243
asbag57
(g4195
g59
NtRp4244
(dp4245
g62
(dp4246
g4182
g4201
ssg71
g4234
sg64
(lp4247
g57
(g4190
g59
NtRp4248
(dp4249
g62
(dp4250
sg71
g4244
sg64
(lp4251
g57
(g4184
g59
NtRp4252
(dp4253
g62
(dp4254
g4188
S'/admin/default/edit/sueldos/controllers/default.py'
p4255
ssg71
g4248
sg64
(lp4256
g4107
(S's\n\x00\x00\x00Controller'
tRp4257
asbasbag57
(g4190
g59
NtRp4258
(dp4259
g62
(dp4260
sg71
g4244
sg64
(lp4261
g57
(g4184
g59
NtRp4262
(dp4263
g62
(dp4264
g4188
S'/admin/default/edit/sueldos/views/default/convenios.html'
p4265
ssg71
g4258
sg64
(lp4266
g4107
(S's\x04\x00\x00\x00View'
tRp4267
asbasbag57
(g4190
g59
NtRp4268
(dp4269
g62
(dp4270
sg71
g4244
sg64
(lp4271
g57
(g4184
g59
NtRp4272
(dp4273
g62
(dp4274
g4188
S'/admin/default/edit/sueldos/views/layout.html'
p4275
ssg71
g4268
sg64
(lp4276
g4107
(S's\x06\x00\x00\x00Layout'
tRp4277
asbasbag57
(g4190
g59
NtRp4278
(dp4279
g62
(dp4280
sg71
g4244
sg64
(lp4281
g57
(g4184
g59
NtRp4282
(dp4283
g62
(dp4284
g4188
S'/admin/default/edit/sueldos/static/css/web2py.css'
p4285
ssg71
g4278
sg64
(lp4286
g4107
(S's\n\x00\x00\x00Stylesheet'
tRp4287
asbasbag57
(g4190
g59
NtRp4288
(dp4289
g62
(dp4290
sg71
g4244
sg64
(lp4291
g57
(g4184
g59
NtRp4292
(dp4293
g62
(dp4294
g4188
S'/admin/default/edit/sueldos/models/db.py'
p4295
ssg71
g4288
sg64
(lp4296
g4107
(S's\x08\x00\x00\x00DB Model'
tRp4297
asbasbag57
(g4190
g59
NtRp4298
(dp4299
g62
(dp4300
sg71
g4244
sg64
(lp4301
g57
(g4184
g59
NtRp4302
(dp4303
g62
(dp4304
g4188
S'/admin/default/edit/sueldos/models/menu.py'
p4305
ssg71
g4298
sg64
(lp4306
g4107
(S's\n\x00\x00\x00Menu Model'
tRp4307
asbasbag57
(g4190
g59
NtRp4308
(dp4309
g62
(dp4310
sg71
g4244
sg64
(lp4311
g57
(g4184
g59
NtRp4312
(dp4313
g62
(dp4314
g4188
S'/sueldos/appadmin/index'
p4315
ssg71
g4308
sg64
(lp4316
g4107
(S's\x08\x00\x00\x00Database'
tRp4317
asbasbag57
(g4190
g59
NtRp4318
(dp4319
g62
(dp4320
sg71
g4244
sg64
(lp4321
g57
(g4184
g59
NtRp4322
(dp4323
g62
(dp4324
g4188
S'/admin/default/errors/sueldos'
p4325
ssg71
g4318
sg64
(lp4326
g4107
(S's\x06\x00\x00\x00Errors'
tRp4327
asbasbag57
(g4190
g59
NtRp4328
(dp4329
g62
(dp4330
sg71
g4244
sg64
(lp4331
g57
(g4184
g59
NtRp4332
(dp4333
g62
(dp4334
g4188
S'/admin/default/about/sueldos'
p4335
ssg71
g4328
sg64
(lp4336
g4107
(S's\x05\x00\x00\x00About'
tRp4337
asbasbasbasbag57
(g4190
g59
NtRp4338
(dp4339
g62
(dp4340
g4182
g4194
ssg71
g4220
sg64
(lp4341
g57
(g4184
g59
NtRp4342
(dp4343
g62
(dp4344
g4188
S'http://www.web2py.com'
p4345
ssg71
g4338
sg64
(lp4346
S'web2py.com'
p4347
asbag57
(g4195
g59
NtRp4348
(dp4349
g62
(dp4350
g4182
g4201
ssg71
g4338
sg64
(lp4351
g57
(g4190
g59
NtRp4352
(dp4353
g62
(dp4354
sg71
g4348
sg64
(lp4355
g57
(g4184
g59
NtRp4356
(dp4357
g62
(dp4358
g4188
S'http://www.web2py.com/examples/default/download'
p4359
ssg71
g4352
sg64
(lp4360
g4107
(S's\x08\x00\x00\x00Download'
tRp4361
asbasbag57
(g4190
g59
NtRp4362
(dp4363
g62
(dp4364
sg71
g4348
sg64
(lp4365
g57
(g4184
g59
NtRp4366
(dp4367
g62
(dp4368
g4188
S'http://www.web2py.com/examples/default/support'
p4369
ssg71
g4362
sg64
(lp4370
g4107
(S's\x07\x00\x00\x00Support'
tRp4371
asbasbag57
(g4190
g59
NtRp4372
(dp4373
g62
(dp4374
sg71
g4348
sg64
(lp4375
g57
(g4184
g59
NtRp4376
(dp4377
g62
(dp4378
g4188
S'http://web2py.com/demo_admin'
p4379
ssg71
g4372
sg64
(lp4380
g4107
(S's\x04\x00\x00\x00Demo'
tRp4381
asbasbag57
(g4190
g59
NtRp4382
(dp4383
g62
(dp4384
sg71
g4348
sg64
(lp4385
g57
(g4184
g59
NtRp4386
(dp4387
g62
(dp4388
g4188
S'http://web2py.com/examples/default/examples'
p4389
ssg71
g4382
sg64
(lp4390
g4107
(S's\x0e\x00\x00\x00Quick Examples'
tRp4391
asbasbag57
(g4190
g59
NtRp4392
(dp4393
g62
(dp4394
sg71
g4348
sg64
(lp4395
g57
(g4184
g59
NtRp4396
(dp4397
g62
(dp4398
g4188
S'http://web2py.com/AlterEgo'
p4399
ssg71
g4392
sg64
(lp4400
g4107
(S's\x03\x00\x00\x00FAQ'
tRp4401
asbasbag57
(g4190
g59
NtRp4402
(dp4403
g62
(dp4404
sg71
g4348
sg64
(lp4405
g57
(g4184
g59
NtRp4406
(dp4407
g62
(dp4408
g4188
S'http://www.web2py.com/examples/default/videos/'
p4409
ssg71
g4402
sg64
(lp4410
g4107
(S's\x06\x00\x00\x00Videos'
tRp4411
asbasbag57
(g4190
g59
NtRp4412
(dp4413
g62
(dp4414
sg71
g4348
sg64
(lp4415
g57
(g4184
g59
NtRp4416
(dp4417
g62
(dp4418
g4188
S'http://web2py.com/appliances'
p4419
ssg71
g4412
sg64
(lp4420
g4107
(S's\x11\x00\x00\x00Free Applications'
tRp4421
asbasbag57
(g4190
g59
NtRp4422
(dp4423
g62
(dp4424
sg71
g4348
sg64
(lp4425
g57
(g4184
g59
NtRp4426
(dp4427
g62
(dp4428
g4188
S'http://web2py.com/plugins'
p4429
ssg71
g4422
sg64
(lp4430
g4107
(S's\x07\x00\x00\x00Plugins'
tRp4431
asbasbag57
(g4190
g59
NtRp4432
(dp4433
g62
(dp4434
sg71
g4348
sg64
(lp4435
g57
(g4184
g59
NtRp4436
(dp4437
g62
(dp4438
g4188
S'http://web2py.com/layouts'
p4439
ssg71
g4432
sg64
(lp4440
g4107
(S's\x07\x00\x00\x00Layouts'
tRp4441
asbasbag57
(g4190
g59
NtRp4442
(dp4443
g62
(dp4444
sg71
g4348
sg64
(lp4445
g57
(g4184
g59
NtRp4446
(dp4447
g62
(dp4448
g4188
S'http://web2pyslices.com/'
p4449
ssg71
g4442
sg64
(lp4450
g4107
(S's\x07\x00\x00\x00Recipes'
tRp4451
asbasbag57
(g4190
g59
NtRp4452
(dp4453
g62
(dp4454
sg71
g4348
sg64
(lp4455
g57
(g4184
g59
NtRp4456
(dp4457
g62
(dp4458
g4188
S'http://web2py.com/semantic'
p4459
ssg71
g4452
sg64
(lp4460
g4107
(S's\x08\x00\x00\x00Semantic'
tRp4461
asbasbasbasbag57
(g4190
g59
NtRp4462
(dp4463
g62
(dp4464
g4182
g4194
ssg71
g4220
sg64
(lp4465
g57
(g4184
g59
NtRp4466
(dp4467
g62
(dp4468
g4188
S'http://www.web2py.com/book'
p4469
ssg71
g4462
sg64
(lp4470
g4107
(S's\r\x00\x00\x00Documentation'
tRp4471
asbag57
(g4195
g59
NtRp4472
(dp4473
g62
(dp4474
g4182
g4201
ssg71
g4462
sg64
(lp4475
g57
(g4190
g59
NtRp4476
(dp4477
g62
(dp4478
sg71
g4472
sg64
(lp4479
g57
(g4184
g59
NtRp4480
(dp4481
g62
(dp4482
g4188
S'http://www.web2py.com/book/default/chapter/00'
p4483
ssg71
g4476
sg64
(lp4484
g4107
(S's\x07\x00\x00\x00Preface'
tRp4485
asbasbag57
(g4190
g59
NtRp4486
(dp4487
g62
(dp4488
sg71
g4472
sg64
(lp4489
g57
(g4184
g59
NtRp4490
(dp4491
g62
(dp4492
g4188
S'http://www.web2py.com/book/default/chapter/01'
p4493
ssg71
g4486
sg64
(lp4494
g4107
(S's\x0c\x00\x00\x00Introduction'
tRp4495
asbasbag57
(g4190
g59
NtRp4496
(dp4497
g62
(dp4498
sg71
g4472
sg64
(lp4499
g57
(g4184
g59
NtRp4500
(dp4501
g62
(dp4502
g4188
S'http://www.web2py.com/book/default/chapter/02'
p4503
ssg71
g4496
sg64
(lp4504
g4107
(S's\x06\x00\x00\x00Python'
tRp4505
asbasbag57
(g4190
g59
NtRp4506
(dp4507
g62
(dp4508
sg71
g4472
sg64
(lp4509
g57
(g4184
g59
NtRp4510
(dp4511
g62
(dp4512
g4188
S'http://www.web2py.com/book/default/chapter/03'
p4513
ssg71
g4506
sg64
(lp4514
g4107
(S's\x08\x00\x00\x00Overview'
tRp4515
asbasbag57
(g4190
g59
NtRp4516
(dp4517
g62
(dp4518
sg71
g4472
sg64
(lp4519
g57
(g4184
g59
NtRp4520
(dp4521
g62
(dp4522
g4188
S'http://www.web2py.com/book/default/chapter/04'
p4523
ssg71
g4516
sg64
(lp4524
g4107
(S's\x08\x00\x00\x00The Core'
tRp4525
asbasbag57
(g4190
g59
NtRp4526
(dp4527
g62
(dp4528
sg71
g4472
sg64
(lp4529
g57
(g4184
g59
NtRp4530
(dp4531
g62
(dp4532
g4188
S'http://www.web2py.com/book/default/chapter/05'
p4533
ssg71
g4526
sg64
(lp4534
g4107
(S's\t\x00\x00\x00The Views'
tRp4535
asbasbag57
(g4190
g59
NtRp4536
(dp4537
g62
(dp4538
sg71
g4472
sg64
(lp4539
g57
(g4184
g59
NtRp4540
(dp4541
g62
(dp4542
g4188
S'http://www.web2py.com/book/default/chapter/06'
p4543
ssg71
g4536
sg64
(lp4544
g4107
(S's\x08\x00\x00\x00Database'
tRp4545
asbasbag57
(g4190
g59
NtRp4546
(dp4547
g62
(dp4548
sg71
g4472
sg64
(lp4549
g57
(g4184
g59
NtRp4550
(dp4551
g62
(dp4552
g4188
S'http://www.web2py.com/book/default/chapter/07'
p4553
ssg71
g4546
sg64
(lp4554
g4107
(S's\x14\x00\x00\x00Forms and Validators'
tRp4555
asbasbag57
(g4190
g59
NtRp4556
(dp4557
g62
(dp4558
sg71
g4472
sg64
(lp4559
g57
(g4184
g59
NtRp4560
(dp4561
g62
(dp4562
g4188
S'http://www.web2py.com/book/default/chapter/08'
p4563
ssg71
g4556
sg64
(lp4564
g4107
(S's\r\x00\x00\x00Email and SMS'
tRp4565
asbasbag57
(g4190
g59
NtRp4566
(dp4567
g62
(dp4568
sg71
g4472
sg64
(lp4569
g57
(g4184
g59
NtRp4570
(dp4571
g62
(dp4572
g4188
S'http://www.web2py.com/book/default/chapter/09'
p4573
ssg71
g4566
sg64
(lp4574
g4107
(S's\x0e\x00\x00\x00Access Control'
tRp4575
asbasbag57
(g4190
g59
NtRp4576
(dp4577
g62
(dp4578
sg71
g4472
sg64
(lp4579
g57
(g4184
g59
NtRp4580
(dp4581
g62
(dp4582
g4188
S'http://www.web2py.com/book/default/chapter/10'
p4583
ssg71
g4576
sg64
(lp4584
g4107
(S's\x08\x00\x00\x00Services'
tRp4585
asbasbag57
(g4190
g59
NtRp4586
(dp4587
g62
(dp4588
sg71
g4472
sg64
(lp4589
g57
(g4184
g59
NtRp4590
(dp4591
g62
(dp4592
g4188
S'http://www.web2py.com/book/default/chapter/11'
p4593
ssg71
g4586
sg64
(lp4594
g4107
(S's\x0c\x00\x00\x00Ajax Recipes'
tRp4595
asbasbag57
(g4190
g59
NtRp4596
(dp4597
g62
(dp4598
sg71
g4472
sg64
(lp4599
g57
(g4184
g59
NtRp4600
(dp4601
g62
(dp4602
g4188
S'http://www.web2py.com/book/default/chapter/12'
p4603
ssg71
g4596
sg64
(lp4604
g4107
(S's\x16\x00\x00\x00Components and Plugins'
tRp4605
asbasbag57
(g4190
g59
NtRp4606
(dp4607
g62
(dp4608
sg71
g4472
sg64
(lp4609
g57
(g4184
g59
NtRp4610
(dp4611
g62
(dp4612
g4188
S'http://www.web2py.com/book/default/chapter/13'
p4613
ssg71
g4606
sg64
(lp4614
g4107
(S's\x12\x00\x00\x00Deployment Recipes'
tRp4615
asbasbag57
(g4190
g59
NtRp4616
(dp4617
g62
(dp4618
sg71
g4472
sg64
(lp4619
g57
(g4184
g59
NtRp4620
(dp4621
g62
(dp4622
g4188
S'http://www.web2py.com/book/default/chapter/14'
p4623
ssg71
g4616
sg64
(lp4624
g4107
(S's\r\x00\x00\x00Other Recipes'
tRp4625
asbasbag57
(g4190
g59
NtRp4626
(dp4627
g62
(dp4628
sg71
g4472
sg64
(lp4629
g57
(g4184
g59
NtRp4630
(dp4631
g62
(dp4632
g4188
S'http://stores.lulu.com/web2py'
p4633
ssg71
g4626
sg64
(lp4634
g4107
(S's\r\x00\x00\x00Buy this book'
tRp4635
asbasbasbasbag57
(g4190
g59
NtRp4636
(dp4637
g62
(dp4638
g4182
g4194
ssg71
g4220
sg64
(lp4639
g57
(g4184
g59
NtRp4640
(dp4641
g62
(dp4642
S'_onclick'
p4643
S'javascript:void(0);return false;'
p4644
sg4188
S'#'
ssg71
g4636
sg64
(lp4645
g4107
(S's\t\x00\x00\x00Community'
tRp4646
asbag57
(g4195
g59
NtRp4647
(dp4648
g62
(dp4649
g4182
g4201
ssg71
g4636
sg64
(lp4650
g57
(g4190
g59
NtRp4651
(dp4652
g62
(dp4653
sg71
g4647
sg64
(lp4654
g57
(g4184
g59
NtRp4655
(dp4656
g62
(dp4657
g4188
S'http://www.web2py.com/examples/default/usergroups'
p4658
ssg71
g4651
sg64
(lp4659
g4107
(S's\x06\x00\x00\x00Groups'
tRp4660
asbasbag57
(g4190
g59
NtRp4661
(dp4662
g62
(dp4663
sg71
g4647
sg64
(lp4664
g57
(g4184
g59
NtRp4665
(dp4666
g62
(dp4667
g4188
S'http://twitter.com/web2py'
p4668
ssg71
g4661
sg64
(lp4669
g4107
(S's\x07\x00\x00\x00Twitter'
tRp4670
asbasbag57
(g4190
g59
NtRp4671
(dp4672
g62
(dp4673
sg71
g4647
sg64
(lp4674
g57
(g4184
g59
NtRp4675
(dp4676
g62
(dp4677
g4188
S'http://webchat.freenode.net/?channels=web2py'
p4678
ssg71
g4671
sg64
(lp4679
g4107
(S's\t\x00\x00\x00Live Chat'
tRp4680
asbasbasbasbag57
(g4190
g59
NtRp4681
(dp4682
g62
(dp4683
g4182
g4194
ssg71
g4220
sg64
(lp4684
g57
(g4184
g59
NtRp4685
(dp4686
g62
(dp4687
g4643
g4644
sg4188
S'#'
ssg71
g4681
sg64
(lp4688
g4107
(S's\x07\x00\x00\x00Plugins'
tRp4689
asbag57
(g4195
g59
NtRp4690
(dp4691
g62
(dp4692
g4182
g4201
ssg71
g4681
sg64
(lp4693
g57
(g4190
g59
NtRp4694
(dp4695
g62
(dp4696
sg71
g4690
sg64
(lp4697
g57
(g4184
g59
NtRp4698
(dp4699
g62
(dp4700
g4188
S'http://web2py.com/examples/default/download'
p4701
ssg71
g4694
sg64
(lp4702
S'plugin_wiki'
p4703
asbasbag57
(g4190
g59
NtRp4704
(dp4705
g62
(dp4706
sg71
g4690
sg64
(lp4707
g57
(g4184
g59
NtRp4708
(dp4709
g62
(dp4710
g4188
g4429
ssg71
g4704
sg64
(lp4711
g4107
(S's\r\x00\x00\x00Other Plugins'
tRp4712
asbasbag57
(g4190
g59
NtRp4713
(dp4714
g62
(dp4715
sg71
g4690
sg64
(lp4716
g57
(g4184
g59
NtRp4717
(dp4718
g62
(dp4719
g4188
g4439
ssg71
g4713
sg64
(lp4720
g4107
(S's\x0e\x00\x00\x00Layout Plugins'
tRp4721
asbasbasbasbasbasbsg64
(lp4722
g4179
asbsg64
(lp4723
g4053
asbasbasbasbag57
(g73
g59
NtRp4724
(dp4725
g62
(dp4726
sg71
g4162
sg64
(lp4727
g57
(g78
g59
NtRp4728
(dp4729
g62
(dp4730
sg71
g4724
sg64
(lp4731
g57
(g58
g59
NtRp4732
(dp4733
g62
(dp4734
g70
I3
ssg71
g4728
sg64
(lp4735
g100
asbasbasbag57
(g73
g59
NtRp4736
(dp4737
g62
(dp4738
sg71
g4162
sg64
(lp4739
g57
(g78
g59
NtRp4740
(dp4741
g62
(dp4742
sg71
g4736
sg64
(lp4743
g57
(g58
g59
NtRp4744
(dp4745
g62
(dp4746
g70
I3
ssg71
g4740
sg64
(lp4747
g4189
asbasbasbag57
(g73
g59
NtRp4748
(dp4749
g62
(dp4750
sg71
g4162
sg64
(lp4751
g57
(g78
g59
NtRp4752
(dp4753
g62
(dp4754
sg71
g4748
sg64
(lp4755
g57
(g58
g59
NtRp4756
(dp4757
g62
(dp4758
g70
I3
ssg71
g4752
sg64
(lp4759
g57
(g66
g59
NtRp4760
(dp4761
g62
(dp4762
g70
I2
ssg71
Nsg64
(lp4763
g57
(g73
g59
NtRp4764
(dp4765
g62
(dp4766
sg71
g4760
sg64
(lp4767
g57
(g78
g59
NtRp4768
(dp4769
g62
(dp4770
sg71
g4764
sg64
(lp4771
g57
(g58
g59
NtRp4772
(dp4773
g62
(dp4774
g70
I2
ssg71
g4768
sg64
(lp4775
g57
(g66
g59
NtRp4776
(dp4777
g62
(dp4778
g70
I1
ssg71
Nsg64
(lp4779
g57
(g73
g59
NtRp4780
(dp4781
g62
(dp4782
sg71
g4776
sg64
(lp4783
g57
(g78
g59
NtRp4784
(dp4785
g62
(dp4786
sg71
g4780
sg64
(lp4787
g57
(g58
g59
NtRp4788
(dp4789
g62
(dp4790
g70
I1
ssg71
g4784
sg64
(lp4791
g4233
asbasbasbag57
(g73
g59
NtRp4792
(dp4793
g62
(dp4794
sg71
g4776
sg64
(lp4795
g57
(g78
g59
NtRp4796
(dp4797
g62
(dp4798
sg71
g4792
sg64
(lp4799
g57
(g58
g59
NtRp4800
(dp4801
g62
(dp4802
g70
I1
ssg71
g4796
sg64
(lp4803
I00
asbasbasbag57
(g73
g59
NtRp4804
(dp4805
g62
(dp4806
sg71
g4776
sg64
(lp4807
g57
(g78
g59
NtRp4808
(dp4809
g62
(dp4810
sg71
g4804
sg64
(lp4811
g57
(g58
g59
NtRp4812
(dp4813
g62
(dp4814
g70
I1
ssg71
g4808
sg64
(lp4815
g4231
asbasbasbasbasbasbasbag57
(g73
g59
NtRp4816
(dp4817
g62
(dp4818
sg71
g4760
sg64
(lp4819
g57
(g78
g59
NtRp4820
(dp4821
g62
(dp4822
sg71
g4816
sg64
(lp4823
g57
(g58
g59
NtRp4824
(dp4825
g62
(dp4826
g70
I2
ssg71
g4820
sg64
(lp4827
g57
(g66
g59
NtRp4828
(dp4829
g62
(dp4830
g70
I1
ssg71
Nsg64
(lp4831
g57
(g73
g59
NtRp4832
(dp4833
g62
(dp4834
sg71
g4828
sg64
(lp4835
g57
(g78
g59
NtRp4836
(dp4837
g62
(dp4838
sg71
g4832
sg64
(lp4839
g57
(g58
g59
NtRp4840
(dp4841
g62
(dp4842
g70
I1
ssg71
g4836
sg64
(lp4843
g4243
asbasbasbag57
(g73
g59
NtRp4844
(dp4845
g62
(dp4846
sg71
g4828
sg64
(lp4847
g57
(g78
g59
NtRp4848
(dp4849
g62
(dp4850
sg71
g4844
sg64
(lp4851
g57
(g58
g59
NtRp4852
(dp4853
g62
(dp4854
g70
I1
ssg71
g4848
sg64
(lp4855
I00
asbasbasbag57
(g73
g59
NtRp4856
(dp4857
g62
(dp4858
sg71
g4828
sg64
(lp4859
g57
(g78
g59
NtRp4860
(dp4861
g62
(dp4862
sg71
g4856
sg64
(lp4863
g57
(g58
g59
NtRp4864
(dp4865
g62
(dp4866
g70
I1
ssg71
g4860
sg64
(lp4867
g4241
asbasbasbag57
(g73
g59
NtRp4868
(dp4869
g62
(dp4870
sg71
g4828
sg64
(lp4871
g57
(g78
g59
NtRp4872
(dp4873
g62
(dp4874
sg71
g4868
sg64
(lp4875
g57
(g58
g59
NtRp4876
(dp4877
g62
(dp4878
g70
I1
ssg71
g4872
sg64
(lp4879
(lp4880
(g4257
I00
g4255
tp4881
a(g4267
I00
g4265
tp4882
a(g4277
I00
g4275
tp4883
a(g4287
I00
g4285
tp4884
a(g4297
I00
g4295
tp4885
a(g4307
I00
g4305
tp4886
a(g4317
I00
g4315
tp4887
a(g4327
I00
g4325
tp4888
a(g4337
I00
g4335
tp4889
aasbasbasbasbasbasbasbag57
(g73
g59
NtRp4890
(dp4891
g62
(dp4892
sg71
g4760
sg64
(lp4893
g57
(g78
g59
NtRp4894
(dp4895
g62
(dp4896
sg71
g4890
sg64
(lp4897
g57
(g58
g59
NtRp4898
(dp4899
g62
(dp4900
g70
I2
ssg71
g4894
sg64
(lp4901
g57
(g66
g59
NtRp4902
(dp4903
g62
(dp4904
g70
I1
ssg71
Nsg64
(lp4905
g57
(g73
g59
NtRp4906
(dp4907
g62
(dp4908
sg71
g4902
sg64
(lp4909
g57
(g78
g59
NtRp4910
(dp4911
g62
(dp4912
sg71
g4906
sg64
(lp4913
g57
(g58
g59
NtRp4914
(dp4915
g62
(dp4916
g70
I1
ssg71
g4910
sg64
(lp4917
g4347
asbasbasbag57
(g73
g59
NtRp4918
(dp4919
g62
(dp4920
sg71
g4902
sg64
(lp4921
g57
(g78
g59
NtRp4922
(dp4923
g62
(dp4924
sg71
g4918
sg64
(lp4925
g57
(g58
g59
NtRp4926
(dp4927
g62
(dp4928
g70
I1
ssg71
g4922
sg64
(lp4929
I00
asbasbasbag57
(g73
g59
NtRp4930
(dp4931
g62
(dp4932
sg71
g4902
sg64
(lp4933
g57
(g78
g59
NtRp4934
(dp4935
g62
(dp4936
sg71
g4930
sg64
(lp4937
g57
(g58
g59
NtRp4938
(dp4939
g62
(dp4940
g70
I1
ssg71
g4934
sg64
(lp4941
g4345
asbasbasbag57
(g73
g59
NtRp4942
(dp4943
g62
(dp4944
sg71
g4902
sg64
(lp4945
g57
(g78
g59
NtRp4946
(dp4947
g62
(dp4948
sg71
g4942
sg64
(lp4949
g57
(g58
g59
NtRp4950
(dp4951
g62
(dp4952
g70
I1
ssg71
g4946
sg64
(lp4953
(lp4954
(g4361
I00
g4359
tp4955
a(g4371
I00
g4369
tp4956
a(g4381
I00
g4379
tp4957
a(g4391
I00
g4389
tp4958
a(g4401
I00
g4399
tp4959
a(g4411
I00
g4409
tp4960
a(g4421
I00
g4419
tp4961
a(g4431
I00
g4429
tp4962
a(g4441
I00
g4439
tp4963
a(g4451
I00
g4449
tp4964
a(g4461
I00
g4459
tp4965
aasbasbasbasbasbasbasbag57
(g73
g59
NtRp4966
(dp4967
g62
(dp4968
sg71
g4760
sg64
(lp4969
g57
(g78
g59
NtRp4970
(dp4971
g62
(dp4972
sg71
g4966
sg64
(lp4973
g57
(g58
g59
NtRp4974
(dp4975
g62
(dp4976
g70
I2
ssg71
g4970
sg64
(lp4977
g57
(g66
g59
NtRp4978
(dp4979
g62
(dp4980
g70
I1
ssg71
Nsg64
(lp4981
g57
(g73
g59
NtRp4982
(dp4983
g62
(dp4984
sg71
g4978
sg64
(lp4985
g57
(g78
g59
NtRp4986
(dp4987
g62
(dp4988
sg71
g4982
sg64
(lp4989
g57
(g58
g59
NtRp4990
(dp4991
g62
(dp4992
g70
I1
ssg71
g4986
sg64
(lp4993
g4471
asbasbasbag57
(g73
g59
NtRp4994
(dp4995
g62
(dp4996
sg71
g4978
sg64
(lp4997
g57
(g78
g59
NtRp4998
(dp4999
g62
(dp5000
sg71
g4994
sg64
(lp5001
g57
(g58
g59
NtRp5002
(dp5003
g62
(dp5004
g70
I1
ssg71
g4998
sg64
(lp5005
I00
asbasbasbag57
(g73
g59
NtRp5006
(dp5007
g62
(dp5008
sg71
g4978
sg64
(lp5009
g57
(g78
g59
NtRp5010
(dp5011
g62
(dp5012
sg71
g5006
sg64
(lp5013
g57
(g58
g59
NtRp5014
(dp5015
g62
(dp5016
g70
I1
ssg71
g5010
sg64
(lp5017
g4469
asbasbasbag57
(g73
g59
NtRp5018
(dp5019
g62
(dp5020
sg71
g4978
sg64
(lp5021
g57
(g78
g59
NtRp5022
(dp5023
g62
(dp5024
sg71
g5018
sg64
(lp5025
g57
(g58
g59
NtRp5026
(dp5027
g62
(dp5028
g70
I1
ssg71
g5022
sg64
(lp5029
(lp5030
(g4485
I00
g4483
tp5031
a(g4495
I00
g4493
tp5032
a(g4505
I00
g4503
tp5033
a(g4515
I00
g4513
tp5034
a(g4525
I00
g4523
tp5035
a(g4535
I00
g4533
tp5036
a(g4545
I00
g4543
tp5037
a(g4555
I00
g4553
tp5038
a(g4565
I00
g4563
tp5039
a(g4575
I00
g4573
tp5040
a(g4585
I00
g4583
tp5041
a(g4595
I00
g4593
tp5042
a(g4605
I00
g4603
tp5043
a(g4615
I00
g4613
tp5044
a(g4625
I00
g4623
tp5045
a(g4635
I00
g4633
tp5046
aasbasbasbasbasbasbasbag57
(g73
g59
NtRp5047
(dp5048
g62
(dp5049
sg71
g4760
sg64
(lp5050
g57
(g78
g59
NtRp5051
(dp5052
g62
(dp5053
sg71
g5047
sg64
(lp5054
g57
(g58
g59
NtRp5055
(dp5056
g62
(dp5057
g70
I2
ssg71
g5051
sg64
(lp5058
g57
(g66
g59
NtRp5059
(dp5060
g62
(dp5061
g70
I1
ssg71
Nsg64
(lp5062
g57
(g73
g59
NtRp5063
(dp5064
g62
(dp5065
sg71
g5059
sg64
(lp5066
g57
(g78
g59
NtRp5067
(dp5068
g62
(dp5069
sg71
g5063
sg64
(lp5070
g57
(g58
g59
NtRp5071
(dp5072
g62
(dp5073
g70
I1
ssg71
g5067
sg64
(lp5074
g4646
asbasbasbag57
(g73
g59
NtRp5075
(dp5076
g62
(dp5077
sg71
g5059
sg64
(lp5078
g57
(g78
g59
NtRp5079
(dp5080
g62
(dp5081
sg71
g5075
sg64
(lp5082
g57
(g58
g59
NtRp5083
(dp5084
g62
(dp5085
g70
I1
ssg71
g5079
sg64
(lp5086
I00
asbasbasbag57
(g73
g59
NtRp5087
(dp5088
g62
(dp5089
sg71
g5059
sg64
(lp5090
g57
(g78
g59
NtRp5091
(dp5092
g62
(dp5093
sg71
g5087
sg64
(lp5094
g57
(g58
g59
NtRp5095
(dp5096
g62
(dp5097
g70
I1
ssg71
g5091
sg64
(lp5098
Nasbasbasbag57
(g73
g59
NtRp5099
(dp5100
g62
(dp5101
sg71
g5059
sg64
(lp5102
g57
(g78
g59
NtRp5103
(dp5104
g62
(dp5105
sg71
g5099
sg64
(lp5106
g57
(g58
g59
NtRp5107
(dp5108
g62
(dp5109
g70
I1
ssg71
g5103
sg64
(lp5110
(lp5111
(g4660
I00
g4658
tp5112
a(g4670
I00
g4668
tp5113
a(g4680
I00
g4678
tp5114
aasbasbasbasbasbasbasbag57
(g73
g59
NtRp5115
(dp5116
g62
(dp5117
sg71
g4760
sg64
(lp5118
g57
(g78
g59
NtRp5119
(dp5120
g62
(dp5121
sg71
g5115
sg64
(lp5122
g57
(g58
g59
NtRp5123
(dp5124
g62
(dp5125
g70
I2
ssg71
g5119
sg64
(lp5126
g57
(g66
g59
NtRp5127
(dp5128
g62
(dp5129
g70
I1
ssg71
Nsg64
(lp5130
g57
(g73
g59
NtRp5131
(dp5132
g62
(dp5133
sg71
g5127
sg64
(lp5134
g57
(g78
g59
NtRp5135
(dp5136
g62
(dp5137
sg71
g5131
sg64
(lp5138
g57
(g58
g59
NtRp5139
(dp5140
g62
(dp5141
g70
I1
ssg71
g5135
sg64
(lp5142
g4689
asbasbasbag57
(g73
g59
NtRp5143
(dp5144
g62
(dp5145
sg71
g5127
sg64
(lp5146
g57
(g78
g59
NtRp5147
(dp5148
g62
(dp5149
sg71
g5143
sg64
(lp5150
g57
(g58
g59
NtRp5151
(dp5152
g62
(dp5153
g70
I1
ssg71
g5147
sg64
(lp5154
I00
asbasbasbag57
(g73
g59
NtRp5155
(dp5156
g62
(dp5157
sg71
g5127
sg64
(lp5158
g57
(g78
g59
NtRp5159
(dp5160
g62
(dp5161
sg71
g5155
sg64
(lp5162
g57
(g58
g59
NtRp5163
(dp5164
g62
(dp5165
g70
I1
ssg71
g5159
sg64
(lp5166
Nasbasbasbag57
(g73
g59
NtRp5167
(dp5168
g62
(dp5169
sg71
g5127
sg64
(lp5170
g57
(g78
g59
NtRp5171
(dp5172
g62
(dp5173
sg71
g5167
sg64
(lp5174
g57
(g58
g59
NtRp5175
(dp5176
g62
(dp5177
g70
I1
ssg71
g5171
sg64
(lp5178
(lp5179
(g4703
I00
g4701
tp5180
a(g4712
I00
g4429
tp5181
a(g4721
I00
g4439
tp5182
aasbasbasbasbasbasbasbasbasbasbasbasbasbasbasbasbasbasbasbag57
(g73
g59
NtRp5183
(dp5184
g62
(dp5185
sg71
g3487
sg64
(lp5186
g57
(g78
g59
NtRp5187
(dp5188
g62
(dp5189
g82
g83
ssg71
g5183
sg64
(lp5190
S'meta'
p5191
asbag57
(g78
g59
NtRp5192
(dp5193
g62
(dp5194
g89
g90
ssg71
g5183
sg64
(lp5195
S':'
asbag57
(g78
g59
NtRp5196
(dp5197
g62
(dp5198
sg71
g5183
sg64
(lp5199
g57
(g58
g59
NtRp5200
(dp5201
g62
(dp5202
g70
I5
ssg71
g5196
sg64
(lp5203
g57
(g66
g59
NtRp5204
(dp5205
g62
(dp5206
g70
I4
ssg71
Nsg64
(lp5207
g57
(g73
g59
NtRp5208
(dp5209
g62
(dp5210
sg71
g5204
sg64
(lp5211
g57
(g78
g59
NtRp5212
(dp5213
g62
(dp5214
g82
g83
ssg71
g5208
sg64
(lp5215
S'author'
p5216
asbag57
(g78
g59
NtRp5217
(dp5218
g62
(dp5219
g89
g90
ssg71
g5208
sg64
(lp5220
S':'
asbag57
(g78
g59
NtRp5221
(dp5222
g62
(dp5223
sg71
g5208
sg64
(lp5224
g57
(g58
g59
NtRp5225
(dp5226
g62
(dp5227
g70
I4
ssg71
g5221
sg64
(lp5228
S'Your Name <you@example.com>'
p5229
asbasbasbag57
(g73
g59
NtRp5230
(dp5231
g62
(dp5232
sg71
g5204
sg64
(lp5233
g57
(g78
g59
NtRp5234
(dp5235
g62
(dp5236
g82
g83
ssg71
g5230
sg64
(lp5237
S'description'
p5238
asbag57
(g78
g59
NtRp5239
(dp5240
g62
(dp5241
g89
g90
ssg71
g5230
sg64
(lp5242
S':'
asbag57
(g78
g59
NtRp5243
(dp5244
g62
(dp5245
sg71
g5230
sg64
(lp5246
g57
(g58
g59
NtRp5247
(dp5248
g62
(dp5249
g70
I4
ssg71
g5243
sg64
(lp5250
S'a cool new app'
p5251
asbasbasbag57
(g73
g59
NtRp5252
(dp5253
g62
(dp5254
sg71
g5204
sg64
(lp5255
g57
(g78
g59
NtRp5256
(dp5257
g62
(dp5258
g82
g83
ssg71
g5252
sg64
(lp5259
S'generator'
p5260
asbag57
(g78
g59
NtRp5261
(dp5262
g62
(dp5263
g89
g90
ssg71
g5252
sg64
(lp5264
S':'
asbag57
(g78
g59
NtRp5265
(dp5266
g62
(dp5267
sg71
g5252
sg64
(lp5268
g57
(g58
g59
NtRp5269
(dp5270
g62
(dp5271
g70
I4
ssg71
g5265
sg64
(lp5272
S'Web2py Web Framework'
p5273
asbasbasbag57
(g73
g59
NtRp5274
(dp5275
g62
(dp5276
sg71
g5204
sg64
(lp5277
g57
(g78
g59
NtRp5278
(dp5279
g62
(dp5280
g82
g83
ssg71
g5274
sg64
(lp5281
S'keywords'
p5282
asbag57
(g78
g59
NtRp5283
(dp5284
g62
(dp5285
g89
g90
ssg71
g5274
sg64
(lp5286
S':'
asbag57
(g78
g59
NtRp5287
(dp5288
g62
(dp5289
sg71
g5274
sg64
(lp5290
g57
(g58
g59
NtRp5291
(dp5292
g62
(dp5293
g70
I4
ssg71
g5287
sg64
(lp5294
S'web2py, python, framework'
p5295
asbasbasbasbasbasbasbag57
(g73
g59
NtRp5296
(dp5297
g62
(dp5298
sg71
g3487
sg64
(lp5299
g57
(g78
g59
NtRp5300
(dp5301
g62
(dp5302
g82
g83
ssg71
g5296
sg64
(lp5303
S'models_to_run'
p5304
asbag57
(g78
g59
NtRp5305
(dp5306
g62
(dp5307
g89
g90
ssg71
g5296
sg64
(lp5308
S':'
asbag57
(g78
g59
NtRp5309
(dp5310
g62
(dp5311
sg71
g5296
sg64
(lp5312
g57
(g58
g59
NtRp5313
(dp5314
g62
(dp5315
g70
I5
ssg71
g5309
sg64
(lp5316
g57
(g66
g59
NtRp5317
(dp5318
g62
(dp5319
g70
I4
ssg71
Nsg64
(lp5320
g57
(g73
g59
NtRp5321
(dp5322
g62
(dp5323
sg71
g5317
sg64
(lp5324
g57
(g78
g59
NtRp5325
(dp5326
g62
(dp5327
sg71
g5321
sg64
(lp5328
g57
(g58
g59
NtRp5329
(dp5330
g62
(dp5331
g70
I4
ssg71
g5325
sg64
(lp5332
S'^\\w+\\.py$'
p5333
asbasbasbag57
(g73
g59
NtRp5334
(dp5335
g62
(dp5336
sg71
g5317
sg64
(lp5337
g57
(g78
g59
NtRp5338
(dp5339
g62
(dp5340
sg71
g5334
sg64
(lp5341
g57
(g58
g59
NtRp5342
(dp5343
g62
(dp5344
g70
I4
ssg71
g5338
sg64
(lp5345
S'^default/\\w+\\.py$'
p5346
asbasbasbag57
(g73
g59
NtRp5347
(dp5348
g62
(dp5349
sg71
g5317
sg64
(lp5350
g57
(g78
g59
NtRp5351
(dp5352
g62
(dp5353
sg71
g5347
sg64
(lp5354
g57
(g58
g59
NtRp5355
(dp5356
g62
(dp5357
g70
I4
ssg71
g5351
sg64
(lp5358
S'^default/convenios/\\w+\\.py$'
p5359
asbasbasbasbasbasbasbag57
(g73
g59
NtRp5360
(dp5361
g62
(dp5362
sg71
g3487
sg64
(lp5363
g57
(g78
g59
NtRp5364
(dp5365
g62
(dp5366
g82
g83
ssg71
g5360
sg64
(lp5367
S'postprocessing'
p5368
asbag57
(g78
g59
NtRp5369
(dp5370
g62
(dp5371
g89
g90
ssg71
g5360
sg64
(lp5372
S':'
asbag57
(g78
g59
NtRp5373
(dp5374
g62
(dp5375
sg71
g5360
sg64
(lp5376
g57
(g58
g59
NtRp5377
(dp5378
g62
(dp5379
g70
I5
ssg71
g5373
sg64
(lp5380
g57
(g66
g59
NtRp5381
(dp5382
g62
(dp5383
g70
I4
ssg71
Nsg64
(lp5384
sbasbasbasbag57
(g73
g59
NtRp5385
(dp5386
g62
(dp5387
sg71
g3487
sg64
(lp5388
g57
(g78
g59
NtRp5389
(dp5390
g62
(dp5391
g82
g83
ssg71
g5385
sg64
(lp5392
S'session_cookie_expires'
p5393
asbag57
(g78
g59
NtRp5394
(dp5395
g62
(dp5396
g89
g90
ssg71
g5385
sg64
(lp5397
S':'
asbag57
(g78
g59
NtRp5398
(dp5399
g62
(dp5400
sg71
g5385
sg64
(lp5401
g57
(g58
g59
NtRp5402
(dp5403
g62
(dp5404
g70
I5
ssg71
g5398
sg64
(lp5405
S'None'
p5406
asbasbasbag57
(g73
g59
NtRp5407
(dp5408
g62
(dp5409
sg71
g3487
sg64
(lp5410
g57
(g78
g59
NtRp5411
(dp5412
g62
(dp5413
g82
g83
ssg71
g5407
sg64
(lp5414
S'session_data_name'
p5415
asbag57
(g78
g59
NtRp5416
(dp5417
g62
(dp5418
g89
g90
ssg71
g5407
sg64
(lp5419
S':'
asbag57
(g78
g59
NtRp5420
(dp5421
g62
(dp5422
sg71
g5407
sg64
(lp5423
g57
(g58
g59
NtRp5424
(dp5425
g62
(dp5426
g70
I5
ssg71
g5420
sg64
(lp5427
S'session_data_sueldos'
p5428
asbasbasbag57
(g73
g59
NtRp5429
(dp5430
g62
(dp5431
sg71
g3487
sg64
(lp5432
g57
(g78
g59
NtRp5433
(dp5434
g62
(dp5435
g82
g83
ssg71
g5429
sg64
(lp5436
S'session_file'
p5437
asbag57
(g78
g59
NtRp5438
(dp5439
g62
(dp5440
g89
g90
ssg71
g5429
sg64
(lp5441
S':'
asbag57
(g78
g59
NtRp5442
(dp5443
g62
(dp5444
sg71
g5429
sg64
(lp5445
g57
(g58
g59
NtRp5446
(dp5447
g62
(dp5448
g70
I5
ssg71
g5442
sg64
(lp5449
S"<open file '/home/marco/projects/contabilidad/web2py/applications/sueldos/sessions/127.0.0.1-05ce4365-dc54-4394-bd3e-60890d75bc96', mode 'rb+' at 0x2d2aa50>"
p5450
asbasbasbag57
(g73
g59
NtRp5451
(dp5452
g62
(dp5453
sg71
g3487
sg64
(lp5454
g57
(g78
g59
NtRp5455
(dp5456
g62
(dp5457
g82
g83
ssg71
g5451
sg64
(lp5458
S'session_filename'
p5459
asbag57
(g78
g59
NtRp5460
(dp5461
g62
(dp5462
g89
g90
ssg71
g5451
sg64
(lp5463
S':'
asbag57
(g78
g59
NtRp5464
(dp5465
g62
(dp5466
sg71
g5451
sg64
(lp5467
g57
(g58
g59
NtRp5468
(dp5469
g62
(dp5470
g70
I5
ssg71
g5464
sg64
(lp5471
S'/home/marco/projects/contabilidad/web2py/applications/sueldos/sessions/127.0.0.1-05ce4365-dc54-4394-bd3e-60890d75bc96'
p5472
asbasbasbag57
(g73
g59
NtRp5473
(dp5474
g62
(dp5475
sg71
g3487
sg64
(lp5476
g57
(g78
g59
NtRp5477
(dp5478
g62
(dp5479
g82
g83
ssg71
g5473
sg64
(lp5480
S'session_id'
p5481
asbag57
(g78
g59
NtRp5482
(dp5483
g62
(dp5484
g89
g90
ssg71
g5473
sg64
(lp5485
S':'
asbag57
(g78
g59
NtRp5486
(dp5487
g62
(dp5488
sg71
g5473
sg64
(lp5489
g57
(g58
g59
NtRp5490
(dp5491
g62
(dp5492
g70
I5
ssg71
g5486
sg64
(lp5493
g475
asbasbasbag57
(g73
g59
NtRp5494
(dp5495
g62
(dp5496
sg71
g3487
sg64
(lp5497
g57
(g78
g59
NtRp5498
(dp5499
g62
(dp5500
g82
g83
ssg71
g5494
sg64
(lp5501
S'session_id_name'
p5502
asbag57
(g78
g59
NtRp5503
(dp5504
g62
(dp5505
g89
g90
ssg71
g5494
sg64
(lp5506
S':'
asbag57
(g78
g59
NtRp5507
(dp5508
g62
(dp5509
sg71
g5494
sg64
(lp5510
g57
(g58
g59
NtRp5511
(dp5512
g62
(dp5513
g70
I5
ssg71
g5507
sg64
(lp5514
g3544
asbasbasbag57
(g73
g59
NtRp5515
(dp5516
g62
(dp5517
sg71
g3487
sg64
(lp5518
g57
(g78
g59
NtRp5519
(dp5520
g62
(dp5521
g82
g83
ssg71
g5515
sg64
(lp5522
S'session_locked'
p5523
asbag57
(g78
g59
NtRp5524
(dp5525
g62
(dp5526
g89
g90
ssg71
g5515
sg64
(lp5527
S':'
asbag57
(g78
g59
NtRp5528
(dp5529
g62
(dp5530
sg71
g5515
sg64
(lp5531
g57
(g58
g59
NtRp5532
(dp5533
g62
(dp5534
g70
I5
ssg71
g5528
sg64
(lp5535
g1691
asbasbasbag57
(g73
g59
NtRp5536
(dp5537
g62
(dp5538
sg71
g3487
sg64
(lp5539
g57
(g78
g59
NtRp5540
(dp5541
g62
(dp5542
g82
g83
ssg71
g5536
sg64
(lp5543
S'session_new'
p5544
asbag57
(g78
g59
NtRp5545
(dp5546
g62
(dp5547
g89
g90
ssg71
g5536
sg64
(lp5548
S':'
asbag57
(g78
g59
NtRp5549
(dp5550
g62
(dp5551
sg71
g5536
sg64
(lp5552
g57
(g58
g59
NtRp5553
(dp5554
g62
(dp5555
g70
I5
ssg71
g5549
sg64
(lp5556
g100
asbasbasbag57
(g73
g59
NtRp5557
(dp5558
g62
(dp5559
sg71
g3487
sg64
(lp5560
g57
(g78
g59
NtRp5561
(dp5562
g62
(dp5563
g82
g83
ssg71
g5557
sg64
(lp5564
S'session_storage_type'
p5565
asbag57
(g78
g59
NtRp5566
(dp5567
g62
(dp5568
g89
g90
ssg71
g5557
sg64
(lp5569
S':'
asbag57
(g78
g59
NtRp5570
(dp5571
g62
(dp5572
sg71
g5557
sg64
(lp5573
g57
(g58
g59
NtRp5574
(dp5575
g62
(dp5576
g70
I5
ssg71
g5570
sg64
(lp5577
g3394
asbasbasbag57
(g73
g59
NtRp5578
(dp5579
g62
(dp5580
sg71
g3487
sg64
(lp5581
g57
(g78
g59
NtRp5582
(dp5583
g62
(dp5584
g82
g83
ssg71
g5578
sg64
(lp5585
S'status'
p5586
asbag57
(g78
g59
NtRp5587
(dp5588
g62
(dp5589
g89
g90
ssg71
g5578
sg64
(lp5590
S':'
asbag57
(g78
g59
NtRp5591
(dp5592
g62
(dp5593
sg71
g5578
sg64
(lp5594
g57
(g58
g59
NtRp5595
(dp5596
g62
(dp5597
g70
I5
ssg71
g5591
sg64
(lp5598
S'200'
p5599
asbasbasbag57
(g73
g59
NtRp5600
(dp5601
g62
(dp5602
sg71
g3487
sg64
(lp5603
g57
(g78
g59
NtRp5604
(dp5605
g62
(dp5606
g82
g83
ssg71
g5600
sg64
(lp5607
S'subtitle'
p5608
asbag57
(g78
g59
NtRp5609
(dp5610
g62
(dp5611
g89
g90
ssg71
g5600
sg64
(lp5612
S':'
asbag57
(g78
g59
NtRp5613
(dp5614
g62
(dp5615
sg71
g5600
sg64
(lp5616
g57
(g58
g59
NtRp5617
(dp5618
g62
(dp5619
g70
I5
ssg71
g5613
sg64
(lp5620
g4107
(S's,\x00\x00\x00Sistema de liquidacion de sueldos y jornales'
tRp5621
asbasbasbag57
(g73
g59
NtRp5622
(dp5623
g62
(dp5624
sg71
g3487
sg64
(lp5625
g57
(g78
g59
NtRp5626
(dp5627
g62
(dp5628
g82
g83
ssg71
g5622
sg64
(lp5629
S'title'
p5630
asbag57
(g78
g59
NtRp5631
(dp5632
g62
(dp5633
g89
g90
ssg71
g5622
sg64
(lp5634
S':'
asbag57
(g78
g59
NtRp5635
(dp5636
g62
(dp5637
sg71
g5622
sg64
(lp5638
g57
(g58
g59
NtRp5639
(dp5640
g62
(dp5641
g70
I5
ssg71
g5635
sg64
(lp5642
S'Sueldos'
p5643
asbasbasbag57
(g73
g59
NtRp5644
(dp5645
g62
(dp5646
sg71
g3487
sg64
(lp5647
g57
(g78
g59
NtRp5648
(dp5649
g62
(dp5650
g82
g83
ssg71
g5644
sg64
(lp5651
S'view'
p5652
asbag57
(g78
g59
NtRp5653
(dp5654
g62
(dp5655
g89
g90
ssg71
g5644
sg64
(lp5656
S':'
asbag57
(g78
g59
NtRp5657
(dp5658
g62
(dp5659
sg71
g5644
sg64
(lp5660
g57
(g58
g59
NtRp5661
(dp5662
g62
(dp5663
g70
I5
ssg71
g5657
sg64
(lp5664
S'default/convenios.html'
p5665
asbasbasbasbasbsS'locals'
p5666
(dp5667
S'Service'
p5668
S"<class 'gluon.tools.Service'>"
p5669
sS'OBJECT'
p5670
S"<class 'gluon.html.OBJECT'>"
p5671
sS'SQLDB'
p5672
S"<class 'gluon.dal.DAL'>"
p5673
sg3447
S"<Storage {'_formkey[gremios/28]': 'c7af94ad20fe3...remios/22]': '68f4a49b965a22ab00eadbb0ab6bb3b4'}>"
p5674
sS'LINK'
p5675
S"<class 'gluon.html.LINK'>"
p5676
sS'hmultiselect_widget'
p5677
S'<function hmultiselect_widget>'
p5678
sS'BR'
p5679
S"<class 'gluon.html.BR'>"
p5680
sS'local_import'
p5681
S'<function <lambda>>'
p5682
sS'OPTGROUP'
p5683
S"<class 'gluon.html.OPTGROUP'>"
p5684
sS'__package__'
p5685
S'None'
p5686
sS'PRE'
p5687
S"<class 'gluon.html.PRE'>"
p5688
sS'IS_INT_IN_RANGE'
p5689
S"<class 'gluon.validators.IS_INT_IN_RANGE'>"
p5690
sS'left_sidebar_enabled'
p5691
g100
sS'listado'
p5692
S'<Rows (28)>'
p5693
sS'IS_LOWER'
p5694
S"<class 'gluon.validators.IS_LOWER'>"
p5695
sS'IS_STRONG'
p5696
S"<class 'gluon.validators.IS_STRONG'>"
p5697
sS'cache'
p5698
S'<gluon.cache.Cache object>'
p5699
sS'IS_IN_DB'
p5700
S"<class 'gluon.validators.IS_IN_DB'>"
p5701
sS'TAG'
p5702
S'<gluon.html.__TAG__ object>'
p5703
sS'SQLField'
p5704
S"<class 'gluon.dal.Field'>"
p5705
sS'mail'
p5706
S'<gluon.tools.Mail object>'
p5707
sS'BODY'
p5708
S"<class 'gluon.html.BODY'>"
p5709
sS'IS_DATE_IN_RANGE'
p5710
S"<class 'gluon.validators.IS_DATE_IN_RANGE'>"
p5711
sS'PROVINCIA'
p5712
S"['Buenos Aires', 'Catamarca, Chaco', 'Chubut', 'C\\xc3\\xb3rdoba', 'Corrientes', 'Entre R\\xc3\\xados', 'Formosa', 'Jujuy', 'La Pampa', 'La Rioja', 'Mendoza', 'Misiones', 'Neuqu\\xc3\\xa9n', 'R\\xc3\\xado Negro', 'Salta', 'San Juan', 'San Luis', 'Santa Cruz', 'Santa Fe', 'Santiago del Estero', ...]"
p5713
sS'IFRAME'
p5714
S"<class 'gluon.html.IFRAME'>"
p5715
sS'URL'
p5716
S'<function URL>'
p5717
sS'__file__'
p5718
S"'/home/marco/projects/contabilidad/web2py/applications/sueldos/views/default/convenios.html'"
p5719
sS'db'
p5720
S'<DAL uri="sqlite://storage.sqlite">'
p5721
sS'auth'
p5722
S'<gluon.tools.Auth object>'
p5723
sS'P'
S"<class 'gluon.html.P'>"
p5724
sS'TFOOT'
p5725
S"<class 'gluon.html.TFOOT'>"
p5726
sS'XHTML'
p5727
S"<class 'gluon.html.XHTML'>"
p5728
sS'ON'
p5729
g1691
sS'OL'
p5730
S"<class 'gluon.html.OL'>"
p5731
sS'TEXTAREA'
p5732
S"<class 'gluon.html.TEXTAREA'>"
p5733
sS'MENU'
p5734
S"<class 'gluon.html.MENU'>"
p5735
sS'IS_IMAGE'
p5736
S"<class 'gluon.validators.IS_IMAGE'>"
p5737
sS'IS_ACTIVITY'
p5738
S"<class '__restricted__.IS_ACTIVITY'>"
p5739
sS'EM'
p5740
S"<class 'gluon.html.EM'>"
p5741
sS'CODE'
p5742
S"<class 'gluon.html.CODE'>"
p5743
sS'HTTP'
p5744
S"<class 'gluon.http.HTTP'>"
p5745
sS'HR'
p5746
S"<class 'gluon.html.HR'>"
p5747
sS'IS_DATETIME'
p5748
S"<class 'gluon.validators.IS_DATETIME'>"
p5749
sS'STYLE'
p5750
S"<class 'gluon.html.STYLE'>"
p5751
sS'LABEL'
p5752
S"<class 'gluon.html.LABEL'>"
p5753
sS'CLEANUP'
p5754
S"<class 'gluon.validators.CLEANUP'>"
p5755
sS'plugins'
p5756
S'<gluon.tools.PluginManager object>'
p5757
sS'rhmultiselect_widget'
p5758
S'<function rhmultiselect_widget>'
p5759
sS'SELECT'
p5760
S"<class 'gluon.html.SELECT'>"
p5761
sS'use_janrain'
p5762
S'<function use_janrain>'
p5763
sS'STRONG'
p5764
S"<class 'gluon.html.STRONG'>"
p5765
sS'CENTER'
p5766
S"<class 'gluon.html.CENTER'>"
p5767
sS'prettydate'
p5768
S'<function prettydate>'
p5769
sS'Crud'
p5770
S"<class 'gluon.tools.Crud'>"
p5771
sS'Auth'
p5772
S"<class 'gluon.tools.Auth'>"
p5773
sS'IS_CUIS'
p5774
S"<class '__restricted__.IS_CUIS'>"
p5775
sS'__builtins__'
p5776
S"{'ArithmeticError': <type 'exceptions.ArithmeticError'>, 'AssertionError': <type 'exceptions.AssertionError'>, 'AttributeError': <type 'exceptions.AttributeError'>, 'BaseException': <type 'exceptions.BaseException'>, 'BufferError': <type 'exceptions.BufferError'>, 'BytesWarning': <type 'exceptions.BytesWarning'>, 'DeprecationWarning': <type 'exceptions.DeprecationWarning'>, 'EOFError': <type 'exceptions.EOFError'>, 'Ellipsis': Ellipsis, 'EnvironmentError': <type 'exceptions.EnvironmentError'>, ...}"
p5777
sS'HTML'
p5778
S"<class 'gluon.html.HTML'>"
p5779
sS'SQLFORM'
p5780
S"<class 'gluon.sqlhtml.SQLFORM'>"
p5781
sS'LOAD'
p5782
S'<function LOAD>'
p5783
sS'redirect'
p5784
S'<function redirect>'
p5785
sS'FIELDSET'
p5786
S"<class 'gluon.html.FIELDSET'>"
p5787
sS'IS_EQUAL_TO'
p5788
S"<class 'gluon.validators.IS_EQUAL_TO'>"
p5789
sS'SEXO'
p5790
S"['Masculino', 'Femenino']"
p5791
sS'nuevo'
p5792
S'<gluon.sqlhtml.SQLFORM object>'
p5793
sS'embed64'
p5794
S'<function embed64>'
p5795
sS'IS_LIST_OF'
p5796
S"<class 'gluon.validators.IS_LIST_OF'>"
p5797
sS'__name__'
p5798
S"'__restricted__'"
p5799
sS'EMBED'
p5800
S"<class 'gluon.html.EMBED'>"
p5801
sS'_'
S'<function _>'
p5802
sS'H2'
p5803
S"<class 'gluon.html.H2'>"
p5804
sS'H3'
p5805
S"<class 'gluon.html.H3'>"
p5806
sS'BUTTON'
p5807
S"<class 'gluon.html.BUTTON'>"
p5808
sS'H1'
p5809
S"<class 'gluon.html.H1'>"
p5810
sS'H6'
p5811
S"<class 'gluon.html.H6'>"
p5812
sS'H4'
p5813
S"<class 'gluon.html.H4'>"
p5814
sS'H5'
p5815
S"<class 'gluon.html.H5'>"
p5816
sS'UL'
p5817
S"<class 'gluon.html.UL'>"
p5818
sS'IS_UPPER'
p5819
S"<class 'gluon.validators.IS_UPPER'>"
p5820
sS'xmlescape'
p5821
S'<function xmlescape>'
p5822
sS'IS_TIME'
p5823
S"<class 'gluon.validators.IS_TIME'>"
p5824
sS'OPTION'
p5825
S"<class 'gluon.html.OPTION'>"
p5826
sS'TITLE'
p5827
S"<class 'gluon.html.TITLE'>"
p5828
sS'CRYPT'
p5829
S"<class 'gluon.validators.CRYPT'>"
p5830
sS'IS_EMPTY_OR'
p5831
S"<class 'gluon.validators.IS_EMPTY_OR'>"
p5832
sS'MARKMIN'
p5833
S"<class 'gluon.html.MARKMIN'>"
p5834
sS'INPUT'
p5835
S"<class 'gluon.html.INPUT'>"
p5836
sS'vmultiselect_widget'
p5837
S'<function vmultiselect_widget>'
p5838
sS'COL'
p5839
S"<class 'gluon.html.COL'>"
p5840
sS'service'
p5841
S'<gluon.tools.Service object>'
p5842
sS'SCRIPT'
p5843
S"<class 'gluon.html.SCRIPT'>"
p5844
sS'is_mobile'
p5845
g100
sS'TABLE'
p5846
S"<class 'gluon.html.TABLE'>"
p5847
sS'IS_IPV4'
p5848
S"<class 'gluon.validators.IS_IPV4'>"
p5849
sS'IS_LENGTH'
p5850
S"<class 'gluon.validators.IS_LENGTH'>"
p5851
sS'XML'
p5852
S"<class 'gluon.html.XML'>"
p5853
sS'B'
S"<class 'gluon.html.B'>"
p5854
sS'IMG'
p5855
S"<class 'gluon.html.IMG'>"
p5856
sS'SQLTABLE'
p5857
S"<class 'gluon.sqlhtml.SQLTABLE'>"
p5858
sS'IS_MATCH'
p5859
S"<class 'gluon.validators.IS_MATCH'>"
p5860
sS'IS_ALPHANUMERIC'
p5861
S"<class 'gluon.validators.IS_ALPHANUMERIC'>"
p5862
sS'SPAN'
p5863
S"<class 'gluon.html.SPAN'>"
p5864
sS'IS_JSON'
p5865
S"<class 'gluon.validators.IS_JSON'>"
p5866
sS'default'
p5867
S'1'
sS'IS_SLUG'
p5868
S"<class 'gluon.validators.IS_SLUG'>"
p5869
sS'BEAUTIFY'
p5870
S"<class 'gluon.html.BEAUTIFY'>"
p5871
sS'META'
p5872
S"<class 'gluon.html.META'>"
p5873
sS'IS_DATE'
p5874
S"<class 'gluon.validators.IS_DATE'>"
p5875
sS'IS_EMAIL'
p5876
S"<class 'gluon.validators.IS_EMAIL'>"
p5877
sS'IS_NOT_EMPTY'
p5878
S"<class 'gluon.validators.IS_NOT_EMPTY'>"
p5879
sS'IS_FLOAT_IN_RANGE'
p5880
S"<class 'gluon.validators.IS_FLOAT_IN_RANGE'>"
p5881
sS'TBODY'
p5882
S"<class 'gluon.html.TBODY'>"
p5883
sS'CAT'
p5884
S"<class 'gluon.html.CAT'>"
p5885
sS'Field'
p5886
S"<class 'gluon.dal.Field'>"
p5887
sS'middle_columns'
p5888
S"'span12'"
p5889
sS'DIV'
p5890
S"<class 'gluon.html.DIV'>"
p5891
sS'LEGEND'
p5892
S"<class 'gluon.html.LEGEND'>"
p5893
sS'COLGROUP'
p5894
S"<class 'gluon.html.COLGROUP'>"
p5895
sS'DAL'
p5896
S"<class 'gluon.dal.DAL'>"
p5897
sS'TT'
p5898
S"<class 'gluon.html.TT'>"
p5899
sS'TR'
p5900
S"<class 'gluon.html.TR'>"
p5901
sS'LI'
p5902
S"<class 'gluon.html.LI'>"
p5903
sS'right_sidebar_enabled'
p5904
g100
sS'TH'
p5905
S"<class 'gluon.html.TH'>"
p5906
sS'TD'
p5907
S"<class 'gluon.html.TD'>"
p5908
sS'PluginManager'
p5909
S"<class 'gluon.tools.PluginManager'>"
p5910
sS'IS_URL'
p5911
S"<class 'gluon.validators.IS_URL'>"
p5912
sS'TIPO_DOCUMENTO'
p5913
S"['DNI', 'CI', 'LC', 'LE', 'Pasaporte']"
p5914
sS'A'
S"<class 'gluon.html.A'>"
p5915
sS'HEAD'
p5916
S"<class 'gluon.html.HEAD'>"
p5917
sS'IS_DATETIME_IN_RANGE'
p5918
S"<class 'gluon.validators.IS_DATETIME_IN_RANGE'>"
p5919
sS'FORM'
p5920
S"<class 'gluon.html.FORM'>"
p5921
sS'I'
S"<class 'gluon.html.I'>"
p5922
sS'crud'
p5923
S'<gluon.tools.Crud object>'
p5924
sS'rvmultiselect_widget'
p5925
S'<function rvmultiselect_widget>'
p5926
sS'IS_NOT_IN_DB'
p5927
S"<class 'gluon.validators.IS_NOT_IN_DB'>"
p5928
sS'ESTADO_CIVIL'
p5929
S"['Soltero/a', 'Casado/a', 'Viudo/a', 'Divorciado/a', 'Unido de hecho']"
p5930
sg3482
S"<Storage {'body': <cStringIO.StringO object at 0...at 0x2c03758>, 'view': 'default/convenios.html'}>"
p5931
sS'THEAD'
p5932
S"<class 'gluon.html.THEAD'>"
p5933
sS'IS_NULL_OR'
p5934
S"<class 'gluon.validators.IS_EMPTY_OR'>"
p5935
sg56
S"<Storage {'function': 'convenios', 'body': <open...'48fff5497843bbdbb28ba6d0feb57eb7', 'id': '1'}>}>"
p5936
sS'IS_EXPR'
p5937
S"<class 'gluon.validators.IS_EXPR'>"
p5938
sS'T'
S'<gluon.languages.translator object>'
p5939
sS'IS_IN_SET'
p5940
S"<class 'gluon.validators.IS_IN_SET'>"
p5941
sS'IS_UPLOAD_FILENAME'
p5942
S"<class 'gluon.validators.IS_UPLOAD_FILENAME'>"
p5943
sS'IS_DECIMAL_IN_RANGE'
p5944
S"<class 'gluon.validators.IS_DECIMAL_IN_RANGE'>"
p5945
sssS'traceback'
p5946
S'Traceback (most recent call last):\n  File "/home/marco/projects/contabilidad/web2py/gluon/restricted.py", line 212, in restricted\n    exec ccode in environment\n  File "/home/marco/projects/contabilidad/web2py/applications/sueldos/views/default/convenios.html", line 81, in <module>\nAttributeError: \'Rows\' object has no attribute \'count\'\n'
p5947
s.