(dp1
S'output'
p2
S"<type 'exceptions.SyntaxError'> invalid syntax (escalas.html, line 4)"
p3
sS'layer'
p4
S'/home/marco/projects/contabilidad/web2py/applications/sueldos/views/vistas/escalas.html'
p5
sS'code'
p6
S"response.write(lista)\nresponse.write('\\n\\n', escape=False)\nresponse.write(crud.create(db.categorias, next=URL('vistas','categorias', args=request.vars.gremio))\nresponse.write('\\n', escape=False)"
p7
sS'snapshot'
p8
(dp9
S'exception'
p10
(dp11
S'__getslice__'
p12
S"<method-wrapper '__getslice__' of exceptions.SyntaxError object>"
p13
sS'text'
p14
S'"response.write(\'\\\\n\', escape=False)\\n"'
p15
sS'__str__'
p16
S"<method-wrapper '__str__' of exceptions.SyntaxError object>"
p17
sS'__reduce__'
p18
S'<built-in method __reduce__ of exceptions.SyntaxError object>'
p19
sS'__dict__'
p20
S'{}'
p21
sS'__sizeof__'
p22
S'<built-in method __sizeof__ of exceptions.SyntaxError object>'
p23
sS'__init__'
p24
S"<method-wrapper '__init__' of exceptions.SyntaxError object>"
p25
sS'__setattr__'
p26
S"<method-wrapper '__setattr__' of exceptions.SyntaxError object>"
p27
sS'__reduce_ex__'
p28
S'<built-in method __reduce_ex__ of exceptions.SyntaxError object>'
p29
sS'__new__'
p30
S'<built-in method __new__ of type object>'
p31
sS'__format__'
p32
S'<built-in method __format__ of exceptions.SyntaxError object>'
p33
sS'__class__'
p34
S"<type 'exceptions.SyntaxError'>"
p35
sS'filename'
p36
S"'/home/marco/projects/contabilidad/web2py/applications/sueldos/views/vistas/escalas.html'"
p37
sS'lineno'
p38
S'4'
sS'msg'
p39
S"'invalid syntax'"
p40
sS'__doc__'
p41
S"'Invalid syntax.'"
p42
sS'__getitem__'
p43
S"<method-wrapper '__getitem__' of exceptions.SyntaxError object>"
p44
sS'__setstate__'
p45
S'<built-in method __setstate__ of exceptions.SyntaxError object>'
p46
sS'__getattribute__'
p47
S"<method-wrapper '__getattribute__' of exceptions.SyntaxError object>"
p48
sS'print_file_and_line'
p49
S'None'
p50
sS'args'
p51
S'(\'invalid syntax\', (\'/home/marco/projects/contabilidad/web2py/applications/sueldos/views/vistas/escalas.html\', 4, 8, "response.write(\'\\\\n\', escape=False)\\n"))'
p52
sS'__subclasshook__'
p53
S'<built-in method __subclasshook__ of type object>'
p54
sS'offset'
p55
S'8'
sS'__unicode__'
p56
S'<built-in method __unicode__ of exceptions.SyntaxError object>'
p57
sS'__delattr__'
p58
S"<method-wrapper '__delattr__' of exceptions.SyntaxError object>"
p59
sS'__repr__'
p60
S"<method-wrapper '__repr__' of exceptions.SyntaxError object>"
p61
sS'__hash__'
p62
S"<method-wrapper '__hash__' of exceptions.SyntaxError object>"
p63
ssS'evalue'
p64
S'invalid syntax (escalas.html, line 4)'
p65
sS'request'
p66
ccopy_reg
_reconstructor
p67
(cgluon.html
BEAUTIFY
p68
c__builtin__
object
p69
NtRp70
(dp71
S'attributes'
p72
(dp73
sS'components'
p74
(lp75
g67
(cgluon.html
TABLE
p76
g69
NtRp77
(dp78
g72
(dp79
S'level'
p80
I5
ssS'parent'
p81
Nsg74
(lp82
g67
(cgluon.html
TR
p83
g69
NtRp84
(dp85
g72
(dp86
sg81
g77
sg74
(lp87
g67
(cgluon.html
TD
p88
g69
NtRp89
(dp90
g72
(dp91
S'_style'
p92
S'font-weight:bold;vertical-align:top'
p93
ssg81
g84
sg74
(lp94
S'ajax'
p95
asbag67
(g88
g69
NtRp96
(dp97
g72
(dp98
S'_valign'
p99
S'top'
p100
ssg81
g84
sg74
(lp101
S':'
asbag67
(g88
g69
NtRp102
(dp103
g72
(dp104
sg81
g84
sg74
(lp105
g67
(g68
g69
NtRp106
(dp107
g72
(dp108
g80
I5
ssg81
g102
sg74
(lp109
S'False'
p110
asbasbasbag67
(g83
g69
NtRp111
(dp112
g72
(dp113
sg81
g77
sg74
(lp114
g67
(g88
g69
NtRp115
(dp116
g72
(dp117
g92
g93
ssg81
g111
sg74
(lp118
S'application'
p119
asbag67
(g88
g69
NtRp120
(dp121
g72
(dp122
g99
g100
ssg81
g111
sg74
(lp123
S':'
asbag67
(g88
g69
NtRp124
(dp125
g72
(dp126
sg81
g111
sg74
(lp127
g67
(g68
g69
NtRp128
(dp129
g72
(dp130
g80
I5
ssg81
g124
sg74
(lp131
S'sueldos'
p132
asbasbasbag67
(g83
g69
NtRp133
(dp134
g72
(dp135
sg81
g77
sg74
(lp136
g67
(g88
g69
NtRp137
(dp138
g72
(dp139
g92
g93
ssg81
g133
sg74
(lp140
g51
asbag67
(g88
g69
NtRp141
(dp142
g72
(dp143
g99
g100
ssg81
g133
sg74
(lp144
S':'
asbag67
(g88
g69
NtRp145
(dp146
g72
(dp147
sg81
g133
sg74
(lp148
g67
(g68
g69
NtRp149
(dp150
g72
(dp151
g80
I5
ssg81
g145
sg74
(lp152
g67
(g76
g69
NtRp153
(dp154
g72
(dp155
g80
I4
ssg81
Nsg74
(lp156
sbasbasbasbag67
(g83
g69
NtRp157
(dp158
g72
(dp159
sg81
g77
sg74
(lp160
g67
(g88
g69
NtRp161
(dp162
g72
(dp163
g92
g93
ssg81
g157
sg74
(lp164
S'body'
p165
asbag67
(g88
g69
NtRp166
(dp167
g72
(dp168
g99
g100
ssg81
g157
sg74
(lp169
S':'
asbag67
(g88
g69
NtRp170
(dp171
g72
(dp172
sg81
g157
sg74
(lp173
g67
(g68
g69
NtRp174
(dp175
g72
(dp176
g80
I5
ssg81
g170
sg74
(lp177
S'<cStringIO.StringO object at 0x3444ae8>'
p178
asbasbasbag67
(g83
g69
NtRp179
(dp180
g72
(dp181
sg81
g77
sg74
(lp182
g67
(g88
g69
NtRp183
(dp184
g72
(dp185
g92
g93
ssg81
g179
sg74
(lp186
S'cid'
p187
asbag67
(g88
g69
NtRp188
(dp189
g72
(dp190
g99
g100
ssg81
g179
sg74
(lp191
S':'
asbag67
(g88
g69
NtRp192
(dp193
g72
(dp194
sg81
g179
sg74
(lp195
g67
(g68
g69
NtRp196
(dp197
g72
(dp198
g80
I5
ssg81
g192
sg74
(lp199
S'None'
p200
asbasbasbag67
(g83
g69
NtRp201
(dp202
g72
(dp203
sg81
g77
sg74
(lp204
g67
(g88
g69
NtRp205
(dp206
g72
(dp207
g92
g93
ssg81
g201
sg74
(lp208
S'client'
p209
asbag67
(g88
g69
NtRp210
(dp211
g72
(dp212
g99
g100
ssg81
g201
sg74
(lp213
S':'
asbag67
(g88
g69
NtRp214
(dp215
g72
(dp216
sg81
g201
sg74
(lp217
g67
(g68
g69
NtRp218
(dp219
g72
(dp220
g80
I5
ssg81
g214
sg74
(lp221
S'127.0.0.1'
p222
asbasbasbag67
(g83
g69
NtRp223
(dp224
g72
(dp225
sg81
g77
sg74
(lp226
g67
(g88
g69
NtRp227
(dp228
g72
(dp229
g92
g93
ssg81
g223
sg74
(lp230
S'controller'
p231
asbag67
(g88
g69
NtRp232
(dp233
g72
(dp234
g99
g100
ssg81
g223
sg74
(lp235
S':'
asbag67
(g88
g69
NtRp236
(dp237
g72
(dp238
sg81
g223
sg74
(lp239
g67
(g68
g69
NtRp240
(dp241
g72
(dp242
g80
I5
ssg81
g236
sg74
(lp243
S'vistas'
p244
asbasbasbag67
(g83
g69
NtRp245
(dp246
g72
(dp247
sg81
g77
sg74
(lp248
g67
(g88
g69
NtRp249
(dp250
g72
(dp251
g92
g93
ssg81
g245
sg74
(lp252
S'cookies'
p253
asbag67
(g88
g69
NtRp254
(dp255
g72
(dp256
g99
g100
ssg81
g245
sg74
(lp257
S':'
asbag67
(g88
g69
NtRp258
(dp259
g72
(dp260
sg81
g245
sg74
(lp261
g67
(g68
g69
NtRp262
(dp263
g72
(dp264
g80
I5
ssg81
g258
sg74
(lp265
g67
(g76
g69
NtRp266
(dp267
g72
(dp268
g80
I4
ssg81
Nsg74
(lp269
g67
(g83
g69
NtRp270
(dp271
g72
(dp272
sg81
g266
sg74
(lp273
g67
(g88
g69
NtRp274
(dp275
g72
(dp276
g92
g93
ssg81
g270
sg74
(lp277
S'session_id_admin'
p278
asbag67
(g88
g69
NtRp279
(dp280
g72
(dp281
g99
g100
ssg81
g270
sg74
(lp282
S':'
asbag67
(g88
g69
NtRp283
(dp284
g72
(dp285
sg81
g270
sg74
(lp286
g67
(g68
g69
NtRp287
(dp288
g72
(dp289
g80
I4
ssg81
g283
sg74
(lp290
S'127.0.0.1-02abd043-fc6c-40a0-be95-723d18a22c5d'
p291
ag67
(g76
g69
NtRp292
(dp293
g72
(dp294
g80
I3
ssg81
Nsg74
(lp295
g67
(g83
g69
NtRp296
(dp297
g72
(dp298
sg81
g292
sg74
(lp299
g67
(g88
g69
NtRp300
(dp301
g72
(dp302
g92
g93
ssg81
g296
sg74
(lp303
S'comment'
p304
asbag67
(g88
g69
NtRp305
(dp306
g72
(dp307
g99
g100
ssg81
g296
sg74
(lp308
S':'
asbag67
(g88
g69
NtRp309
(dp310
g72
(dp311
sg81
g296
sg74
(lp312
g67
(g68
g69
NtRp313
(dp314
g72
(dp315
g80
I3
ssg81
g309
sg74
(lp316
S''
asbasbasbag67
(g83
g69
NtRp317
(dp318
g72
(dp319
sg81
g292
sg74
(lp320
g67
(g88
g69
NtRp321
(dp322
g72
(dp323
g92
g93
ssg81
g317
sg74
(lp324
S'domain'
p325
asbag67
(g88
g69
NtRp326
(dp327
g72
(dp328
g99
g100
ssg81
g317
sg74
(lp329
S':'
asbag67
(g88
g69
NtRp330
(dp331
g72
(dp332
sg81
g317
sg74
(lp333
g67
(g68
g69
NtRp334
(dp335
g72
(dp336
g80
I3
ssg81
g330
sg74
(lp337
S''
asbasbasbag67
(g83
g69
NtRp338
(dp339
g72
(dp340
sg81
g292
sg74
(lp341
g67
(g88
g69
NtRp342
(dp343
g72
(dp344
g92
g93
ssg81
g338
sg74
(lp345
S'expires'
p346
asbag67
(g88
g69
NtRp347
(dp348
g72
(dp349
g99
g100
ssg81
g338
sg74
(lp350
S':'
asbag67
(g88
g69
NtRp351
(dp352
g72
(dp353
sg81
g338
sg74
(lp354
g67
(g68
g69
NtRp355
(dp356
g72
(dp357
g80
I3
ssg81
g351
sg74
(lp358
S''
asbasbasbag67
(g83
g69
NtRp359
(dp360
g72
(dp361
sg81
g292
sg74
(lp362
g67
(g88
g69
NtRp363
(dp364
g72
(dp365
g92
g93
ssg81
g359
sg74
(lp366
S'httponly'
p367
asbag67
(g88
g69
NtRp368
(dp369
g72
(dp370
g99
g100
ssg81
g359
sg74
(lp371
S':'
asbag67
(g88
g69
NtRp372
(dp373
g72
(dp374
sg81
g359
sg74
(lp375
g67
(g68
g69
NtRp376
(dp377
g72
(dp378
g80
I3
ssg81
g372
sg74
(lp379
S''
asbasbasbag67
(g83
g69
NtRp380
(dp381
g72
(dp382
sg81
g292
sg74
(lp383
g67
(g88
g69
NtRp384
(dp385
g72
(dp386
g92
g93
ssg81
g380
sg74
(lp387
S'max-age'
p388
asbag67
(g88
g69
NtRp389
(dp390
g72
(dp391
g99
g100
ssg81
g380
sg74
(lp392
S':'
asbag67
(g88
g69
NtRp393
(dp394
g72
(dp395
sg81
g380
sg74
(lp396
g67
(g68
g69
NtRp397
(dp398
g72
(dp399
g80
I3
ssg81
g393
sg74
(lp400
S''
asbasbasbag67
(g83
g69
NtRp401
(dp402
g72
(dp403
sg81
g292
sg74
(lp404
g67
(g88
g69
NtRp405
(dp406
g72
(dp407
g92
g93
ssg81
g401
sg74
(lp408
S'path'
p409
asbag67
(g88
g69
NtRp410
(dp411
g72
(dp412
g99
g100
ssg81
g401
sg74
(lp413
S':'
asbag67
(g88
g69
NtRp414
(dp415
g72
(dp416
sg81
g401
sg74
(lp417
g67
(g68
g69
NtRp418
(dp419
g72
(dp420
g80
I3
ssg81
g414
sg74
(lp421
S''
asbasbasbag67
(g83
g69
NtRp422
(dp423
g72
(dp424
sg81
g292
sg74
(lp425
g67
(g88
g69
NtRp426
(dp427
g72
(dp428
g92
g93
ssg81
g422
sg74
(lp429
S'secure'
p430
asbag67
(g88
g69
NtRp431
(dp432
g72
(dp433
g99
g100
ssg81
g422
sg74
(lp434
S':'
asbag67
(g88
g69
NtRp435
(dp436
g72
(dp437
sg81
g422
sg74
(lp438
g67
(g68
g69
NtRp439
(dp440
g72
(dp441
g80
I3
ssg81
g435
sg74
(lp442
S''
asbasbasbag67
(g83
g69
NtRp443
(dp444
g72
(dp445
sg81
g292
sg74
(lp446
g67
(g88
g69
NtRp447
(dp448
g72
(dp449
g92
g93
ssg81
g443
sg74
(lp450
S'version'
p451
asbag67
(g88
g69
NtRp452
(dp453
g72
(dp454
g99
g100
ssg81
g443
sg74
(lp455
S':'
asbag67
(g88
g69
NtRp456
(dp457
g72
(dp458
sg81
g443
sg74
(lp459
g67
(g68
g69
NtRp460
(dp461
g72
(dp462
g80
I3
ssg81
g456
sg74
(lp463
S''
asbasbasbasbasbasbasbag67
(g83
g69
NtRp464
(dp465
g72
(dp466
sg81
g266
sg74
(lp467
g67
(g88
g69
NtRp468
(dp469
g72
(dp470
g92
g93
ssg81
g464
sg74
(lp471
S'session_id_sueldos'
p472
asbag67
(g88
g69
NtRp473
(dp474
g72
(dp475
g99
g100
ssg81
g464
sg74
(lp476
S':'
asbag67
(g88
g69
NtRp477
(dp478
g72
(dp479
sg81
g464
sg74
(lp480
g67
(g68
g69
NtRp481
(dp482
g72
(dp483
g80
I4
ssg81
g477
sg74
(lp484
S'127.0.0.1-05ce4365-dc54-4394-bd3e-60890d75bc96'
p485
ag67
(g76
g69
NtRp486
(dp487
g72
(dp488
g80
I3
ssg81
Nsg74
(lp489
g67
(g83
g69
NtRp490
(dp491
g72
(dp492
sg81
g486
sg74
(lp493
g67
(g88
g69
NtRp494
(dp495
g72
(dp496
g92
g93
ssg81
g490
sg74
(lp497
g304
asbag67
(g88
g69
NtRp498
(dp499
g72
(dp500
g99
g100
ssg81
g490
sg74
(lp501
S':'
asbag67
(g88
g69
NtRp502
(dp503
g72
(dp504
sg81
g490
sg74
(lp505
g67
(g68
g69
NtRp506
(dp507
g72
(dp508
g80
I3
ssg81
g502
sg74
(lp509
S''
asbasbasbag67
(g83
g69
NtRp510
(dp511
g72
(dp512
sg81
g486
sg74
(lp513
g67
(g88
g69
NtRp514
(dp515
g72
(dp516
g92
g93
ssg81
g510
sg74
(lp517
g325
asbag67
(g88
g69
NtRp518
(dp519
g72
(dp520
g99
g100
ssg81
g510
sg74
(lp521
S':'
asbag67
(g88
g69
NtRp522
(dp523
g72
(dp524
sg81
g510
sg74
(lp525
g67
(g68
g69
NtRp526
(dp527
g72
(dp528
g80
I3
ssg81
g522
sg74
(lp529
S''
asbasbasbag67
(g83
g69
NtRp530
(dp531
g72
(dp532
sg81
g486
sg74
(lp533
g67
(g88
g69
NtRp534
(dp535
g72
(dp536
g92
g93
ssg81
g530
sg74
(lp537
g346
asbag67
(g88
g69
NtRp538
(dp539
g72
(dp540
g99
g100
ssg81
g530
sg74
(lp541
S':'
asbag67
(g88
g69
NtRp542
(dp543
g72
(dp544
sg81
g530
sg74
(lp545
g67
(g68
g69
NtRp546
(dp547
g72
(dp548
g80
I3
ssg81
g542
sg74
(lp549
S''
asbasbasbag67
(g83
g69
NtRp550
(dp551
g72
(dp552
sg81
g486
sg74
(lp553
g67
(g88
g69
NtRp554
(dp555
g72
(dp556
g92
g93
ssg81
g550
sg74
(lp557
g367
asbag67
(g88
g69
NtRp558
(dp559
g72
(dp560
g99
g100
ssg81
g550
sg74
(lp561
S':'
asbag67
(g88
g69
NtRp562
(dp563
g72
(dp564
sg81
g550
sg74
(lp565
g67
(g68
g69
NtRp566
(dp567
g72
(dp568
g80
I3
ssg81
g562
sg74
(lp569
S''
asbasbasbag67
(g83
g69
NtRp570
(dp571
g72
(dp572
sg81
g486
sg74
(lp573
g67
(g88
g69
NtRp574
(dp575
g72
(dp576
g92
g93
ssg81
g570
sg74
(lp577
g388
asbag67
(g88
g69
NtRp578
(dp579
g72
(dp580
g99
g100
ssg81
g570
sg74
(lp581
S':'
asbag67
(g88
g69
NtRp582
(dp583
g72
(dp584
sg81
g570
sg74
(lp585
g67
(g68
g69
NtRp586
(dp587
g72
(dp588
g80
I3
ssg81
g582
sg74
(lp589
S''
asbasbasbag67
(g83
g69
NtRp590
(dp591
g72
(dp592
sg81
g486
sg74
(lp593
g67
(g88
g69
NtRp594
(dp595
g72
(dp596
g92
g93
ssg81
g590
sg74
(lp597
g409
asbag67
(g88
g69
NtRp598
(dp599
g72
(dp600
g99
g100
ssg81
g590
sg74
(lp601
S':'
asbag67
(g88
g69
NtRp602
(dp603
g72
(dp604
sg81
g590
sg74
(lp605
g67
(g68
g69
NtRp606
(dp607
g72
(dp608
g80
I3
ssg81
g602
sg74
(lp609
S''
asbasbasbag67
(g83
g69
NtRp610
(dp611
g72
(dp612
sg81
g486
sg74
(lp613
g67
(g88
g69
NtRp614
(dp615
g72
(dp616
g92
g93
ssg81
g610
sg74
(lp617
g430
asbag67
(g88
g69
NtRp618
(dp619
g72
(dp620
g99
g100
ssg81
g610
sg74
(lp621
S':'
asbag67
(g88
g69
NtRp622
(dp623
g72
(dp624
sg81
g610
sg74
(lp625
g67
(g68
g69
NtRp626
(dp627
g72
(dp628
g80
I3
ssg81
g622
sg74
(lp629
S''
asbasbasbag67
(g83
g69
NtRp630
(dp631
g72
(dp632
sg81
g486
sg74
(lp633
g67
(g88
g69
NtRp634
(dp635
g72
(dp636
g92
g93
ssg81
g630
sg74
(lp637
g451
asbag67
(g88
g69
NtRp638
(dp639
g72
(dp640
g99
g100
ssg81
g630
sg74
(lp641
S':'
asbag67
(g88
g69
NtRp642
(dp643
g72
(dp644
sg81
g630
sg74
(lp645
g67
(g68
g69
NtRp646
(dp647
g72
(dp648
g80
I3
ssg81
g642
sg74
(lp649
S''
asbasbasbasbasbasbasbasbasbasbasbag67
(g83
g69
NtRp650
(dp651
g72
(dp652
sg81
g77
sg74
(lp653
g67
(g88
g69
NtRp654
(dp655
g72
(dp656
g92
g93
ssg81
g650
sg74
(lp657
S'env'
p658
asbag67
(g88
g69
NtRp659
(dp660
g72
(dp661
g99
g100
ssg81
g650
sg74
(lp662
S':'
asbag67
(g88
g69
NtRp663
(dp664
g72
(dp665
sg81
g650
sg74
(lp666
g67
(g68
g69
NtRp667
(dp668
g72
(dp669
g80
I5
ssg81
g663
sg74
(lp670
g67
(g76
g69
NtRp671
(dp672
g72
(dp673
g80
I4
ssg81
Nsg74
(lp674
g67
(g83
g69
NtRp675
(dp676
g72
(dp677
sg81
g671
sg74
(lp678
g67
(g88
g69
NtRp679
(dp680
g72
(dp681
g92
g93
ssg81
g675
sg74
(lp682
S'app_folders'
p683
asbag67
(g88
g69
NtRp684
(dp685
g72
(dp686
g99
g100
ssg81
g675
sg74
(lp687
S':'
asbag67
(g88
g69
NtRp688
(dp689
g72
(dp690
sg81
g675
sg74
(lp691
g67
(g68
g69
NtRp692
(dp693
g72
(dp694
g80
I4
ssg81
g688
sg74
(lp695
S"set(['/home/marco/projects/contabilidad/web2py/applications/admin/', '/home/marco/projects/contabilidad/web2py/applications/sueldos/'])"
p696
asbasbasbag67
(g83
g69
NtRp697
(dp698
g72
(dp699
sg81
g671
sg74
(lp700
g67
(g88
g69
NtRp701
(dp702
g72
(dp703
g92
g93
ssg81
g697
sg74
(lp704
S'applications_parent'
p705
asbag67
(g88
g69
NtRp706
(dp707
g72
(dp708
g99
g100
ssg81
g697
sg74
(lp709
S':'
asbag67
(g88
g69
NtRp710
(dp711
g72
(dp712
sg81
g697
sg74
(lp713
g67
(g68
g69
NtRp714
(dp715
g72
(dp716
g80
I4
ssg81
g710
sg74
(lp717
S'/home/marco/projects/contabilidad/web2py'
p718
asbasbasbag67
(g83
g69
NtRp719
(dp720
g72
(dp721
sg81
g671
sg74
(lp722
g67
(g88
g69
NtRp723
(dp724
g72
(dp725
g92
g93
ssg81
g719
sg74
(lp726
S'cmd_args'
p727
asbag67
(g88
g69
NtRp728
(dp729
g72
(dp730
g99
g100
ssg81
g719
sg74
(lp731
S':'
asbag67
(g88
g69
NtRp732
(dp733
g72
(dp734
sg81
g719
sg74
(lp735
g67
(g68
g69
NtRp736
(dp737
g72
(dp738
g80
I4
ssg81
g732
sg74
(lp739
g67
(g76
g69
NtRp740
(dp741
g72
(dp742
g80
I3
ssg81
Nsg74
(lp743
sbasbasbasbag67
(g83
g69
NtRp744
(dp745
g72
(dp746
sg81
g671
sg74
(lp747
g67
(g88
g69
NtRp748
(dp749
g72
(dp750
g92
g93
ssg81
g744
sg74
(lp751
S'cmd_options'
p752
asbag67
(g88
g69
NtRp753
(dp754
g72
(dp755
g99
g100
ssg81
g744
sg74
(lp756
S':'
asbag67
(g88
g69
NtRp757
(dp758
g72
(dp759
sg81
g744
sg74
(lp760
g67
(g68
g69
NtRp761
(dp762
g72
(dp763
g80
I4
ssg81
g757
sg74
(lp764
S"<Values at 0x2e6b5a8: {'verbose': False, 'ip': '127.0.0.1', 'with_scheduler': False, 'ips': [], 'shutdown_timeout': 5, 'taskbar': False, 'port': 8000, 'maxthreads': None, 'softcron': False, 'server_name': 'malena', 'bpython': False, 'nogui': False, 'pid_filename': 'httpserver.pid', 'extcron': False, 'runcron': False, 'run_system_tests': False, 'test': None, 'folder': '/home/marco/projects/contabilidad/web2py', 'config': '', 'minthreads': None, 'winservice': '', 'shell': None, 'run': '', 'log_filename': 'httpserver.log', 'debuglevel': 30, 'args': [''], 'socket_timeout': 5, 'ssl_ca_certificate': None, 'scheduler': None, 'profiler_filename': None, 'ssl_private_key': '', 'scheduler_groups': None, 'password': 'asd', 'request_queue_size': 5, 'ssl_certificate': '', 'cronjob': False, 'numthreads': None, 'quiet': False, 'interfaces': None, 'import_models': False, 'timeout': 10, 'plain': False, 'nobanner': False}>"
p765
asbasbasbag67
(g83
g69
NtRp766
(dp767
g72
(dp768
sg81
g671
sg74
(lp769
g67
(g88
g69
NtRp770
(dp771
g72
(dp772
g92
g93
ssg81
g766
sg74
(lp773
S'db_sessions'
p774
asbag67
(g88
g69
NtRp775
(dp776
g72
(dp777
g99
g100
ssg81
g766
sg74
(lp778
S':'
asbag67
(g88
g69
NtRp779
(dp780
g72
(dp781
sg81
g766
sg74
(lp782
g67
(g68
g69
NtRp783
(dp784
g72
(dp785
g80
I4
ssg81
g779
sg74
(lp786
S'set([])'
p787
asbasbasbag67
(g83
g69
NtRp788
(dp789
g72
(dp790
sg81
g671
sg74
(lp791
g67
(g88
g69
NtRp792
(dp793
g72
(dp794
g92
g93
ssg81
g788
sg74
(lp795
S'debugging'
p796
asbag67
(g88
g69
NtRp797
(dp798
g72
(dp799
g99
g100
ssg81
g788
sg74
(lp800
S':'
asbag67
(g88
g69
NtRp801
(dp802
g72
(dp803
sg81
g788
sg74
(lp804
g67
(g68
g69
NtRp805
(dp806
g72
(dp807
g80
I4
ssg81
g801
sg74
(lp808
g110
asbasbasbag67
(g83
g69
NtRp809
(dp810
g72
(dp811
sg81
g671
sg74
(lp812
g67
(g88
g69
NtRp813
(dp814
g72
(dp815
g92
g93
ssg81
g809
sg74
(lp816
S'gluon_parent'
p817
asbag67
(g88
g69
NtRp818
(dp819
g72
(dp820
g99
g100
ssg81
g809
sg74
(lp821
S':'
asbag67
(g88
g69
NtRp822
(dp823
g72
(dp824
sg81
g809
sg74
(lp825
g67
(g68
g69
NtRp826
(dp827
g72
(dp828
g80
I4
ssg81
g822
sg74
(lp829
S'/home/marco/projects/contabilidad/web2py'
p830
asbasbasbag67
(g83
g69
NtRp831
(dp832
g72
(dp833
sg81
g671
sg74
(lp834
g67
(g88
g69
NtRp835
(dp836
g72
(dp837
g92
g93
ssg81
g831
sg74
(lp838
S'http_accept'
p839
asbag67
(g88
g69
NtRp840
(dp841
g72
(dp842
g99
g100
ssg81
g831
sg74
(lp843
S':'
asbag67
(g88
g69
NtRp844
(dp845
g72
(dp846
sg81
g831
sg74
(lp847
g67
(g68
g69
NtRp848
(dp849
g72
(dp850
g80
I4
ssg81
g844
sg74
(lp851
S'text/html,application/xhtml+xml,application/xml;q=0.9,*/*;q=0.8'
p852
asbasbasbag67
(g83
g69
NtRp853
(dp854
g72
(dp855
sg81
g671
sg74
(lp856
g67
(g88
g69
NtRp857
(dp858
g72
(dp859
g92
g93
ssg81
g853
sg74
(lp860
S'http_accept_encoding'
p861
asbag67
(g88
g69
NtRp862
(dp863
g72
(dp864
g99
g100
ssg81
g853
sg74
(lp865
S':'
asbag67
(g88
g69
NtRp866
(dp867
g72
(dp868
sg81
g853
sg74
(lp869
g67
(g68
g69
NtRp870
(dp871
g72
(dp872
g80
I4
ssg81
g866
sg74
(lp873
S'gzip, deflate'
p874
asbasbasbag67
(g83
g69
NtRp875
(dp876
g72
(dp877
sg81
g671
sg74
(lp878
g67
(g88
g69
NtRp879
(dp880
g72
(dp881
g92
g93
ssg81
g875
sg74
(lp882
S'http_accept_language'
p883
asbag67
(g88
g69
NtRp884
(dp885
g72
(dp886
g99
g100
ssg81
g875
sg74
(lp887
S':'
asbag67
(g88
g69
NtRp888
(dp889
g72
(dp890
sg81
g875
sg74
(lp891
g67
(g68
g69
NtRp892
(dp893
g72
(dp894
g80
I4
ssg81
g888
sg74
(lp895
S'en-US,en;q=0.5'
p896
asbasbasbag67
(g83
g69
NtRp897
(dp898
g72
(dp899
sg81
g671
sg74
(lp900
g67
(g88
g69
NtRp901
(dp902
g72
(dp903
g92
g93
ssg81
g897
sg74
(lp904
S'http_cache_control'
p905
asbag67
(g88
g69
NtRp906
(dp907
g72
(dp908
g99
g100
ssg81
g897
sg74
(lp909
S':'
asbag67
(g88
g69
NtRp910
(dp911
g72
(dp912
sg81
g897
sg74
(lp913
g67
(g68
g69
NtRp914
(dp915
g72
(dp916
g80
I4
ssg81
g910
sg74
(lp917
S'max-age=0'
p918
asbasbasbag67
(g83
g69
NtRp919
(dp920
g72
(dp921
sg81
g671
sg74
(lp922
g67
(g88
g69
NtRp923
(dp924
g72
(dp925
g92
g93
ssg81
g919
sg74
(lp926
S'http_connection'
p927
asbag67
(g88
g69
NtRp928
(dp929
g72
(dp930
g99
g100
ssg81
g919
sg74
(lp931
S':'
asbag67
(g88
g69
NtRp932
(dp933
g72
(dp934
sg81
g919
sg74
(lp935
g67
(g68
g69
NtRp936
(dp937
g72
(dp938
g80
I4
ssg81
g932
sg74
(lp939
S'keep-alive'
p940
asbasbasbag67
(g83
g69
NtRp941
(dp942
g72
(dp943
sg81
g671
sg74
(lp944
g67
(g88
g69
NtRp945
(dp946
g72
(dp947
g92
g93
ssg81
g941
sg74
(lp948
S'http_cookie'
p949
asbag67
(g88
g69
NtRp950
(dp951
g72
(dp952
g99
g100
ssg81
g941
sg74
(lp953
S':'
asbag67
(g88
g69
NtRp954
(dp955
g72
(dp956
sg81
g941
sg74
(lp957
g67
(g68
g69
NtRp958
(dp959
g72
(dp960
g80
I4
ssg81
g954
sg74
(lp961
S'session_id_sueldos=127.0.0.1-05ce4365-dc54-4394-bd3e-60890d75bc96; session_id_admin=127.0.0.1-02abd043-fc6c-40a0-be95-723d18a22c5d'
p962
asbasbasbag67
(g83
g69
NtRp963
(dp964
g72
(dp965
sg81
g671
sg74
(lp966
g67
(g88
g69
NtRp967
(dp968
g72
(dp969
g92
g93
ssg81
g963
sg74
(lp970
S'http_host'
p971
asbag67
(g88
g69
NtRp972
(dp973
g72
(dp974
g99
g100
ssg81
g963
sg74
(lp975
S':'
asbag67
(g88
g69
NtRp976
(dp977
g72
(dp978
sg81
g963
sg74
(lp979
g67
(g68
g69
NtRp980
(dp981
g72
(dp982
g80
I4
ssg81
g976
sg74
(lp983
S'127.0.0.1:8000'
p984
asbasbasbag67
(g83
g69
NtRp985
(dp986
g72
(dp987
sg81
g671
sg74
(lp988
g67
(g88
g69
NtRp989
(dp990
g72
(dp991
g92
g93
ssg81
g985
sg74
(lp992
S'http_referer'
p993
asbag67
(g88
g69
NtRp994
(dp995
g72
(dp996
g99
g100
ssg81
g985
sg74
(lp997
S':'
asbag67
(g88
g69
NtRp998
(dp999
g72
(dp1000
sg81
g985
sg74
(lp1001
g67
(g68
g69
NtRp1002
(dp1003
g72
(dp1004
g80
I4
ssg81
g998
sg74
(lp1005
S'http://127.0.0.1:8000/sueldos/default/convenios'
p1006
asbasbasbag67
(g83
g69
NtRp1007
(dp1008
g72
(dp1009
sg81
g671
sg74
(lp1010
g67
(g88
g69
NtRp1011
(dp1012
g72
(dp1013
g92
g93
ssg81
g1007
sg74
(lp1014
S'http_user_agent'
p1015
asbag67
(g88
g69
NtRp1016
(dp1017
g72
(dp1018
g99
g100
ssg81
g1007
sg74
(lp1019
S':'
asbag67
(g88
g69
NtRp1020
(dp1021
g72
(dp1022
sg81
g1007
sg74
(lp1023
g67
(g68
g69
NtRp1024
(dp1025
g72
(dp1026
g80
I4
ssg81
g1020
sg74
(lp1027
S'Mozilla/5.0 (X11; Linux x86_64; rv:18.0) Gecko/20100101 Firefox/18.0 Iceweasel/18.0'
p1028
asbasbasbag67
(g83
g69
NtRp1029
(dp1030
g72
(dp1031
sg81
g671
sg74
(lp1032
g67
(g88
g69
NtRp1033
(dp1034
g72
(dp1035
g92
g93
ssg81
g1029
sg74
(lp1036
S'is_jython'
p1037
asbag67
(g88
g69
NtRp1038
(dp1039
g72
(dp1040
g99
g100
ssg81
g1029
sg74
(lp1041
S':'
asbag67
(g88
g69
NtRp1042
(dp1043
g72
(dp1044
sg81
g1029
sg74
(lp1045
g67
(g68
g69
NtRp1046
(dp1047
g72
(dp1048
g80
I4
ssg81
g1042
sg74
(lp1049
g110
asbasbasbag67
(g83
g69
NtRp1050
(dp1051
g72
(dp1052
sg81
g671
sg74
(lp1053
g67
(g88
g69
NtRp1054
(dp1055
g72
(dp1056
g92
g93
ssg81
g1050
sg74
(lp1057
S'is_pypy'
p1058
asbag67
(g88
g69
NtRp1059
(dp1060
g72
(dp1061
g99
g100
ssg81
g1050
sg74
(lp1062
S':'
asbag67
(g88
g69
NtRp1063
(dp1064
g72
(dp1065
sg81
g1050
sg74
(lp1066
g67
(g68
g69
NtRp1067
(dp1068
g72
(dp1069
g80
I4
ssg81
g1063
sg74
(lp1070
g110
asbasbasbag67
(g83
g69
NtRp1071
(dp1072
g72
(dp1073
sg81
g671
sg74
(lp1074
g67
(g88
g69
NtRp1075
(dp1076
g72
(dp1077
g92
g93
ssg81
g1071
sg74
(lp1078
S'local_hosts'
p1079
asbag67
(g88
g69
NtRp1080
(dp1081
g72
(dp1082
g99
g100
ssg81
g1071
sg74
(lp1083
S':'
asbag67
(g88
g69
NtRp1084
(dp1085
g72
(dp1086
sg81
g1071
sg74
(lp1087
g67
(g68
g69
NtRp1088
(dp1089
g72
(dp1090
g80
I4
ssg81
g1084
sg74
(lp1091
g67
(g76
g69
NtRp1092
(dp1093
g72
(dp1094
g80
I3
ssg81
Nsg74
(lp1095
g67
(g83
g69
NtRp1096
(dp1097
g72
(dp1098
sg81
g1092
sg74
(lp1099
g67
(g88
g69
NtRp1100
(dp1101
g72
(dp1102
sg81
g1096
sg74
(lp1103
g67
(g68
g69
NtRp1104
(dp1105
g72
(dp1106
g80
I3
ssg81
g1100
sg74
(lp1107
S'malena'
p1108
asbasbasbag67
(g83
g69
NtRp1109
(dp1110
g72
(dp1111
sg81
g1092
sg74
(lp1112
g67
(g88
g69
NtRp1113
(dp1114
g72
(dp1115
sg81
g1109
sg74
(lp1116
g67
(g68
g69
NtRp1117
(dp1118
g72
(dp1119
g80
I3
ssg81
g1113
sg74
(lp1120
S'::1'
p1121
asbasbasbag67
(g83
g69
NtRp1122
(dp1123
g72
(dp1124
sg81
g1092
sg74
(lp1125
g67
(g88
g69
NtRp1126
(dp1127
g72
(dp1128
sg81
g1122
sg74
(lp1129
g67
(g68
g69
NtRp1130
(dp1131
g72
(dp1132
g80
I3
ssg81
g1126
sg74
(lp1133
S'127.0.1.1'
p1134
asbasbasbag67
(g83
g69
NtRp1135
(dp1136
g72
(dp1137
sg81
g1092
sg74
(lp1138
g67
(g88
g69
NtRp1139
(dp1140
g72
(dp1141
sg81
g1135
sg74
(lp1142
g67
(g68
g69
NtRp1143
(dp1144
g72
(dp1145
g80
I3
ssg81
g1139
sg74
(lp1146
S'::ffff:127.0.0.1'
p1147
asbasbasbag67
(g83
g69
NtRp1148
(dp1149
g72
(dp1150
sg81
g1092
sg74
(lp1151
g67
(g88
g69
NtRp1152
(dp1153
g72
(dp1154
sg81
g1148
sg74
(lp1155
g67
(g68
g69
NtRp1156
(dp1157
g72
(dp1158
g80
I3
ssg81
g1152
sg74
(lp1159
S'127.0.0.1'
p1160
asbasbasbasbasbasbasbag67
(g83
g69
NtRp1161
(dp1162
g72
(dp1163
sg81
g671
sg74
(lp1164
g67
(g88
g69
NtRp1165
(dp1166
g72
(dp1167
g92
g93
ssg81
g1161
sg74
(lp1168
S'path_info'
p1169
asbag67
(g88
g69
NtRp1170
(dp1171
g72
(dp1172
g99
g100
ssg81
g1161
sg74
(lp1173
S':'
asbag67
(g88
g69
NtRp1174
(dp1175
g72
(dp1176
sg81
g1161
sg74
(lp1177
g67
(g68
g69
NtRp1178
(dp1179
g72
(dp1180
g80
I4
ssg81
g1174
sg74
(lp1181
S'/sueldos/vistas/escalas'
p1182
asbasbasbag67
(g83
g69
NtRp1183
(dp1184
g72
(dp1185
sg81
g671
sg74
(lp1186
g67
(g88
g69
NtRp1187
(dp1188
g72
(dp1189
g92
g93
ssg81
g1183
sg74
(lp1190
S'query_string'
p1191
asbag67
(g88
g69
NtRp1192
(dp1193
g72
(dp1194
g99
g100
ssg81
g1183
sg74
(lp1195
S':'
asbag67
(g88
g69
NtRp1196
(dp1197
g72
(dp1198
sg81
g1183
sg74
(lp1199
g67
(g68
g69
NtRp1200
(dp1201
g72
(dp1202
g80
I4
ssg81
g1196
sg74
(lp1203
S'gremio=1&sindicato=ALIMENTACI%C3%93N'
p1204
asbasbasbag67
(g83
g69
NtRp1205
(dp1206
g72
(dp1207
sg81
g671
sg74
(lp1208
g67
(g88
g69
NtRp1209
(dp1210
g72
(dp1211
g92
g93
ssg81
g1205
sg74
(lp1212
S'remote_addr'
p1213
asbag67
(g88
g69
NtRp1214
(dp1215
g72
(dp1216
g99
g100
ssg81
g1205
sg74
(lp1217
S':'
asbag67
(g88
g69
NtRp1218
(dp1219
g72
(dp1220
sg81
g1205
sg74
(lp1221
g67
(g68
g69
NtRp1222
(dp1223
g72
(dp1224
g80
I4
ssg81
g1218
sg74
(lp1225
g222
asbasbasbag67
(g83
g69
NtRp1226
(dp1227
g72
(dp1228
sg81
g671
sg74
(lp1229
g67
(g88
g69
NtRp1230
(dp1231
g72
(dp1232
g92
g93
ssg81
g1226
sg74
(lp1233
S'remote_port'
p1234
asbag67
(g88
g69
NtRp1235
(dp1236
g72
(dp1237
g99
g100
ssg81
g1226
sg74
(lp1238
S':'
asbag67
(g88
g69
NtRp1239
(dp1240
g72
(dp1241
sg81
g1226
sg74
(lp1242
g67
(g68
g69
NtRp1243
(dp1244
g72
(dp1245
g80
I4
ssg81
g1239
sg74
(lp1246
S'51428'
p1247
asbasbasbag67
(g83
g69
NtRp1248
(dp1249
g72
(dp1250
sg81
g671
sg74
(lp1251
g67
(g88
g69
NtRp1252
(dp1253
g72
(dp1254
g92
g93
ssg81
g1248
sg74
(lp1255
S'request_method'
p1256
asbag67
(g88
g69
NtRp1257
(dp1258
g72
(dp1259
g99
g100
ssg81
g1248
sg74
(lp1260
S':'
asbag67
(g88
g69
NtRp1261
(dp1262
g72
(dp1263
sg81
g1248
sg74
(lp1264
g67
(g68
g69
NtRp1265
(dp1266
g72
(dp1267
g80
I4
ssg81
g1261
sg74
(lp1268
S'GET'
p1269
asbasbasbag67
(g83
g69
NtRp1270
(dp1271
g72
(dp1272
sg81
g671
sg74
(lp1273
g67
(g88
g69
NtRp1274
(dp1275
g72
(dp1276
g92
g93
ssg81
g1270
sg74
(lp1277
S'request_uri'
p1278
asbag67
(g88
g69
NtRp1279
(dp1280
g72
(dp1281
g99
g100
ssg81
g1270
sg74
(lp1282
S':'
asbag67
(g88
g69
NtRp1283
(dp1284
g72
(dp1285
sg81
g1270
sg74
(lp1286
g67
(g68
g69
NtRp1287
(dp1288
g72
(dp1289
g80
I4
ssg81
g1283
sg74
(lp1290
S'/sueldos/vistas/escalas?gremio=1&sindicato=ALIMENTACI%C3%93N'
p1291
asbasbasbag67
(g83
g69
NtRp1292
(dp1293
g72
(dp1294
sg81
g671
sg74
(lp1295
g67
(g88
g69
NtRp1296
(dp1297
g72
(dp1298
g92
g93
ssg81
g1292
sg74
(lp1299
S'script_name'
p1300
asbag67
(g88
g69
NtRp1301
(dp1302
g72
(dp1303
g99
g100
ssg81
g1292
sg74
(lp1304
S':'
asbag67
(g88
g69
NtRp1305
(dp1306
g72
(dp1307
sg81
g1292
sg74
(lp1308
g67
(g68
g69
NtRp1309
(dp1310
g72
(dp1311
g80
I4
ssg81
g1305
sg74
(lp1312
S''
asbasbasbag67
(g83
g69
NtRp1313
(dp1314
g72
(dp1315
sg81
g671
sg74
(lp1316
g67
(g88
g69
NtRp1317
(dp1318
g72
(dp1319
g92
g93
ssg81
g1313
sg74
(lp1320
S'server_name'
p1321
asbag67
(g88
g69
NtRp1322
(dp1323
g72
(dp1324
g99
g100
ssg81
g1313
sg74
(lp1325
S':'
asbag67
(g88
g69
NtRp1326
(dp1327
g72
(dp1328
sg81
g1313
sg74
(lp1329
g67
(g68
g69
NtRp1330
(dp1331
g72
(dp1332
g80
I4
ssg81
g1326
sg74
(lp1333
S'malena'
p1334
asbasbasbag67
(g83
g69
NtRp1335
(dp1336
g72
(dp1337
sg81
g671
sg74
(lp1338
g67
(g88
g69
NtRp1339
(dp1340
g72
(dp1341
g92
g93
ssg81
g1335
sg74
(lp1342
S'server_port'
p1343
asbag67
(g88
g69
NtRp1344
(dp1345
g72
(dp1346
g99
g100
ssg81
g1335
sg74
(lp1347
S':'
asbag67
(g88
g69
NtRp1348
(dp1349
g72
(dp1350
sg81
g1335
sg74
(lp1351
g67
(g68
g69
NtRp1352
(dp1353
g72
(dp1354
g80
I4
ssg81
g1348
sg74
(lp1355
S'8000'
p1356
asbasbasbag67
(g83
g69
NtRp1357
(dp1358
g72
(dp1359
sg81
g671
sg74
(lp1360
g67
(g88
g69
NtRp1361
(dp1362
g72
(dp1363
g92
g93
ssg81
g1357
sg74
(lp1364
S'server_protocol'
p1365
asbag67
(g88
g69
NtRp1366
(dp1367
g72
(dp1368
g99
g100
ssg81
g1357
sg74
(lp1369
S':'
asbag67
(g88
g69
NtRp1370
(dp1371
g72
(dp1372
sg81
g1357
sg74
(lp1373
g67
(g68
g69
NtRp1374
(dp1375
g72
(dp1376
g80
I4
ssg81
g1370
sg74
(lp1377
S'HTTP/1.1'
p1378
asbasbasbag67
(g83
g69
NtRp1379
(dp1380
g72
(dp1381
sg81
g671
sg74
(lp1382
g67
(g88
g69
NtRp1383
(dp1384
g72
(dp1385
g92
g93
ssg81
g1379
sg74
(lp1386
S'server_software'
p1387
asbag67
(g88
g69
NtRp1388
(dp1389
g72
(dp1390
g99
g100
ssg81
g1379
sg74
(lp1391
S':'
asbag67
(g88
g69
NtRp1392
(dp1393
g72
(dp1394
sg81
g1379
sg74
(lp1395
g67
(g68
g69
NtRp1396
(dp1397
g72
(dp1398
g80
I4
ssg81
g1392
sg74
(lp1399
S'Rocket 1.2.6'
p1400
asbasbasbag67
(g83
g69
NtRp1401
(dp1402
g72
(dp1403
sg81
g671
sg74
(lp1404
g67
(g88
g69
NtRp1405
(dp1406
g72
(dp1407
g92
g93
ssg81
g1401
sg74
(lp1408
S'web2py_path'
p1409
asbag67
(g88
g69
NtRp1410
(dp1411
g72
(dp1412
g99
g100
ssg81
g1401
sg74
(lp1413
S':'
asbag67
(g88
g69
NtRp1414
(dp1415
g72
(dp1416
sg81
g1401
sg74
(lp1417
g67
(g68
g69
NtRp1418
(dp1419
g72
(dp1420
g80
I4
ssg81
g1414
sg74
(lp1421
g718
asbasbasbag67
(g83
g69
NtRp1422
(dp1423
g72
(dp1424
sg81
g671
sg74
(lp1425
g67
(g88
g69
NtRp1426
(dp1427
g72
(dp1428
g92
g93
ssg81
g1422
sg74
(lp1429
S'web2py_version'
p1430
asbag67
(g88
g69
NtRp1431
(dp1432
g72
(dp1433
g99
g100
ssg81
g1422
sg74
(lp1434
S':'
asbag67
(g88
g69
NtRp1435
(dp1436
g72
(dp1437
sg81
g1422
sg74
(lp1438
g67
(g68
g69
NtRp1439
(dp1440
g72
(dp1441
g80
I4
ssg81
g1435
sg74
(lp1442
g67
(g76
g69
NtRp1443
(dp1444
g72
(dp1445
g80
I3
ssg81
Nsg74
(lp1446
g67
(g83
g69
NtRp1447
(dp1448
g72
(dp1449
sg81
g1443
sg74
(lp1450
g67
(g88
g69
NtRp1451
(dp1452
g72
(dp1453
sg81
g1447
sg74
(lp1454
g67
(g68
g69
NtRp1455
(dp1456
g72
(dp1457
g80
I3
ssg81
g1451
sg74
(lp1458
S'2'
asbasbasbag67
(g83
g69
NtRp1459
(dp1460
g72
(dp1461
sg81
g1443
sg74
(lp1462
g67
(g88
g69
NtRp1463
(dp1464
g72
(dp1465
sg81
g1459
sg74
(lp1466
g67
(g68
g69
NtRp1467
(dp1468
g72
(dp1469
g80
I3
ssg81
g1463
sg74
(lp1470
S'4'
asbasbasbag67
(g83
g69
NtRp1471
(dp1472
g72
(dp1473
sg81
g1443
sg74
(lp1474
g67
(g88
g69
NtRp1475
(dp1476
g72
(dp1477
sg81
g1471
sg74
(lp1478
g67
(g68
g69
NtRp1479
(dp1480
g72
(dp1481
g80
I3
ssg81
g1475
sg74
(lp1482
S'1'
asbasbasbag67
(g83
g69
NtRp1483
(dp1484
g72
(dp1485
sg81
g1443
sg74
(lp1486
g67
(g88
g69
NtRp1487
(dp1488
g72
(dp1489
sg81
g1483
sg74
(lp1490
g67
(g68
g69
NtRp1491
(dp1492
g72
(dp1493
g80
I3
ssg81
g1487
sg74
(lp1494
S'alpha.2'
p1495
asbasbasbag67
(g83
g69
NtRp1496
(dp1497
g72
(dp1498
sg81
g1443
sg74
(lp1499
g67
(g88
g69
NtRp1500
(dp1501
g72
(dp1502
sg81
g1496
sg74
(lp1503
g67
(g68
g69
NtRp1504
(dp1505
g72
(dp1506
g80
I3
ssg81
g1500
sg74
(lp1507
S'datetime.datetime(2013, 1, 10, 21, 26, 18)'
p1508
asbasbasbasbasbasbasbag67
(g83
g69
NtRp1509
(dp1510
g72
(dp1511
sg81
g671
sg74
(lp1512
g67
(g88
g69
NtRp1513
(dp1514
g72
(dp1515
g92
g93
ssg81
g1509
sg74
(lp1516
S'wsgi_errors'
p1517
asbag67
(g88
g69
NtRp1518
(dp1519
g72
(dp1520
g99
g100
ssg81
g1509
sg74
(lp1521
S':'
asbag67
(g88
g69
NtRp1522
(dp1523
g72
(dp1524
sg81
g1509
sg74
(lp1525
g67
(g68
g69
NtRp1526
(dp1527
g72
(dp1528
g80
I4
ssg81
g1522
sg74
(lp1529
S"<open file '<stderr>', mode 'w' at 0x7fa88a0fa270>"
p1530
asbasbasbag67
(g83
g69
NtRp1531
(dp1532
g72
(dp1533
sg81
g671
sg74
(lp1534
g67
(g88
g69
NtRp1535
(dp1536
g72
(dp1537
g92
g93
ssg81
g1531
sg74
(lp1538
S'wsgi_file_wrapper'
p1539
asbag67
(g88
g69
NtRp1540
(dp1541
g72
(dp1542
g99
g100
ssg81
g1531
sg74
(lp1543
S':'
asbag67
(g88
g69
NtRp1544
(dp1545
g72
(dp1546
sg81
g1531
sg74
(lp1547
g67
(g68
g69
NtRp1548
(dp1549
g72
(dp1550
g80
I4
ssg81
g1544
sg74
(lp1551
S'<class wsgiref.util.FileWrapper at 0x2dd24c8>'
p1552
asbasbasbag67
(g83
g69
NtRp1553
(dp1554
g72
(dp1555
sg81
g671
sg74
(lp1556
g67
(g88
g69
NtRp1557
(dp1558
g72
(dp1559
g92
g93
ssg81
g1553
sg74
(lp1560
S'wsgi_input'
p1561
asbag67
(g88
g69
NtRp1562
(dp1563
g72
(dp1564
g99
g100
ssg81
g1553
sg74
(lp1565
S':'
asbag67
(g88
g69
NtRp1566
(dp1567
g72
(dp1568
sg81
g1553
sg74
(lp1569
g67
(g68
g69
NtRp1570
(dp1571
g72
(dp1572
g80
I4
ssg81
g1566
sg74
(lp1573
S'<socket._fileobject object at 0x3b8c0d0>'
p1574
asbasbasbag67
(g83
g69
NtRp1575
(dp1576
g72
(dp1577
sg81
g671
sg74
(lp1578
g67
(g88
g69
NtRp1579
(dp1580
g72
(dp1581
g92
g93
ssg81
g1575
sg74
(lp1582
S'wsgi_multiprocess'
p1583
asbag67
(g88
g69
NtRp1584
(dp1585
g72
(dp1586
g99
g100
ssg81
g1575
sg74
(lp1587
S':'
asbag67
(g88
g69
NtRp1588
(dp1589
g72
(dp1590
sg81
g1575
sg74
(lp1591
g67
(g68
g69
NtRp1592
(dp1593
g72
(dp1594
g80
I4
ssg81
g1588
sg74
(lp1595
g110
asbasbasbag67
(g83
g69
NtRp1596
(dp1597
g72
(dp1598
sg81
g671
sg74
(lp1599
g67
(g88
g69
NtRp1600
(dp1601
g72
(dp1602
g92
g93
ssg81
g1596
sg74
(lp1603
S'wsgi_multithread'
p1604
asbag67
(g88
g69
NtRp1605
(dp1606
g72
(dp1607
g99
g100
ssg81
g1596
sg74
(lp1608
S':'
asbag67
(g88
g69
NtRp1609
(dp1610
g72
(dp1611
sg81
g1596
sg74
(lp1612
g67
(g68
g69
NtRp1613
(dp1614
g72
(dp1615
g80
I4
ssg81
g1609
sg74
(lp1616
S'True'
p1617
asbasbasbag67
(g83
g69
NtRp1618
(dp1619
g72
(dp1620
sg81
g671
sg74
(lp1621
g67
(g88
g69
NtRp1622
(dp1623
g72
(dp1624
g92
g93
ssg81
g1618
sg74
(lp1625
S'wsgi_run_once'
p1626
asbag67
(g88
g69
NtRp1627
(dp1628
g72
(dp1629
g99
g100
ssg81
g1618
sg74
(lp1630
S':'
asbag67
(g88
g69
NtRp1631
(dp1632
g72
(dp1633
sg81
g1618
sg74
(lp1634
g67
(g68
g69
NtRp1635
(dp1636
g72
(dp1637
g80
I4
ssg81
g1631
sg74
(lp1638
g110
asbasbasbag67
(g83
g69
NtRp1639
(dp1640
g72
(dp1641
sg81
g671
sg74
(lp1642
g67
(g88
g69
NtRp1643
(dp1644
g72
(dp1645
g92
g93
ssg81
g1639
sg74
(lp1646
S'wsgi_url_scheme'
p1647
asbag67
(g88
g69
NtRp1648
(dp1649
g72
(dp1650
g99
g100
ssg81
g1639
sg74
(lp1651
S':'
asbag67
(g88
g69
NtRp1652
(dp1653
g72
(dp1654
sg81
g1639
sg74
(lp1655
g67
(g68
g69
NtRp1656
(dp1657
g72
(dp1658
g80
I4
ssg81
g1652
sg74
(lp1659
S'http'
p1660
asbasbasbag67
(g83
g69
NtRp1661
(dp1662
g72
(dp1663
sg81
g671
sg74
(lp1664
g67
(g88
g69
NtRp1665
(dp1666
g72
(dp1667
g92
g93
ssg81
g1661
sg74
(lp1668
S'wsgi_version'
p1669
asbag67
(g88
g69
NtRp1670
(dp1671
g72
(dp1672
g99
g100
ssg81
g1661
sg74
(lp1673
S':'
asbag67
(g88
g69
NtRp1674
(dp1675
g72
(dp1676
sg81
g1661
sg74
(lp1677
g67
(g68
g69
NtRp1678
(dp1679
g72
(dp1680
g80
I4
ssg81
g1674
sg74
(lp1681
g67
(g76
g69
NtRp1682
(dp1683
g72
(dp1684
g80
I3
ssg81
Nsg74
(lp1685
g67
(g83
g69
NtRp1686
(dp1687
g72
(dp1688
sg81
g1682
sg74
(lp1689
g67
(g88
g69
NtRp1690
(dp1691
g72
(dp1692
sg81
g1686
sg74
(lp1693
g67
(g68
g69
NtRp1694
(dp1695
g72
(dp1696
g80
I3
ssg81
g1690
sg74
(lp1697
S'1'
asbasbasbag67
(g83
g69
NtRp1698
(dp1699
g72
(dp1700
sg81
g1682
sg74
(lp1701
g67
(g88
g69
NtRp1702
(dp1703
g72
(dp1704
sg81
g1698
sg74
(lp1705
g67
(g68
g69
NtRp1706
(dp1707
g72
(dp1708
g80
I3
ssg81
g1702
sg74
(lp1709
S'0'
asbasbasbasbasbasbasbasbasbasbasbag67
(g83
g69
NtRp1710
(dp1711
g72
(dp1712
sg81
g77
sg74
(lp1713
g67
(g88
g69
NtRp1714
(dp1715
g72
(dp1716
g92
g93
ssg81
g1710
sg74
(lp1717
S'extension'
p1718
asbag67
(g88
g69
NtRp1719
(dp1720
g72
(dp1721
g99
g100
ssg81
g1710
sg74
(lp1722
S':'
asbag67
(g88
g69
NtRp1723
(dp1724
g72
(dp1725
sg81
g1710
sg74
(lp1726
g67
(g68
g69
NtRp1727
(dp1728
g72
(dp1729
g80
I5
ssg81
g1723
sg74
(lp1730
S'html'
p1731
asbasbasbag67
(g83
g69
NtRp1732
(dp1733
g72
(dp1734
sg81
g77
sg74
(lp1735
g67
(g88
g69
NtRp1736
(dp1737
g72
(dp1738
g92
g93
ssg81
g1732
sg74
(lp1739
S'folder'
p1740
asbag67
(g88
g69
NtRp1741
(dp1742
g72
(dp1743
g99
g100
ssg81
g1732
sg74
(lp1744
S':'
asbag67
(g88
g69
NtRp1745
(dp1746
g72
(dp1747
sg81
g1732
sg74
(lp1748
g67
(g68
g69
NtRp1749
(dp1750
g72
(dp1751
g80
I5
ssg81
g1745
sg74
(lp1752
S'/home/marco/projects/contabilidad/web2py/applications/sueldos/'
p1753
asbasbasbag67
(g83
g69
NtRp1754
(dp1755
g72
(dp1756
sg81
g77
sg74
(lp1757
g67
(g88
g69
NtRp1758
(dp1759
g72
(dp1760
g92
g93
ssg81
g1754
sg74
(lp1761
S'function'
p1762
asbag67
(g88
g69
NtRp1763
(dp1764
g72
(dp1765
g99
g100
ssg81
g1754
sg74
(lp1766
S':'
asbag67
(g88
g69
NtRp1767
(dp1768
g72
(dp1769
sg81
g1754
sg74
(lp1770
g67
(g68
g69
NtRp1771
(dp1772
g72
(dp1773
g80
I5
ssg81
g1767
sg74
(lp1774
S'escalas'
p1775
asbasbasbag67
(g83
g69
NtRp1776
(dp1777
g72
(dp1778
sg81
g77
sg74
(lp1779
g67
(g88
g69
NtRp1780
(dp1781
g72
(dp1782
g92
g93
ssg81
g1776
sg74
(lp1783
S'get_vars'
p1784
asbag67
(g88
g69
NtRp1785
(dp1786
g72
(dp1787
g99
g100
ssg81
g1776
sg74
(lp1788
S':'
asbag67
(g88
g69
NtRp1789
(dp1790
g72
(dp1791
sg81
g1776
sg74
(lp1792
g67
(g68
g69
NtRp1793
(dp1794
g72
(dp1795
g80
I5
ssg81
g1789
sg74
(lp1796
g67
(g76
g69
NtRp1797
(dp1798
g72
(dp1799
g80
I4
ssg81
Nsg74
(lp1800
g67
(g83
g69
NtRp1801
(dp1802
g72
(dp1803
sg81
g1797
sg74
(lp1804
g67
(g88
g69
NtRp1805
(dp1806
g72
(dp1807
g92
g93
ssg81
g1801
sg74
(lp1808
S'gremio'
p1809
asbag67
(g88
g69
NtRp1810
(dp1811
g72
(dp1812
g99
g100
ssg81
g1801
sg74
(lp1813
S':'
asbag67
(g88
g69
NtRp1814
(dp1815
g72
(dp1816
sg81
g1801
sg74
(lp1817
g67
(g68
g69
NtRp1818
(dp1819
g72
(dp1820
g80
I4
ssg81
g1814
sg74
(lp1821
S'1'
asbasbasbag67
(g83
g69
NtRp1822
(dp1823
g72
(dp1824
sg81
g1797
sg74
(lp1825
g67
(g88
g69
NtRp1826
(dp1827
g72
(dp1828
g92
g93
ssg81
g1822
sg74
(lp1829
S'sindicato'
p1830
asbag67
(g88
g69
NtRp1831
(dp1832
g72
(dp1833
g99
g100
ssg81
g1822
sg74
(lp1834
S':'
asbag67
(g88
g69
NtRp1835
(dp1836
g72
(dp1837
sg81
g1822
sg74
(lp1838
g67
(g68
g69
NtRp1839
(dp1840
g72
(dp1841
g80
I4
ssg81
g1835
sg74
(lp1842
S'ALIMENTACI\xc3\x93N'
p1843
asbasbasbasbasbasbasbag67
(g83
g69
NtRp1844
(dp1845
g72
(dp1846
sg81
g77
sg74
(lp1847
g67
(g88
g69
NtRp1848
(dp1849
g72
(dp1850
g92
g93
ssg81
g1844
sg74
(lp1851
S'global_settings'
p1852
asbag67
(g88
g69
NtRp1853
(dp1854
g72
(dp1855
g99
g100
ssg81
g1844
sg74
(lp1856
S':'
asbag67
(g88
g69
NtRp1857
(dp1858
g72
(dp1859
sg81
g1844
sg74
(lp1860
g67
(g68
g69
NtRp1861
(dp1862
g72
(dp1863
g80
I5
ssg81
g1857
sg74
(lp1864
g67
(g76
g69
NtRp1865
(dp1866
g72
(dp1867
g80
I4
ssg81
Nsg74
(lp1868
g67
(g83
g69
NtRp1869
(dp1870
g72
(dp1871
sg81
g1865
sg74
(lp1872
g67
(g88
g69
NtRp1873
(dp1874
g72
(dp1875
g92
g93
ssg81
g1869
sg74
(lp1876
g683
asbag67
(g88
g69
NtRp1877
(dp1878
g72
(dp1879
g99
g100
ssg81
g1869
sg74
(lp1880
S':'
asbag67
(g88
g69
NtRp1881
(dp1882
g72
(dp1883
sg81
g1869
sg74
(lp1884
g67
(g68
g69
NtRp1885
(dp1886
g72
(dp1887
g80
I4
ssg81
g1881
sg74
(lp1888
S"set(['/home/marco/projects/contabilidad/web2py/applications/admin/', '/home/marco/projects/contabilidad/web2py/applications/sueldos/'])"
p1889
asbasbasbag67
(g83
g69
NtRp1890
(dp1891
g72
(dp1892
sg81
g1865
sg74
(lp1893
g67
(g88
g69
NtRp1894
(dp1895
g72
(dp1896
g92
g93
ssg81
g1890
sg74
(lp1897
g705
asbag67
(g88
g69
NtRp1898
(dp1899
g72
(dp1900
g99
g100
ssg81
g1890
sg74
(lp1901
S':'
asbag67
(g88
g69
NtRp1902
(dp1903
g72
(dp1904
sg81
g1890
sg74
(lp1905
g67
(g68
g69
NtRp1906
(dp1907
g72
(dp1908
g80
I4
ssg81
g1902
sg74
(lp1909
g718
asbasbasbag67
(g83
g69
NtRp1910
(dp1911
g72
(dp1912
sg81
g1865
sg74
(lp1913
g67
(g88
g69
NtRp1914
(dp1915
g72
(dp1916
g92
g93
ssg81
g1910
sg74
(lp1917
g727
asbag67
(g88
g69
NtRp1918
(dp1919
g72
(dp1920
g99
g100
ssg81
g1910
sg74
(lp1921
S':'
asbag67
(g88
g69
NtRp1922
(dp1923
g72
(dp1924
sg81
g1910
sg74
(lp1925
g67
(g68
g69
NtRp1926
(dp1927
g72
(dp1928
g80
I4
ssg81
g1922
sg74
(lp1929
g67
(g76
g69
NtRp1930
(dp1931
g72
(dp1932
g80
I3
ssg81
Nsg74
(lp1933
sbasbasbasbag67
(g83
g69
NtRp1934
(dp1935
g72
(dp1936
sg81
g1865
sg74
(lp1937
g67
(g88
g69
NtRp1938
(dp1939
g72
(dp1940
g92
g93
ssg81
g1934
sg74
(lp1941
g752
asbag67
(g88
g69
NtRp1942
(dp1943
g72
(dp1944
g99
g100
ssg81
g1934
sg74
(lp1945
S':'
asbag67
(g88
g69
NtRp1946
(dp1947
g72
(dp1948
sg81
g1934
sg74
(lp1949
g67
(g68
g69
NtRp1950
(dp1951
g72
(dp1952
g80
I4
ssg81
g1946
sg74
(lp1953
S"<Values at 0x2e6b5a8: {'verbose': False, 'ip': '127.0.0.1', 'with_scheduler': False, 'ips': [], 'shutdown_timeout': 5, 'taskbar': False, 'port': 8000, 'maxthreads': None, 'softcron': False, 'server_name': 'malena', 'bpython': False, 'nogui': False, 'pid_filename': 'httpserver.pid', 'extcron': False, 'runcron': False, 'run_system_tests': False, 'test': None, 'folder': '/home/marco/projects/contabilidad/web2py', 'config': '', 'minthreads': None, 'winservice': '', 'shell': None, 'run': '', 'log_filename': 'httpserver.log', 'debuglevel': 30, 'args': [''], 'socket_timeout': 5, 'ssl_ca_certificate': None, 'scheduler': None, 'profiler_filename': None, 'ssl_private_key': '', 'scheduler_groups': None, 'password': 'asd', 'request_queue_size': 5, 'ssl_certificate': '', 'cronjob': False, 'numthreads': None, 'quiet': False, 'interfaces': None, 'import_models': False, 'timeout': 10, 'plain': False, 'nobanner': False}>"
p1954
asbasbasbag67
(g83
g69
NtRp1955
(dp1956
g72
(dp1957
sg81
g1865
sg74
(lp1958
g67
(g88
g69
NtRp1959
(dp1960
g72
(dp1961
g92
g93
ssg81
g1955
sg74
(lp1962
g774
asbag67
(g88
g69
NtRp1963
(dp1964
g72
(dp1965
g99
g100
ssg81
g1955
sg74
(lp1966
S':'
asbag67
(g88
g69
NtRp1967
(dp1968
g72
(dp1969
sg81
g1955
sg74
(lp1970
g67
(g68
g69
NtRp1971
(dp1972
g72
(dp1973
g80
I4
ssg81
g1967
sg74
(lp1974
S'set([])'
p1975
asbasbasbag67
(g83
g69
NtRp1976
(dp1977
g72
(dp1978
sg81
g1865
sg74
(lp1979
g67
(g88
g69
NtRp1980
(dp1981
g72
(dp1982
g92
g93
ssg81
g1976
sg74
(lp1983
g796
asbag67
(g88
g69
NtRp1984
(dp1985
g72
(dp1986
g99
g100
ssg81
g1976
sg74
(lp1987
S':'
asbag67
(g88
g69
NtRp1988
(dp1989
g72
(dp1990
sg81
g1976
sg74
(lp1991
g67
(g68
g69
NtRp1992
(dp1993
g72
(dp1994
g80
I4
ssg81
g1988
sg74
(lp1995
g110
asbasbasbag67
(g83
g69
NtRp1996
(dp1997
g72
(dp1998
sg81
g1865
sg74
(lp1999
g67
(g88
g69
NtRp2000
(dp2001
g72
(dp2002
g92
g93
ssg81
g1996
sg74
(lp2003
g817
asbag67
(g88
g69
NtRp2004
(dp2005
g72
(dp2006
g99
g100
ssg81
g1996
sg74
(lp2007
S':'
asbag67
(g88
g69
NtRp2008
(dp2009
g72
(dp2010
sg81
g1996
sg74
(lp2011
g67
(g68
g69
NtRp2012
(dp2013
g72
(dp2014
g80
I4
ssg81
g2008
sg74
(lp2015
g830
asbasbasbag67
(g83
g69
NtRp2016
(dp2017
g72
(dp2018
sg81
g1865
sg74
(lp2019
g67
(g88
g69
NtRp2020
(dp2021
g72
(dp2022
g92
g93
ssg81
g2016
sg74
(lp2023
g1037
asbag67
(g88
g69
NtRp2024
(dp2025
g72
(dp2026
g99
g100
ssg81
g2016
sg74
(lp2027
S':'
asbag67
(g88
g69
NtRp2028
(dp2029
g72
(dp2030
sg81
g2016
sg74
(lp2031
g67
(g68
g69
NtRp2032
(dp2033
g72
(dp2034
g80
I4
ssg81
g2028
sg74
(lp2035
g110
asbasbasbag67
(g83
g69
NtRp2036
(dp2037
g72
(dp2038
sg81
g1865
sg74
(lp2039
g67
(g88
g69
NtRp2040
(dp2041
g72
(dp2042
g92
g93
ssg81
g2036
sg74
(lp2043
g1058
asbag67
(g88
g69
NtRp2044
(dp2045
g72
(dp2046
g99
g100
ssg81
g2036
sg74
(lp2047
S':'
asbag67
(g88
g69
NtRp2048
(dp2049
g72
(dp2050
sg81
g2036
sg74
(lp2051
g67
(g68
g69
NtRp2052
(dp2053
g72
(dp2054
g80
I4
ssg81
g2048
sg74
(lp2055
g110
asbasbasbag67
(g83
g69
NtRp2056
(dp2057
g72
(dp2058
sg81
g1865
sg74
(lp2059
g67
(g88
g69
NtRp2060
(dp2061
g72
(dp2062
g92
g93
ssg81
g2056
sg74
(lp2063
g1079
asbag67
(g88
g69
NtRp2064
(dp2065
g72
(dp2066
g99
g100
ssg81
g2056
sg74
(lp2067
S':'
asbag67
(g88
g69
NtRp2068
(dp2069
g72
(dp2070
sg81
g2056
sg74
(lp2071
g67
(g68
g69
NtRp2072
(dp2073
g72
(dp2074
g80
I4
ssg81
g2068
sg74
(lp2075
g67
(g76
g69
NtRp2076
(dp2077
g72
(dp2078
g80
I3
ssg81
Nsg74
(lp2079
g67
(g83
g69
NtRp2080
(dp2081
g72
(dp2082
sg81
g2076
sg74
(lp2083
g67
(g88
g69
NtRp2084
(dp2085
g72
(dp2086
sg81
g2080
sg74
(lp2087
g67
(g68
g69
NtRp2088
(dp2089
g72
(dp2090
g80
I3
ssg81
g2084
sg74
(lp2091
g1108
asbasbasbag67
(g83
g69
NtRp2092
(dp2093
g72
(dp2094
sg81
g2076
sg74
(lp2095
g67
(g88
g69
NtRp2096
(dp2097
g72
(dp2098
sg81
g2092
sg74
(lp2099
g67
(g68
g69
NtRp2100
(dp2101
g72
(dp2102
g80
I3
ssg81
g2096
sg74
(lp2103
g1121
asbasbasbag67
(g83
g69
NtRp2104
(dp2105
g72
(dp2106
sg81
g2076
sg74
(lp2107
g67
(g88
g69
NtRp2108
(dp2109
g72
(dp2110
sg81
g2104
sg74
(lp2111
g67
(g68
g69
NtRp2112
(dp2113
g72
(dp2114
g80
I3
ssg81
g2108
sg74
(lp2115
g1134
asbasbasbag67
(g83
g69
NtRp2116
(dp2117
g72
(dp2118
sg81
g2076
sg74
(lp2119
g67
(g88
g69
NtRp2120
(dp2121
g72
(dp2122
sg81
g2116
sg74
(lp2123
g67
(g68
g69
NtRp2124
(dp2125
g72
(dp2126
g80
I3
ssg81
g2120
sg74
(lp2127
g1147
asbasbasbag67
(g83
g69
NtRp2128
(dp2129
g72
(dp2130
sg81
g2076
sg74
(lp2131
g67
(g88
g69
NtRp2132
(dp2133
g72
(dp2134
sg81
g2128
sg74
(lp2135
g67
(g68
g69
NtRp2136
(dp2137
g72
(dp2138
g80
I3
ssg81
g2132
sg74
(lp2139
g1160
asbasbasbasbasbasbasbag67
(g83
g69
NtRp2140
(dp2141
g72
(dp2142
sg81
g1865
sg74
(lp2143
g67
(g88
g69
NtRp2144
(dp2145
g72
(dp2146
g92
g93
ssg81
g2140
sg74
(lp2147
g1430
asbag67
(g88
g69
NtRp2148
(dp2149
g72
(dp2150
g99
g100
ssg81
g2140
sg74
(lp2151
S':'
asbag67
(g88
g69
NtRp2152
(dp2153
g72
(dp2154
sg81
g2140
sg74
(lp2155
g67
(g68
g69
NtRp2156
(dp2157
g72
(dp2158
g80
I4
ssg81
g2152
sg74
(lp2159
g67
(g76
g69
NtRp2160
(dp2161
g72
(dp2162
g80
I3
ssg81
Nsg74
(lp2163
g67
(g83
g69
NtRp2164
(dp2165
g72
(dp2166
sg81
g2160
sg74
(lp2167
g67
(g88
g69
NtRp2168
(dp2169
g72
(dp2170
sg81
g2164
sg74
(lp2171
g67
(g68
g69
NtRp2172
(dp2173
g72
(dp2174
g80
I3
ssg81
g2168
sg74
(lp2175
S'2'
asbasbasbag67
(g83
g69
NtRp2176
(dp2177
g72
(dp2178
sg81
g2160
sg74
(lp2179
g67
(g88
g69
NtRp2180
(dp2181
g72
(dp2182
sg81
g2176
sg74
(lp2183
g67
(g68
g69
NtRp2184
(dp2185
g72
(dp2186
g80
I3
ssg81
g2180
sg74
(lp2187
S'4'
asbasbasbag67
(g83
g69
NtRp2188
(dp2189
g72
(dp2190
sg81
g2160
sg74
(lp2191
g67
(g88
g69
NtRp2192
(dp2193
g72
(dp2194
sg81
g2188
sg74
(lp2195
g67
(g68
g69
NtRp2196
(dp2197
g72
(dp2198
g80
I3
ssg81
g2192
sg74
(lp2199
S'1'
asbasbasbag67
(g83
g69
NtRp2200
(dp2201
g72
(dp2202
sg81
g2160
sg74
(lp2203
g67
(g88
g69
NtRp2204
(dp2205
g72
(dp2206
sg81
g2200
sg74
(lp2207
g67
(g68
g69
NtRp2208
(dp2209
g72
(dp2210
g80
I3
ssg81
g2204
sg74
(lp2211
g1495
asbasbasbag67
(g83
g69
NtRp2212
(dp2213
g72
(dp2214
sg81
g2160
sg74
(lp2215
g67
(g88
g69
NtRp2216
(dp2217
g72
(dp2218
sg81
g2212
sg74
(lp2219
g67
(g68
g69
NtRp2220
(dp2221
g72
(dp2222
g80
I3
ssg81
g2216
sg74
(lp2223
S'datetime.datetime(2013, 1, 10, 21, 26, 18)'
p2224
asbasbasbasbasbasbasbasbasbasbasbag67
(g83
g69
NtRp2225
(dp2226
g72
(dp2227
sg81
g77
sg74
(lp2228
g67
(g88
g69
NtRp2229
(dp2230
g72
(dp2231
g92
g93
ssg81
g2225
sg74
(lp2232
S'is_https'
p2233
asbag67
(g88
g69
NtRp2234
(dp2235
g72
(dp2236
g99
g100
ssg81
g2225
sg74
(lp2237
S':'
asbag67
(g88
g69
NtRp2238
(dp2239
g72
(dp2240
sg81
g2225
sg74
(lp2241
g67
(g68
g69
NtRp2242
(dp2243
g72
(dp2244
g80
I5
ssg81
g2238
sg74
(lp2245
g110
asbasbasbag67
(g83
g69
NtRp2246
(dp2247
g72
(dp2248
sg81
g77
sg74
(lp2249
g67
(g88
g69
NtRp2250
(dp2251
g72
(dp2252
g92
g93
ssg81
g2246
sg74
(lp2253
S'is_local'
p2254
asbag67
(g88
g69
NtRp2255
(dp2256
g72
(dp2257
g99
g100
ssg81
g2246
sg74
(lp2258
S':'
asbag67
(g88
g69
NtRp2259
(dp2260
g72
(dp2261
sg81
g2246
sg74
(lp2262
g67
(g68
g69
NtRp2263
(dp2264
g72
(dp2265
g80
I5
ssg81
g2259
sg74
(lp2266
g1617
asbasbasbag67
(g83
g69
NtRp2267
(dp2268
g72
(dp2269
sg81
g77
sg74
(lp2270
g67
(g88
g69
NtRp2271
(dp2272
g72
(dp2273
g92
g93
ssg81
g2267
sg74
(lp2274
S'is_restful'
p2275
asbag67
(g88
g69
NtRp2276
(dp2277
g72
(dp2278
g99
g100
ssg81
g2267
sg74
(lp2279
S':'
asbag67
(g88
g69
NtRp2280
(dp2281
g72
(dp2282
sg81
g2267
sg74
(lp2283
g67
(g68
g69
NtRp2284
(dp2285
g72
(dp2286
g80
I5
ssg81
g2280
sg74
(lp2287
g110
asbasbasbag67
(g83
g69
NtRp2288
(dp2289
g72
(dp2290
sg81
g77
sg74
(lp2291
g67
(g88
g69
NtRp2292
(dp2293
g72
(dp2294
g92
g93
ssg81
g2288
sg74
(lp2295
S'now'
p2296
asbag67
(g88
g69
NtRp2297
(dp2298
g72
(dp2299
g99
g100
ssg81
g2288
sg74
(lp2300
S':'
asbag67
(g88
g69
NtRp2301
(dp2302
g72
(dp2303
sg81
g2288
sg74
(lp2304
g67
(g68
g69
NtRp2305
(dp2306
g72
(dp2307
g80
I5
ssg81
g2301
sg74
(lp2308
S'datetime.datetime(2013, 1, 22, 16, 13, 59, 380984)'
p2309
asbasbasbag67
(g83
g69
NtRp2310
(dp2311
g72
(dp2312
sg81
g77
sg74
(lp2313
g67
(g88
g69
NtRp2314
(dp2315
g72
(dp2316
g92
g93
ssg81
g2310
sg74
(lp2317
S'post_vars'
p2318
asbag67
(g88
g69
NtRp2319
(dp2320
g72
(dp2321
g99
g100
ssg81
g2310
sg74
(lp2322
S':'
asbag67
(g88
g69
NtRp2323
(dp2324
g72
(dp2325
sg81
g2310
sg74
(lp2326
g67
(g68
g69
NtRp2327
(dp2328
g72
(dp2329
g80
I5
ssg81
g2323
sg74
(lp2330
g67
(g76
g69
NtRp2331
(dp2332
g72
(dp2333
g80
I4
ssg81
Nsg74
(lp2334
sbasbasbasbag67
(g83
g69
NtRp2335
(dp2336
g72
(dp2337
sg81
g77
sg74
(lp2338
g67
(g88
g69
NtRp2339
(dp2340
g72
(dp2341
g92
g93
ssg81
g2335
sg74
(lp2342
S'raw_args'
p2343
asbag67
(g88
g69
NtRp2344
(dp2345
g72
(dp2346
g99
g100
ssg81
g2335
sg74
(lp2347
S':'
asbag67
(g88
g69
NtRp2348
(dp2349
g72
(dp2350
sg81
g2335
sg74
(lp2351
g67
(g68
g69
NtRp2352
(dp2353
g72
(dp2354
g80
I5
ssg81
g2348
sg74
(lp2355
S''
asbasbasbag67
(g83
g69
NtRp2356
(dp2357
g72
(dp2358
sg81
g77
sg74
(lp2359
g67
(g88
g69
NtRp2360
(dp2361
g72
(dp2362
g92
g93
ssg81
g2356
sg74
(lp2363
S'raw_extension'
p2364
asbag67
(g88
g69
NtRp2365
(dp2366
g72
(dp2367
g99
g100
ssg81
g2356
sg74
(lp2368
S':'
asbag67
(g88
g69
NtRp2369
(dp2370
g72
(dp2371
sg81
g2356
sg74
(lp2372
g67
(g68
g69
NtRp2373
(dp2374
g72
(dp2375
g80
I5
ssg81
g2369
sg74
(lp2376
S'None'
p2377
asbasbasbag67
(g83
g69
NtRp2378
(dp2379
g72
(dp2380
sg81
g77
sg74
(lp2381
g67
(g88
g69
NtRp2382
(dp2383
g72
(dp2384
g92
g93
ssg81
g2378
sg74
(lp2385
S'url'
p2386
asbag67
(g88
g69
NtRp2387
(dp2388
g72
(dp2389
g99
g100
ssg81
g2378
sg74
(lp2390
S':'
asbag67
(g88
g69
NtRp2391
(dp2392
g72
(dp2393
sg81
g2378
sg74
(lp2394
g67
(g68
g69
NtRp2395
(dp2396
g72
(dp2397
g80
I5
ssg81
g2391
sg74
(lp2398
g1182
asbasbasbag67
(g83
g69
NtRp2399
(dp2400
g72
(dp2401
sg81
g77
sg74
(lp2402
g67
(g88
g69
NtRp2403
(dp2404
g72
(dp2405
g92
g93
ssg81
g2399
sg74
(lp2406
S'utcnow'
p2407
asbag67
(g88
g69
NtRp2408
(dp2409
g72
(dp2410
g99
g100
ssg81
g2399
sg74
(lp2411
S':'
asbag67
(g88
g69
NtRp2412
(dp2413
g72
(dp2414
sg81
g2399
sg74
(lp2415
g67
(g68
g69
NtRp2416
(dp2417
g72
(dp2418
g80
I5
ssg81
g2412
sg74
(lp2419
S'datetime.datetime(2013, 1, 22, 19, 13, 59, 381017)'
p2420
asbasbasbag67
(g83
g69
NtRp2421
(dp2422
g72
(dp2423
sg81
g77
sg74
(lp2424
g67
(g88
g69
NtRp2425
(dp2426
g72
(dp2427
g92
g93
ssg81
g2421
sg74
(lp2428
S'uuid'
p2429
asbag67
(g88
g69
NtRp2430
(dp2431
g72
(dp2432
g99
g100
ssg81
g2421
sg74
(lp2433
S':'
asbag67
(g88
g69
NtRp2434
(dp2435
g72
(dp2436
sg81
g2421
sg74
(lp2437
g67
(g68
g69
NtRp2438
(dp2439
g72
(dp2440
g80
I5
ssg81
g2434
sg74
(lp2441
S'sueldos/127.0.0.1.2013-01-22.16-13-59.6405efdd-ab62-4761-83ed-3f927f7a70fc'
p2442
asbasbasbag67
(g83
g69
NtRp2443
(dp2444
g72
(dp2445
sg81
g77
sg74
(lp2446
g67
(g88
g69
NtRp2447
(dp2448
g72
(dp2449
g92
g93
ssg81
g2443
sg74
(lp2450
S'vars'
p2451
asbag67
(g88
g69
NtRp2452
(dp2453
g72
(dp2454
g99
g100
ssg81
g2443
sg74
(lp2455
S':'
asbag67
(g88
g69
NtRp2456
(dp2457
g72
(dp2458
sg81
g2443
sg74
(lp2459
g67
(g68
g69
NtRp2460
(dp2461
g72
(dp2462
g80
I5
ssg81
g2456
sg74
(lp2463
g67
(g76
g69
NtRp2464
(dp2465
g72
(dp2466
g80
I4
ssg81
Nsg74
(lp2467
g67
(g83
g69
NtRp2468
(dp2469
g72
(dp2470
sg81
g2464
sg74
(lp2471
g67
(g88
g69
NtRp2472
(dp2473
g72
(dp2474
g92
g93
ssg81
g2468
sg74
(lp2475
g1809
asbag67
(g88
g69
NtRp2476
(dp2477
g72
(dp2478
g99
g100
ssg81
g2468
sg74
(lp2479
S':'
asbag67
(g88
g69
NtRp2480
(dp2481
g72
(dp2482
sg81
g2468
sg74
(lp2483
g67
(g68
g69
NtRp2484
(dp2485
g72
(dp2486
g80
I4
ssg81
g2480
sg74
(lp2487
S'1'
asbasbasbag67
(g83
g69
NtRp2488
(dp2489
g72
(dp2490
sg81
g2464
sg74
(lp2491
g67
(g88
g69
NtRp2492
(dp2493
g72
(dp2494
g92
g93
ssg81
g2488
sg74
(lp2495
g1830
asbag67
(g88
g69
NtRp2496
(dp2497
g72
(dp2498
g99
g100
ssg81
g2488
sg74
(lp2499
S':'
asbag67
(g88
g69
NtRp2500
(dp2501
g72
(dp2502
sg81
g2488
sg74
(lp2503
g67
(g68
g69
NtRp2504
(dp2505
g72
(dp2506
g80
I4
ssg81
g2500
sg74
(lp2507
g1843
asbasbasbasbasbasbasbag67
(g83
g69
NtRp2508
(dp2509
g72
(dp2510
sg81
g77
sg74
(lp2511
g67
(g88
g69
NtRp2512
(dp2513
g72
(dp2514
g92
g93
ssg81
g2508
sg74
(lp2515
S'wsgi'
p2516
asbag67
(g88
g69
NtRp2517
(dp2518
g72
(dp2519
g99
g100
ssg81
g2508
sg74
(lp2520
S':'
asbag67
(g88
g69
NtRp2521
(dp2522
g72
(dp2523
sg81
g2508
sg74
(lp2524
g67
(g68
g69
NtRp2525
(dp2526
g72
(dp2527
g80
I5
ssg81
g2521
sg74
(lp2528
g67
(g76
g69
NtRp2529
(dp2530
g72
(dp2531
g80
I4
ssg81
Nsg74
(lp2532
g67
(g83
g69
NtRp2533
(dp2534
g72
(dp2535
sg81
g2529
sg74
(lp2536
g67
(g88
g69
NtRp2537
(dp2538
g72
(dp2539
g92
g93
ssg81
g2533
sg74
(lp2540
S'environ'
p2541
asbag67
(g88
g69
NtRp2542
(dp2543
g72
(dp2544
g99
g100
ssg81
g2533
sg74
(lp2545
S':'
asbag67
(g88
g69
NtRp2546
(dp2547
g72
(dp2548
sg81
g2533
sg74
(lp2549
g67
(g68
g69
NtRp2550
(dp2551
g72
(dp2552
g80
I4
ssg81
g2546
sg74
(lp2553
g67
(g76
g69
NtRp2554
(dp2555
g72
(dp2556
g80
I3
ssg81
Nsg74
(lp2557
g67
(g83
g69
NtRp2558
(dp2559
g72
(dp2560
sg81
g2554
sg74
(lp2561
g67
(g88
g69
NtRp2562
(dp2563
g72
(dp2564
g92
g93
ssg81
g2558
sg74
(lp2565
S'HTTP_ACCEPT'
p2566
asbag67
(g88
g69
NtRp2567
(dp2568
g72
(dp2569
g99
g100
ssg81
g2558
sg74
(lp2570
S':'
asbag67
(g88
g69
NtRp2571
(dp2572
g72
(dp2573
sg81
g2558
sg74
(lp2574
g67
(g68
g69
NtRp2575
(dp2576
g72
(dp2577
g80
I3
ssg81
g2571
sg74
(lp2578
g852
asbasbasbag67
(g83
g69
NtRp2579
(dp2580
g72
(dp2581
sg81
g2554
sg74
(lp2582
g67
(g88
g69
NtRp2583
(dp2584
g72
(dp2585
g92
g93
ssg81
g2579
sg74
(lp2586
S'HTTP_ACCEPT_ENCODING'
p2587
asbag67
(g88
g69
NtRp2588
(dp2589
g72
(dp2590
g99
g100
ssg81
g2579
sg74
(lp2591
S':'
asbag67
(g88
g69
NtRp2592
(dp2593
g72
(dp2594
sg81
g2579
sg74
(lp2595
g67
(g68
g69
NtRp2596
(dp2597
g72
(dp2598
g80
I3
ssg81
g2592
sg74
(lp2599
g874
asbasbasbag67
(g83
g69
NtRp2600
(dp2601
g72
(dp2602
sg81
g2554
sg74
(lp2603
g67
(g88
g69
NtRp2604
(dp2605
g72
(dp2606
g92
g93
ssg81
g2600
sg74
(lp2607
S'HTTP_ACCEPT_LANGUAGE'
p2608
asbag67
(g88
g69
NtRp2609
(dp2610
g72
(dp2611
g99
g100
ssg81
g2600
sg74
(lp2612
S':'
asbag67
(g88
g69
NtRp2613
(dp2614
g72
(dp2615
sg81
g2600
sg74
(lp2616
g67
(g68
g69
NtRp2617
(dp2618
g72
(dp2619
g80
I3
ssg81
g2613
sg74
(lp2620
g896
asbasbasbag67
(g83
g69
NtRp2621
(dp2622
g72
(dp2623
sg81
g2554
sg74
(lp2624
g67
(g88
g69
NtRp2625
(dp2626
g72
(dp2627
g92
g93
ssg81
g2621
sg74
(lp2628
S'HTTP_CACHE_CONTROL'
p2629
asbag67
(g88
g69
NtRp2630
(dp2631
g72
(dp2632
g99
g100
ssg81
g2621
sg74
(lp2633
S':'
asbag67
(g88
g69
NtRp2634
(dp2635
g72
(dp2636
sg81
g2621
sg74
(lp2637
g67
(g68
g69
NtRp2638
(dp2639
g72
(dp2640
g80
I3
ssg81
g2634
sg74
(lp2641
g918
asbasbasbag67
(g83
g69
NtRp2642
(dp2643
g72
(dp2644
sg81
g2554
sg74
(lp2645
g67
(g88
g69
NtRp2646
(dp2647
g72
(dp2648
g92
g93
ssg81
g2642
sg74
(lp2649
S'HTTP_CONNECTION'
p2650
asbag67
(g88
g69
NtRp2651
(dp2652
g72
(dp2653
g99
g100
ssg81
g2642
sg74
(lp2654
S':'
asbag67
(g88
g69
NtRp2655
(dp2656
g72
(dp2657
sg81
g2642
sg74
(lp2658
g67
(g68
g69
NtRp2659
(dp2660
g72
(dp2661
g80
I3
ssg81
g2655
sg74
(lp2662
g940
asbasbasbag67
(g83
g69
NtRp2663
(dp2664
g72
(dp2665
sg81
g2554
sg74
(lp2666
g67
(g88
g69
NtRp2667
(dp2668
g72
(dp2669
g92
g93
ssg81
g2663
sg74
(lp2670
S'HTTP_COOKIE'
p2671
asbag67
(g88
g69
NtRp2672
(dp2673
g72
(dp2674
g99
g100
ssg81
g2663
sg74
(lp2675
S':'
asbag67
(g88
g69
NtRp2676
(dp2677
g72
(dp2678
sg81
g2663
sg74
(lp2679
g67
(g68
g69
NtRp2680
(dp2681
g72
(dp2682
g80
I3
ssg81
g2676
sg74
(lp2683
g962
asbasbasbag67
(g83
g69
NtRp2684
(dp2685
g72
(dp2686
sg81
g2554
sg74
(lp2687
g67
(g88
g69
NtRp2688
(dp2689
g72
(dp2690
g92
g93
ssg81
g2684
sg74
(lp2691
S'HTTP_HOST'
p2692
asbag67
(g88
g69
NtRp2693
(dp2694
g72
(dp2695
g99
g100
ssg81
g2684
sg74
(lp2696
S':'
asbag67
(g88
g69
NtRp2697
(dp2698
g72
(dp2699
sg81
g2684
sg74
(lp2700
g67
(g68
g69
NtRp2701
(dp2702
g72
(dp2703
g80
I3
ssg81
g2697
sg74
(lp2704
g984
asbasbasbag67
(g83
g69
NtRp2705
(dp2706
g72
(dp2707
sg81
g2554
sg74
(lp2708
g67
(g88
g69
NtRp2709
(dp2710
g72
(dp2711
g92
g93
ssg81
g2705
sg74
(lp2712
S'HTTP_REFERER'
p2713
asbag67
(g88
g69
NtRp2714
(dp2715
g72
(dp2716
g99
g100
ssg81
g2705
sg74
(lp2717
S':'
asbag67
(g88
g69
NtRp2718
(dp2719
g72
(dp2720
sg81
g2705
sg74
(lp2721
g67
(g68
g69
NtRp2722
(dp2723
g72
(dp2724
g80
I3
ssg81
g2718
sg74
(lp2725
g1006
asbasbasbag67
(g83
g69
NtRp2726
(dp2727
g72
(dp2728
sg81
g2554
sg74
(lp2729
g67
(g88
g69
NtRp2730
(dp2731
g72
(dp2732
g92
g93
ssg81
g2726
sg74
(lp2733
S'HTTP_USER_AGENT'
p2734
asbag67
(g88
g69
NtRp2735
(dp2736
g72
(dp2737
g99
g100
ssg81
g2726
sg74
(lp2738
S':'
asbag67
(g88
g69
NtRp2739
(dp2740
g72
(dp2741
sg81
g2726
sg74
(lp2742
g67
(g68
g69
NtRp2743
(dp2744
g72
(dp2745
g80
I3
ssg81
g2739
sg74
(lp2746
g1028
asbasbasbag67
(g83
g69
NtRp2747
(dp2748
g72
(dp2749
sg81
g2554
sg74
(lp2750
g67
(g88
g69
NtRp2751
(dp2752
g72
(dp2753
g92
g93
ssg81
g2747
sg74
(lp2754
S'PATH_INFO'
p2755
asbag67
(g88
g69
NtRp2756
(dp2757
g72
(dp2758
g99
g100
ssg81
g2747
sg74
(lp2759
S':'
asbag67
(g88
g69
NtRp2760
(dp2761
g72
(dp2762
sg81
g2747
sg74
(lp2763
g67
(g68
g69
NtRp2764
(dp2765
g72
(dp2766
g80
I3
ssg81
g2760
sg74
(lp2767
g1182
asbasbasbag67
(g83
g69
NtRp2768
(dp2769
g72
(dp2770
sg81
g2554
sg74
(lp2771
g67
(g88
g69
NtRp2772
(dp2773
g72
(dp2774
g92
g93
ssg81
g2768
sg74
(lp2775
S'QUERY_STRING'
p2776
asbag67
(g88
g69
NtRp2777
(dp2778
g72
(dp2779
g99
g100
ssg81
g2768
sg74
(lp2780
S':'
asbag67
(g88
g69
NtRp2781
(dp2782
g72
(dp2783
sg81
g2768
sg74
(lp2784
g67
(g68
g69
NtRp2785
(dp2786
g72
(dp2787
g80
I3
ssg81
g2781
sg74
(lp2788
g1204
asbasbasbag67
(g83
g69
NtRp2789
(dp2790
g72
(dp2791
sg81
g2554
sg74
(lp2792
g67
(g88
g69
NtRp2793
(dp2794
g72
(dp2795
g92
g93
ssg81
g2789
sg74
(lp2796
S'REMOTE_ADDR'
p2797
asbag67
(g88
g69
NtRp2798
(dp2799
g72
(dp2800
g99
g100
ssg81
g2789
sg74
(lp2801
S':'
asbag67
(g88
g69
NtRp2802
(dp2803
g72
(dp2804
sg81
g2789
sg74
(lp2805
g67
(g68
g69
NtRp2806
(dp2807
g72
(dp2808
g80
I3
ssg81
g2802
sg74
(lp2809
g222
asbasbasbag67
(g83
g69
NtRp2810
(dp2811
g72
(dp2812
sg81
g2554
sg74
(lp2813
g67
(g88
g69
NtRp2814
(dp2815
g72
(dp2816
g92
g93
ssg81
g2810
sg74
(lp2817
S'REMOTE_PORT'
p2818
asbag67
(g88
g69
NtRp2819
(dp2820
g72
(dp2821
g99
g100
ssg81
g2810
sg74
(lp2822
S':'
asbag67
(g88
g69
NtRp2823
(dp2824
g72
(dp2825
sg81
g2810
sg74
(lp2826
g67
(g68
g69
NtRp2827
(dp2828
g72
(dp2829
g80
I3
ssg81
g2823
sg74
(lp2830
g1247
asbasbasbag67
(g83
g69
NtRp2831
(dp2832
g72
(dp2833
sg81
g2554
sg74
(lp2834
g67
(g88
g69
NtRp2835
(dp2836
g72
(dp2837
g92
g93
ssg81
g2831
sg74
(lp2838
S'REQUEST_METHOD'
p2839
asbag67
(g88
g69
NtRp2840
(dp2841
g72
(dp2842
g99
g100
ssg81
g2831
sg74
(lp2843
S':'
asbag67
(g88
g69
NtRp2844
(dp2845
g72
(dp2846
sg81
g2831
sg74
(lp2847
g67
(g68
g69
NtRp2848
(dp2849
g72
(dp2850
g80
I3
ssg81
g2844
sg74
(lp2851
g1269
asbasbasbag67
(g83
g69
NtRp2852
(dp2853
g72
(dp2854
sg81
g2554
sg74
(lp2855
g67
(g88
g69
NtRp2856
(dp2857
g72
(dp2858
g92
g93
ssg81
g2852
sg74
(lp2859
S'REQUEST_URI'
p2860
asbag67
(g88
g69
NtRp2861
(dp2862
g72
(dp2863
g99
g100
ssg81
g2852
sg74
(lp2864
S':'
asbag67
(g88
g69
NtRp2865
(dp2866
g72
(dp2867
sg81
g2852
sg74
(lp2868
g67
(g68
g69
NtRp2869
(dp2870
g72
(dp2871
g80
I3
ssg81
g2865
sg74
(lp2872
g1291
asbasbasbag67
(g83
g69
NtRp2873
(dp2874
g72
(dp2875
sg81
g2554
sg74
(lp2876
g67
(g88
g69
NtRp2877
(dp2878
g72
(dp2879
g92
g93
ssg81
g2873
sg74
(lp2880
S'SCRIPT_NAME'
p2881
asbag67
(g88
g69
NtRp2882
(dp2883
g72
(dp2884
g99
g100
ssg81
g2873
sg74
(lp2885
S':'
asbag67
(g88
g69
NtRp2886
(dp2887
g72
(dp2888
sg81
g2873
sg74
(lp2889
g67
(g68
g69
NtRp2890
(dp2891
g72
(dp2892
g80
I3
ssg81
g2886
sg74
(lp2893
S''
asbasbasbag67
(g83
g69
NtRp2894
(dp2895
g72
(dp2896
sg81
g2554
sg74
(lp2897
g67
(g88
g69
NtRp2898
(dp2899
g72
(dp2900
g92
g93
ssg81
g2894
sg74
(lp2901
S'SERVER_NAME'
p2902
asbag67
(g88
g69
NtRp2903
(dp2904
g72
(dp2905
g99
g100
ssg81
g2894
sg74
(lp2906
S':'
asbag67
(g88
g69
NtRp2907
(dp2908
g72
(dp2909
sg81
g2894
sg74
(lp2910
g67
(g68
g69
NtRp2911
(dp2912
g72
(dp2913
g80
I3
ssg81
g2907
sg74
(lp2914
g1334
asbasbasbag67
(g83
g69
NtRp2915
(dp2916
g72
(dp2917
sg81
g2554
sg74
(lp2918
g67
(g88
g69
NtRp2919
(dp2920
g72
(dp2921
g92
g93
ssg81
g2915
sg74
(lp2922
S'SERVER_PORT'
p2923
asbag67
(g88
g69
NtRp2924
(dp2925
g72
(dp2926
g99
g100
ssg81
g2915
sg74
(lp2927
S':'
asbag67
(g88
g69
NtRp2928
(dp2929
g72
(dp2930
sg81
g2915
sg74
(lp2931
g67
(g68
g69
NtRp2932
(dp2933
g72
(dp2934
g80
I3
ssg81
g2928
sg74
(lp2935
g1356
asbasbasbag67
(g83
g69
NtRp2936
(dp2937
g72
(dp2938
sg81
g2554
sg74
(lp2939
g67
(g88
g69
NtRp2940
(dp2941
g72
(dp2942
g92
g93
ssg81
g2936
sg74
(lp2943
S'SERVER_PROTOCOL'
p2944
asbag67
(g88
g69
NtRp2945
(dp2946
g72
(dp2947
g99
g100
ssg81
g2936
sg74
(lp2948
S':'
asbag67
(g88
g69
NtRp2949
(dp2950
g72
(dp2951
sg81
g2936
sg74
(lp2952
g67
(g68
g69
NtRp2953
(dp2954
g72
(dp2955
g80
I3
ssg81
g2949
sg74
(lp2956
g1378
asbasbasbag67
(g83
g69
NtRp2957
(dp2958
g72
(dp2959
sg81
g2554
sg74
(lp2960
g67
(g88
g69
NtRp2961
(dp2962
g72
(dp2963
g92
g93
ssg81
g2957
sg74
(lp2964
S'SERVER_SOFTWARE'
p2965
asbag67
(g88
g69
NtRp2966
(dp2967
g72
(dp2968
g99
g100
ssg81
g2957
sg74
(lp2969
S':'
asbag67
(g88
g69
NtRp2970
(dp2971
g72
(dp2972
sg81
g2957
sg74
(lp2973
g67
(g68
g69
NtRp2974
(dp2975
g72
(dp2976
g80
I3
ssg81
g2970
sg74
(lp2977
g1400
asbasbasbag67
(g83
g69
NtRp2978
(dp2979
g72
(dp2980
sg81
g2554
sg74
(lp2981
g67
(g88
g69
NtRp2982
(dp2983
g72
(dp2984
g92
g93
ssg81
g2978
sg74
(lp2985
S'wsgi.errors'
p2986
asbag67
(g88
g69
NtRp2987
(dp2988
g72
(dp2989
g99
g100
ssg81
g2978
sg74
(lp2990
S':'
asbag67
(g88
g69
NtRp2991
(dp2992
g72
(dp2993
sg81
g2978
sg74
(lp2994
g67
(g68
g69
NtRp2995
(dp2996
g72
(dp2997
g80
I3
ssg81
g2991
sg74
(lp2998
S"<open file '<stderr>', mode 'w' at 0x7fa88a0fa270>"
p2999
asbasbasbag67
(g83
g69
NtRp3000
(dp3001
g72
(dp3002
sg81
g2554
sg74
(lp3003
g67
(g88
g69
NtRp3004
(dp3005
g72
(dp3006
g92
g93
ssg81
g3000
sg74
(lp3007
S'wsgi.file_wrapper'
p3008
asbag67
(g88
g69
NtRp3009
(dp3010
g72
(dp3011
g99
g100
ssg81
g3000
sg74
(lp3012
S':'
asbag67
(g88
g69
NtRp3013
(dp3014
g72
(dp3015
sg81
g3000
sg74
(lp3016
g67
(g68
g69
NtRp3017
(dp3018
g72
(dp3019
g80
I3
ssg81
g3013
sg74
(lp3020
S'<class wsgiref.util.FileWrapper at 0x2dd24c8>'
p3021
asbasbasbag67
(g83
g69
NtRp3022
(dp3023
g72
(dp3024
sg81
g2554
sg74
(lp3025
g67
(g88
g69
NtRp3026
(dp3027
g72
(dp3028
g92
g93
ssg81
g3022
sg74
(lp3029
S'wsgi.input'
p3030
asbag67
(g88
g69
NtRp3031
(dp3032
g72
(dp3033
g99
g100
ssg81
g3022
sg74
(lp3034
S':'
asbag67
(g88
g69
NtRp3035
(dp3036
g72
(dp3037
sg81
g3022
sg74
(lp3038
g67
(g68
g69
NtRp3039
(dp3040
g72
(dp3041
g80
I3
ssg81
g3035
sg74
(lp3042
S'<cStringIO.StringO object at 0x3444ae8>'
p3043
asbasbasbag67
(g83
g69
NtRp3044
(dp3045
g72
(dp3046
sg81
g2554
sg74
(lp3047
g67
(g88
g69
NtRp3048
(dp3049
g72
(dp3050
g92
g93
ssg81
g3044
sg74
(lp3051
S'wsgi.multiprocess'
p3052
asbag67
(g88
g69
NtRp3053
(dp3054
g72
(dp3055
g99
g100
ssg81
g3044
sg74
(lp3056
S':'
asbag67
(g88
g69
NtRp3057
(dp3058
g72
(dp3059
sg81
g3044
sg74
(lp3060
g67
(g68
g69
NtRp3061
(dp3062
g72
(dp3063
g80
I3
ssg81
g3057
sg74
(lp3064
g110
asbasbasbag67
(g83
g69
NtRp3065
(dp3066
g72
(dp3067
sg81
g2554
sg74
(lp3068
g67
(g88
g69
NtRp3069
(dp3070
g72
(dp3071
g92
g93
ssg81
g3065
sg74
(lp3072
S'wsgi.multithread'
p3073
asbag67
(g88
g69
NtRp3074
(dp3075
g72
(dp3076
g99
g100
ssg81
g3065
sg74
(lp3077
S':'
asbag67
(g88
g69
NtRp3078
(dp3079
g72
(dp3080
sg81
g3065
sg74
(lp3081
g67
(g68
g69
NtRp3082
(dp3083
g72
(dp3084
g80
I3
ssg81
g3078
sg74
(lp3085
g1617
asbasbasbag67
(g83
g69
NtRp3086
(dp3087
g72
(dp3088
sg81
g2554
sg74
(lp3089
g67
(g88
g69
NtRp3090
(dp3091
g72
(dp3092
g92
g93
ssg81
g3086
sg74
(lp3093
S'wsgi.run_once'
p3094
asbag67
(g88
g69
NtRp3095
(dp3096
g72
(dp3097
g99
g100
ssg81
g3086
sg74
(lp3098
S':'
asbag67
(g88
g69
NtRp3099
(dp3100
g72
(dp3101
sg81
g3086
sg74
(lp3102
g67
(g68
g69
NtRp3103
(dp3104
g72
(dp3105
g80
I3
ssg81
g3099
sg74
(lp3106
g110
asbasbasbag67
(g83
g69
NtRp3107
(dp3108
g72
(dp3109
sg81
g2554
sg74
(lp3110
g67
(g88
g69
NtRp3111
(dp3112
g72
(dp3113
g92
g93
ssg81
g3107
sg74
(lp3114
S'wsgi.url_scheme'
p3115
asbag67
(g88
g69
NtRp3116
(dp3117
g72
(dp3118
g99
g100
ssg81
g3107
sg74
(lp3119
S':'
asbag67
(g88
g69
NtRp3120
(dp3121
g72
(dp3122
sg81
g3107
sg74
(lp3123
g67
(g68
g69
NtRp3124
(dp3125
g72
(dp3126
g80
I3
ssg81
g3120
sg74
(lp3127
g1660
asbasbasbag67
(g83
g69
NtRp3128
(dp3129
g72
(dp3130
sg81
g2554
sg74
(lp3131
g67
(g88
g69
NtRp3132
(dp3133
g72
(dp3134
g92
g93
ssg81
g3128
sg74
(lp3135
S'wsgi.version'
p3136
asbag67
(g88
g69
NtRp3137
(dp3138
g72
(dp3139
g99
g100
ssg81
g3128
sg74
(lp3140
S':'
asbag67
(g88
g69
NtRp3141
(dp3142
g72
(dp3143
sg81
g3128
sg74
(lp3144
g67
(g68
g69
NtRp3145
(dp3146
g72
(dp3147
g80
I3
ssg81
g3141
sg74
(lp3148
S'1'
asbasbasbasbasbasbasbasbasbasbasbasbasbsS'frames'
p3149
(lp3150
(dp3151
S'file'
p3152
S'/home/marco/projects/contabilidad/web2py/gluon/restricted.py'
p3153
sS'dump'
p3154
(dp3155
S'code'
p3156
S'"response.write(lista)\\nresponse.write(\'\\\\n\\\\n\', esc....vars.gremio))\\nresponse.write(\'\\\\n\', escape=False)"'
p3157
sS'layer'
p3158
S"'/home/marco/projects/contabilidad/web2py/applications/sueldos/views/vistas/escalas.html'"
p3159
sS'global compile2'
p3160
S'<function compile2>'
p3161
sS'ccode'
p3162
S'undefined'
p3163
ssS'lnum'
p3164
I211
sS'lines'
p3165
(dp3166
I206
S"    environment['__name__'] = '__restricted__'"
p3167
sI207
S'    try:'
p3168
sI208
S'        if isinstance(code, types.CodeType):'
p3169
sI209
S'            ccode = code'
p3170
sI210
S'        else:'
p3171
sI211
S'            ccode = compile2(code, layer)'
p3172
sI212
S'        exec ccode in environment'
p3173
sI213
S'    except HTTP:'
p3174
sI214
S'        raise'
p3175
sI215
S'    except RestrictedError:'
p3176
ssS'call'
p3177
S'(code="response.write(lista)\\nresponse.write(\'\\\\n\\\\n\', esc....vars.gremio))\\nresponse.write(\'\\\\n\', escape=False)", environment={\'A\': <class \'gluon.html.A\'>, \'Auth\': <class \'gluon.tools.Auth\'>, \'B\': <class \'gluon.html.B\'>, \'BEAUTIFY\': <class \'gluon.html.BEAUTIFY\'>, \'BODY\': <class \'gluon.html.BODY\'>, \'BR\': <class \'gluon.html.BR\'>, \'BUTTON\': <class \'gluon.html.BUTTON\'>, \'CAT\': <class \'gluon.html.CAT\'>, \'CENTER\': <class \'gluon.html.CENTER\'>, \'CLEANUP\': <class \'gluon.validators.CLEANUP\'>, ...}, layer=\'/home/marco/projects/contabilidad/web2py/applications/sueldos/views/vistas/escalas.html\')'
p3178
sS'func'
p3179
S'restricted'
p3180
sa(dp3181
g3152
S'/home/marco/projects/contabilidad/web2py/gluon/restricted.py'
p3182
sg3154
(dp3183
S'builtincompile'
p3184
S'<built-in function compile>'
p3185
sS'code'
p3186
S'"response.write(lista)\\nresponse.write(\'\\\\n\\\\n\', esc....vars.gremio))\\nresponse.write(\'\\\\n\', escape=False)"'
p3187
sS'code.rstrip'
p3188
S'<built-in method rstrip of str object>'
p3189
sS').replace'
p3190
g3163
sS'layer'
p3191
S"'/home/marco/projects/contabilidad/web2py/applications/sueldos/views/vistas/escalas.html'"
p3192
ssg3164
I194
sg3165
(dp3193
I192
S"    The +'\\n' is necessary else compile fails when code ends in a comment."
p3194
sI193
S'    """'
p3195
sI194
S"    return compile(code.rstrip().replace('\\r\\n', '\\n') + '\\n', layer, 'exec')"
p3196
sI195
S''
sI196
S''
sI197
S"def restricted(code, environment=None, layer='Unknown'):"
p3197
sI198
S'    """'
p3198
sI189
S''
sI190
S'def compile2(code, layer):'
p3199
sI191
S'    """'
p3200
ssg3177
S'(code="response.write(lista)\\nresponse.write(\'\\\\n\\\\n\', esc....vars.gremio))\\nresponse.write(\'\\\\n\', escape=False)", layer=\'/home/marco/projects/contabilidad/web2py/applications/sueldos/views/vistas/escalas.html\')'
p3201
sg3179
S'compile2'
p3202
sasS'pyver'
p3203
S'Python 2.7.3: /usr/bin/python'
p3204
sS'session'
p3205
g67
(g68
g69
NtRp3206
(dp3207
g72
(dp3208
sg74
(lp3209
g67
(g76
g69
NtRp3210
(dp3211
g72
(dp3212
g80
I5
ssg81
Nsg74
(lp3213
g67
(g83
g69
NtRp3214
(dp3215
g72
(dp3216
sg81
g3210
sg74
(lp3217
g67
(g88
g69
NtRp3218
(dp3219
g72
(dp3220
g92
g93
ssg81
g3214
sg74
(lp3221
S'flash'
p3222
asbag67
(g88
g69
NtRp3223
(dp3224
g72
(dp3225
g99
g100
ssg81
g3214
sg74
(lp3226
S':'
asbag67
(g88
g69
NtRp3227
(dp3228
g72
(dp3229
sg81
g3214
sg74
(lp3230
g67
(g68
g69
NtRp3231
(dp3232
g72
(dp3233
g80
I5
ssg81
g3227
sg74
(lp3234
S'None'
p3235
asbasbasbasbasbsS'etype'
p3236
S"<type 'exceptions.SyntaxError'>"
p3237
sS'date'
p3238
S'Tue Jan 22 16:13:59 2013'
p3239
sS'response'
p3240
g67
(g68
g69
NtRp3241
(dp3242
g72
(dp3243
sg74
(lp3244
g67
(g76
g69
NtRp3245
(dp3246
g72
(dp3247
g80
I5
ssg81
Nsg74
(lp3248
g67
(g83
g69
NtRp3249
(dp3250
g72
(dp3251
sg81
g3245
sg74
(lp3252
g67
(g88
g69
NtRp3253
(dp3254
g72
(dp3255
g92
g93
ssg81
g3249
sg74
(lp3256
g165
asbag67
(g88
g69
NtRp3257
(dp3258
g72
(dp3259
g99
g100
ssg81
g3249
sg74
(lp3260
S':'
asbag67
(g88
g69
NtRp3261
(dp3262
g72
(dp3263
sg81
g3249
sg74
(lp3264
g67
(g68
g69
NtRp3265
(dp3266
g72
(dp3267
g80
I5
ssg81
g3261
sg74
(lp3268
S'<cStringIO.StringO object at 0x3ee9a40>'
p3269
asbasbasbag67
(g83
g69
NtRp3270
(dp3271
g72
(dp3272
sg81
g3245
sg74
(lp3273
g67
(g88
g69
NtRp3274
(dp3275
g72
(dp3276
g92
g93
ssg81
g3270
sg74
(lp3277
g253
asbag67
(g88
g69
NtRp3278
(dp3279
g72
(dp3280
g99
g100
ssg81
g3270
sg74
(lp3281
S':'
asbag67
(g88
g69
NtRp3282
(dp3283
g72
(dp3284
sg81
g3270
sg74
(lp3285
g67
(g68
g69
NtRp3286
(dp3287
g72
(dp3288
g80
I5
ssg81
g3282
sg74
(lp3289
g67
(g76
g69
NtRp3290
(dp3291
g72
(dp3292
g80
I4
ssg81
Nsg74
(lp3293
g67
(g83
g69
NtRp3294
(dp3295
g72
(dp3296
sg81
g3290
sg74
(lp3297
g67
(g88
g69
NtRp3298
(dp3299
g72
(dp3300
g92
g93
ssg81
g3294
sg74
(lp3301
S'session_id_sueldos'
p3302
asbag67
(g88
g69
NtRp3303
(dp3304
g72
(dp3305
g99
g100
ssg81
g3294
sg74
(lp3306
S':'
asbag67
(g88
g69
NtRp3307
(dp3308
g72
(dp3309
sg81
g3294
sg74
(lp3310
g67
(g68
g69
NtRp3311
(dp3312
g72
(dp3313
g80
I4
ssg81
g3307
sg74
(lp3314
g485
ag67
(g76
g69
NtRp3315
(dp3316
g72
(dp3317
g80
I3
ssg81
Nsg74
(lp3318
g67
(g83
g69
NtRp3319
(dp3320
g72
(dp3321
sg81
g3315
sg74
(lp3322
g67
(g88
g69
NtRp3323
(dp3324
g72
(dp3325
g92
g93
ssg81
g3319
sg74
(lp3326
g304
asbag67
(g88
g69
NtRp3327
(dp3328
g72
(dp3329
g99
g100
ssg81
g3319
sg74
(lp3330
S':'
asbag67
(g88
g69
NtRp3331
(dp3332
g72
(dp3333
sg81
g3319
sg74
(lp3334
g67
(g68
g69
NtRp3335
(dp3336
g72
(dp3337
g80
I3
ssg81
g3331
sg74
(lp3338
S''
asbasbasbag67
(g83
g69
NtRp3339
(dp3340
g72
(dp3341
sg81
g3315
sg74
(lp3342
g67
(g88
g69
NtRp3343
(dp3344
g72
(dp3345
g92
g93
ssg81
g3339
sg74
(lp3346
g325
asbag67
(g88
g69
NtRp3347
(dp3348
g72
(dp3349
g99
g100
ssg81
g3339
sg74
(lp3350
S':'
asbag67
(g88
g69
NtRp3351
(dp3352
g72
(dp3353
sg81
g3339
sg74
(lp3354
g67
(g68
g69
NtRp3355
(dp3356
g72
(dp3357
g80
I3
ssg81
g3351
sg74
(lp3358
S''
asbasbasbag67
(g83
g69
NtRp3359
(dp3360
g72
(dp3361
sg81
g3315
sg74
(lp3362
g67
(g88
g69
NtRp3363
(dp3364
g72
(dp3365
g92
g93
ssg81
g3359
sg74
(lp3366
g346
asbag67
(g88
g69
NtRp3367
(dp3368
g72
(dp3369
g99
g100
ssg81
g3359
sg74
(lp3370
S':'
asbag67
(g88
g69
NtRp3371
(dp3372
g72
(dp3373
sg81
g3359
sg74
(lp3374
g67
(g68
g69
NtRp3375
(dp3376
g72
(dp3377
g80
I3
ssg81
g3371
sg74
(lp3378
S''
asbasbasbag67
(g83
g69
NtRp3379
(dp3380
g72
(dp3381
sg81
g3315
sg74
(lp3382
g67
(g88
g69
NtRp3383
(dp3384
g72
(dp3385
g92
g93
ssg81
g3379
sg74
(lp3386
g367
asbag67
(g88
g69
NtRp3387
(dp3388
g72
(dp3389
g99
g100
ssg81
g3379
sg74
(lp3390
S':'
asbag67
(g88
g69
NtRp3391
(dp3392
g72
(dp3393
sg81
g3379
sg74
(lp3394
g67
(g68
g69
NtRp3395
(dp3396
g72
(dp3397
g80
I3
ssg81
g3391
sg74
(lp3398
S''
asbasbasbag67
(g83
g69
NtRp3399
(dp3400
g72
(dp3401
sg81
g3315
sg74
(lp3402
g67
(g88
g69
NtRp3403
(dp3404
g72
(dp3405
g92
g93
ssg81
g3399
sg74
(lp3406
g388
asbag67
(g88
g69
NtRp3407
(dp3408
g72
(dp3409
g99
g100
ssg81
g3399
sg74
(lp3410
S':'
asbag67
(g88
g69
NtRp3411
(dp3412
g72
(dp3413
sg81
g3399
sg74
(lp3414
g67
(g68
g69
NtRp3415
(dp3416
g72
(dp3417
g80
I3
ssg81
g3411
sg74
(lp3418
S''
asbasbasbag67
(g83
g69
NtRp3419
(dp3420
g72
(dp3421
sg81
g3315
sg74
(lp3422
g67
(g88
g69
NtRp3423
(dp3424
g72
(dp3425
g92
g93
ssg81
g3419
sg74
(lp3426
g409
asbag67
(g88
g69
NtRp3427
(dp3428
g72
(dp3429
g99
g100
ssg81
g3419
sg74
(lp3430
S':'
asbag67
(g88
g69
NtRp3431
(dp3432
g72
(dp3433
sg81
g3419
sg74
(lp3434
g67
(g68
g69
NtRp3435
(dp3436
g72
(dp3437
g80
I3
ssg81
g3431
sg74
(lp3438
S'/'
asbasbasbag67
(g83
g69
NtRp3439
(dp3440
g72
(dp3441
sg81
g3315
sg74
(lp3442
g67
(g88
g69
NtRp3443
(dp3444
g72
(dp3445
g92
g93
ssg81
g3439
sg74
(lp3446
g430
asbag67
(g88
g69
NtRp3447
(dp3448
g72
(dp3449
g99
g100
ssg81
g3439
sg74
(lp3450
S':'
asbag67
(g88
g69
NtRp3451
(dp3452
g72
(dp3453
sg81
g3439
sg74
(lp3454
g67
(g68
g69
NtRp3455
(dp3456
g72
(dp3457
g80
I3
ssg81
g3451
sg74
(lp3458
S''
asbasbasbag67
(g83
g69
NtRp3459
(dp3460
g72
(dp3461
sg81
g3315
sg74
(lp3462
g67
(g88
g69
NtRp3463
(dp3464
g72
(dp3465
g92
g93
ssg81
g3459
sg74
(lp3466
g451
asbag67
(g88
g69
NtRp3467
(dp3468
g72
(dp3469
g99
g100
ssg81
g3459
sg74
(lp3470
S':'
asbag67
(g88
g69
NtRp3471
(dp3472
g72
(dp3473
sg81
g3459
sg74
(lp3474
g67
(g68
g69
NtRp3475
(dp3476
g72
(dp3477
g80
I3
ssg81
g3471
sg74
(lp3478
S''
asbasbasbasbasbasbasbasbasbasbasbag67
(g83
g69
NtRp3479
(dp3480
g72
(dp3481
sg81
g3245
sg74
(lp3482
g67
(g88
g69
NtRp3483
(dp3484
g72
(dp3485
g92
g93
ssg81
g3479
sg74
(lp3486
S'delimiters'
p3487
asbag67
(g88
g69
NtRp3488
(dp3489
g72
(dp3490
g99
g100
ssg81
g3479
sg74
(lp3491
S':'
asbag67
(g88
g69
NtRp3492
(dp3493
g72
(dp3494
sg81
g3479
sg74
(lp3495
g67
(g68
g69
NtRp3496
(dp3497
g72
(dp3498
g80
I5
ssg81
g3492
sg74
(lp3499
g67
(g76
g69
NtRp3500
(dp3501
g72
(dp3502
g80
I4
ssg81
Nsg74
(lp3503
g67
(g83
g69
NtRp3504
(dp3505
g72
(dp3506
sg81
g3500
sg74
(lp3507
g67
(g88
g69
NtRp3508
(dp3509
g72
(dp3510
sg81
g3504
sg74
(lp3511
g67
(g68
g69
NtRp3512
(dp3513
g72
(dp3514
g80
I4
ssg81
g3508
sg74
(lp3515
S'{{'
p3516
asbasbasbag67
(g83
g69
NtRp3517
(dp3518
g72
(dp3519
sg81
g3500
sg74
(lp3520
g67
(g88
g69
NtRp3521
(dp3522
g72
(dp3523
sg81
g3517
sg74
(lp3524
g67
(g68
g69
NtRp3525
(dp3526
g72
(dp3527
g80
I4
ssg81
g3521
sg74
(lp3528
S'}}'
p3529
asbasbasbasbasbasbasbag67
(g83
g69
NtRp3530
(dp3531
g72
(dp3532
sg81
g3245
sg74
(lp3533
g67
(g88
g69
NtRp3534
(dp3535
g72
(dp3536
g92
g93
ssg81
g3530
sg74
(lp3537
S'files'
p3538
asbag67
(g88
g69
NtRp3539
(dp3540
g72
(dp3541
g99
g100
ssg81
g3530
sg74
(lp3542
S':'
asbag67
(g88
g69
NtRp3543
(dp3544
g72
(dp3545
sg81
g3530
sg74
(lp3546
g67
(g68
g69
NtRp3547
(dp3548
g72
(dp3549
g80
I5
ssg81
g3543
sg74
(lp3550
g67
(g76
g69
NtRp3551
(dp3552
g72
(dp3553
g80
I4
ssg81
Nsg74
(lp3554
sbasbasbasbag67
(g83
g69
NtRp3555
(dp3556
g72
(dp3557
sg81
g3245
sg74
(lp3558
g67
(g88
g69
NtRp3559
(dp3560
g72
(dp3561
g92
g93
ssg81
g3555
sg74
(lp3562
S'flash'
p3563
asbag67
(g88
g69
NtRp3564
(dp3565
g72
(dp3566
g99
g100
ssg81
g3555
sg74
(lp3567
S':'
asbag67
(g88
g69
NtRp3568
(dp3569
g72
(dp3570
sg81
g3555
sg74
(lp3571
g67
(g68
g69
NtRp3572
(dp3573
g72
(dp3574
g80
I5
ssg81
g3568
sg74
(lp3575
S''
asbasbasbag67
(g83
g69
NtRp3576
(dp3577
g72
(dp3578
sg81
g3245
sg74
(lp3579
g67
(g88
g69
NtRp3580
(dp3581
g72
(dp3582
g92
g93
ssg81
g3576
sg74
(lp3583
S'generic_patterns'
p3584
asbag67
(g88
g69
NtRp3585
(dp3586
g72
(dp3587
g99
g100
ssg81
g3576
sg74
(lp3588
S':'
asbag67
(g88
g69
NtRp3589
(dp3590
g72
(dp3591
sg81
g3576
sg74
(lp3592
g67
(g68
g69
NtRp3593
(dp3594
g72
(dp3595
g80
I5
ssg81
g3589
sg74
(lp3596
g67
(g76
g69
NtRp3597
(dp3598
g72
(dp3599
g80
I4
ssg81
Nsg74
(lp3600
g67
(g83
g69
NtRp3601
(dp3602
g72
(dp3603
sg81
g3597
sg74
(lp3604
g67
(g88
g69
NtRp3605
(dp3606
g72
(dp3607
sg81
g3601
sg74
(lp3608
g67
(g68
g69
NtRp3609
(dp3610
g72
(dp3611
g80
I4
ssg81
g3605
sg74
(lp3612
S'*'
asbasbasbasbasbasbasbag67
(g83
g69
NtRp3613
(dp3614
g72
(dp3615
sg81
g3245
sg74
(lp3616
g67
(g88
g69
NtRp3617
(dp3618
g72
(dp3619
g92
g93
ssg81
g3613
sg74
(lp3620
S'google_analytics_id'
p3621
asbag67
(g88
g69
NtRp3622
(dp3623
g72
(dp3624
g99
g100
ssg81
g3613
sg74
(lp3625
S':'
asbag67
(g88
g69
NtRp3626
(dp3627
g72
(dp3628
sg81
g3613
sg74
(lp3629
g67
(g68
g69
NtRp3630
(dp3631
g72
(dp3632
g80
I5
ssg81
g3626
sg74
(lp3633
S'None'
p3634
asbasbasbag67
(g83
g69
NtRp3635
(dp3636
g72
(dp3637
sg81
g3245
sg74
(lp3638
g67
(g88
g69
NtRp3639
(dp3640
g72
(dp3641
g92
g93
ssg81
g3635
sg74
(lp3642
S'headers'
p3643
asbag67
(g88
g69
NtRp3644
(dp3645
g72
(dp3646
g99
g100
ssg81
g3635
sg74
(lp3647
S':'
asbag67
(g88
g69
NtRp3648
(dp3649
g72
(dp3650
sg81
g3635
sg74
(lp3651
g67
(g68
g69
NtRp3652
(dp3653
g72
(dp3654
g80
I5
ssg81
g3648
sg74
(lp3655
g67
(g76
g69
NtRp3656
(dp3657
g72
(dp3658
g80
I4
ssg81
Nsg74
(lp3659
g67
(g83
g69
NtRp3660
(dp3661
g72
(dp3662
sg81
g3656
sg74
(lp3663
g67
(g88
g69
NtRp3664
(dp3665
g72
(dp3666
g92
g93
ssg81
g3660
sg74
(lp3667
S'X-Powered-By'
p3668
asbag67
(g88
g69
NtRp3669
(dp3670
g72
(dp3671
g99
g100
ssg81
g3660
sg74
(lp3672
S':'
asbag67
(g88
g69
NtRp3673
(dp3674
g72
(dp3675
sg81
g3660
sg74
(lp3676
g67
(g68
g69
NtRp3677
(dp3678
g72
(dp3679
g80
I4
ssg81
g3673
sg74
(lp3680
S'web2py'
p3681
asbasbasbasbasbasbasbag67
(g83
g69
NtRp3682
(dp3683
g72
(dp3684
sg81
g3245
sg74
(lp3685
g67
(g88
g69
NtRp3686
(dp3687
g72
(dp3688
g92
g93
ssg81
g3682
sg74
(lp3689
S'menu'
p3690
asbag67
(g88
g69
NtRp3691
(dp3692
g72
(dp3693
g99
g100
ssg81
g3682
sg74
(lp3694
S':'
asbag67
(g88
g69
NtRp3695
(dp3696
g72
(dp3697
sg81
g3682
sg74
(lp3698
g67
(g68
g69
NtRp3699
(dp3700
g72
(dp3701
g80
I5
ssg81
g3695
sg74
(lp3702
g67
(g76
g69
NtRp3703
(dp3704
g72
(dp3705
g80
I4
ssg81
Nsg74
(lp3706
g67
(g83
g69
NtRp3707
(dp3708
g72
(dp3709
sg81
g3703
sg74
(lp3710
g67
(g88
g69
NtRp3711
(dp3712
g72
(dp3713
sg81
g3707
sg74
(lp3714
g67
(g68
g69
NtRp3715
(dp3716
g72
(dp3717
g80
I4
ssg81
g3711
sg74
(lp3718
g67
(g76
g69
NtRp3719
(dp3720
g72
(dp3721
g80
I3
ssg81
Nsg74
(lp3722
g67
(g83
g69
NtRp3723
(dp3724
g72
(dp3725
sg81
g3719
sg74
(lp3726
g67
(g88
g69
NtRp3727
(dp3728
g72
(dp3729
sg81
g3723
sg74
(lp3730
g67
(g68
g69
NtRp3731
(dp3732
g72
(dp3733
g80
I3
ssg81
g3727
sg74
(lp3734
cgluon.languages
lazyT_unpickle
p3735
(S's\x04\x00\x00\x00Home'
tRp3736
asbasbasbag67
(g83
g69
NtRp3737
(dp3738
g72
(dp3739
sg81
g3719
sg74
(lp3740
g67
(g88
g69
NtRp3741
(dp3742
g72
(dp3743
sg81
g3737
sg74
(lp3744
g67
(g68
g69
NtRp3745
(dp3746
g72
(dp3747
g80
I3
ssg81
g3741
sg74
(lp3748
g110
asbasbasbag67
(g83
g69
NtRp3749
(dp3750
g72
(dp3751
sg81
g3719
sg74
(lp3752
g67
(g88
g69
NtRp3753
(dp3754
g72
(dp3755
sg81
g3749
sg74
(lp3756
g67
(g68
g69
NtRp3757
(dp3758
g72
(dp3759
g80
I3
ssg81
g3753
sg74
(lp3760
S'/sueldos/default/index'
p3761
asbasbasbag67
(g83
g69
NtRp3762
(dp3763
g72
(dp3764
sg81
g3719
sg74
(lp3765
g67
(g88
g69
NtRp3766
(dp3767
g72
(dp3768
sg81
g3762
sg74
(lp3769
g67
(g68
g69
NtRp3770
(dp3771
g72
(dp3772
g80
I3
ssg81
g3766
sg74
(lp3773
g67
(g76
g69
NtRp3774
(dp3775
g72
(dp3776
g80
I2
ssg81
Nsg74
(lp3777
sbasbasbasbasbasbasbasbag67
(g83
g69
NtRp3778
(dp3779
g72
(dp3780
sg81
g3703
sg74
(lp3781
g67
(g88
g69
NtRp3782
(dp3783
g72
(dp3784
sg81
g3778
sg74
(lp3785
g67
(g68
g69
NtRp3786
(dp3787
g72
(dp3788
g80
I4
ssg81
g3782
sg74
(lp3789
g67
(g76
g69
NtRp3790
(dp3791
g72
(dp3792
g80
I3
ssg81
Nsg74
(lp3793
g67
(g83
g69
NtRp3794
(dp3795
g72
(dp3796
sg81
g3790
sg74
(lp3797
g67
(g88
g69
NtRp3798
(dp3799
g72
(dp3800
sg81
g3794
sg74
(lp3801
g67
(g68
g69
NtRp3802
(dp3803
g72
(dp3804
g80
I3
ssg81
g3798
sg74
(lp3805
g67
(cgluon.html
SPAN
p3806
g69
NtRp3807
(dp3808
g72
(dp3809
S'_class'
p3810
S'highlighted'
p3811
ssg81
Nsg74
(lp3812
g3681
asbasbasbasbag67
(g83
g69
NtRp3813
(dp3814
g72
(dp3815
sg81
g3790
sg74
(lp3816
g67
(g88
g69
NtRp3817
(dp3818
g72
(dp3819
sg81
g3813
sg74
(lp3820
g67
(g68
g69
NtRp3821
(dp3822
g72
(dp3823
g80
I3
ssg81
g3817
sg74
(lp3824
g110
asbasbasbag67
(g83
g69
NtRp3825
(dp3826
g72
(dp3827
sg81
g3790
sg74
(lp3828
g67
(g88
g69
NtRp3829
(dp3830
g72
(dp3831
sg81
g3825
sg74
(lp3832
g67
(g68
g69
NtRp3833
(dp3834
g72
(dp3835
g80
I3
ssg81
g3829
sg74
(lp3836
S'http://web2py.com'
p3837
asbasbasbag67
(g83
g69
NtRp3838
(dp3839
g72
(dp3840
sg81
g3790
sg74
(lp3841
g67
(g88
g69
NtRp3842
(dp3843
g72
(dp3844
sg81
g3838
sg74
(lp3845
g67
(g68
g69
NtRp3846
(dp3847
g72
(dp3848
g80
I3
ssg81
g3842
sg74
(lp3849
g67
(g76
g69
NtRp3850
(dp3851
g72
(dp3852
g80
I2
ssg81
Nsg74
(lp3853
g67
(g83
g69
NtRp3854
(dp3855
g72
(dp3856
sg81
g3850
sg74
(lp3857
g67
(g88
g69
NtRp3858
(dp3859
g72
(dp3860
sg81
g3854
sg74
(lp3861
g67
(g68
g69
NtRp3862
(dp3863
g72
(dp3864
g80
I2
ssg81
g3858
sg74
(lp3865
g67
(g76
g69
NtRp3866
(dp3867
g72
(dp3868
g80
I1
ssg81
Nsg74
(lp3869
g67
(g83
g69
NtRp3870
(dp3871
g72
(dp3872
sg81
g3866
sg74
(lp3873
g67
(g88
g69
NtRp3874
(dp3875
g72
(dp3876
sg81
g3870
sg74
(lp3877
g67
(g68
g69
NtRp3878
(dp3879
g72
(dp3880
g80
I1
ssg81
g3874
sg74
(lp3881
g3735
(S's\x08\x00\x00\x00My Sites'
tRp3882
asbasbasbag67
(g83
g69
NtRp3883
(dp3884
g72
(dp3885
sg81
g3866
sg74
(lp3886
g67
(g88
g69
NtRp3887
(dp3888
g72
(dp3889
sg81
g3883
sg74
(lp3890
g67
(g68
g69
NtRp3891
(dp3892
g72
(dp3893
g80
I1
ssg81
g3887
sg74
(lp3894
I00
asbasbasbag67
(g83
g69
NtRp3895
(dp3896
g72
(dp3897
sg81
g3866
sg74
(lp3898
g67
(g88
g69
NtRp3899
(dp3900
g72
(dp3901
sg81
g3895
sg74
(lp3902
g67
(g68
g69
NtRp3903
(dp3904
g72
(dp3905
g80
I1
ssg81
g3899
sg74
(lp3906
S'/admin/default/site'
p3907
asbasbasbasbasbasbasbag67
(g83
g69
NtRp3908
(dp3909
g72
(dp3910
sg81
g3850
sg74
(lp3911
g67
(g88
g69
NtRp3912
(dp3913
g72
(dp3914
sg81
g3908
sg74
(lp3915
g67
(g68
g69
NtRp3916
(dp3917
g72
(dp3918
g80
I2
ssg81
g3912
sg74
(lp3919
g67
(g76
g69
NtRp3920
(dp3921
g72
(dp3922
g80
I1
ssg81
Nsg74
(lp3923
g67
(g83
g69
NtRp3924
(dp3925
g72
(dp3926
sg81
g3920
sg74
(lp3927
g67
(g88
g69
NtRp3928
(dp3929
g72
(dp3930
sg81
g3924
sg74
(lp3931
g67
(g68
g69
NtRp3932
(dp3933
g72
(dp3934
g80
I1
ssg81
g3928
sg74
(lp3935
g3735
(S's\x08\x00\x00\x00This App'
tRp3936
asbasbasbag67
(g83
g69
NtRp3937
(dp3938
g72
(dp3939
sg81
g3920
sg74
(lp3940
g67
(g88
g69
NtRp3941
(dp3942
g72
(dp3943
sg81
g3937
sg74
(lp3944
g67
(g68
g69
NtRp3945
(dp3946
g72
(dp3947
g80
I1
ssg81
g3941
sg74
(lp3948
I00
asbasbasbag67
(g83
g69
NtRp3949
(dp3950
g72
(dp3951
sg81
g3920
sg74
(lp3952
g67
(g88
g69
NtRp3953
(dp3954
g72
(dp3955
sg81
g3949
sg74
(lp3956
g67
(g68
g69
NtRp3957
(dp3958
g72
(dp3959
g80
I1
ssg81
g3953
sg74
(lp3960
S'/admin/default/design/sueldos'
p3961
asbasbasbag67
(g83
g69
NtRp3962
(dp3963
g72
(dp3964
sg81
g3920
sg74
(lp3965
g67
(g88
g69
NtRp3966
(dp3967
g72
(dp3968
sg81
g3962
sg74
(lp3969
g67
(g68
g69
NtRp3970
(dp3971
g72
(dp3972
g80
I1
ssg81
g3966
sg74
(lp3973
(lp3974
(g3735
(S's\n\x00\x00\x00Controller'
tRp3975
I00
S'/admin/default/edit/sueldos/controllers/vistas.py'
tp3976
a(g3735
(S's\x04\x00\x00\x00View'
tRp3977
I00
S'/admin/default/edit/sueldos/views/vistas/escalas.html'
tp3978
a(g3735
(S's\x06\x00\x00\x00Layout'
tRp3979
I00
S'/admin/default/edit/sueldos/views/layout.html'
tp3980
a(g3735
(S's\n\x00\x00\x00Stylesheet'
tRp3981
I00
S'/admin/default/edit/sueldos/static/css/web2py.css'
tp3982
a(g3735
(S's\x08\x00\x00\x00DB Model'
tRp3983
I00
S'/admin/default/edit/sueldos/models/db.py'
tp3984
a(g3735
(S's\n\x00\x00\x00Menu Model'
tRp3985
I00
S'/admin/default/edit/sueldos/models/menu.py'
tp3986
a(g3735
(S's\x08\x00\x00\x00Database'
tRp3987
I00
S'/sueldos/appadmin/index'
tp3988
a(g3735
(S's\x06\x00\x00\x00Errors'
tRp3989
I00
S'/admin/default/errors/sueldos'
tp3990
a(g3735
(S's\x05\x00\x00\x00About'
tRp3991
I00
S'/admin/default/about/sueldos'
tp3992
aasbasbasbasbasbasbasbag67
(g83
g69
NtRp3993
(dp3994
g72
(dp3995
sg81
g3850
sg74
(lp3996
g67
(g88
g69
NtRp3997
(dp3998
g72
(dp3999
sg81
g3993
sg74
(lp4000
g67
(g68
g69
NtRp4001
(dp4002
g72
(dp4003
g80
I2
ssg81
g3997
sg74
(lp4004
g67
(g76
g69
NtRp4005
(dp4006
g72
(dp4007
g80
I1
ssg81
Nsg74
(lp4008
g67
(g83
g69
NtRp4009
(dp4010
g72
(dp4011
sg81
g4005
sg74
(lp4012
g67
(g88
g69
NtRp4013
(dp4014
g72
(dp4015
sg81
g4009
sg74
(lp4016
g67
(g68
g69
NtRp4017
(dp4018
g72
(dp4019
g80
I1
ssg81
g4013
sg74
(lp4020
S'web2py.com'
p4021
asbasbasbag67
(g83
g69
NtRp4022
(dp4023
g72
(dp4024
sg81
g4005
sg74
(lp4025
g67
(g88
g69
NtRp4026
(dp4027
g72
(dp4028
sg81
g4022
sg74
(lp4029
g67
(g68
g69
NtRp4030
(dp4031
g72
(dp4032
g80
I1
ssg81
g4026
sg74
(lp4033
I00
asbasbasbag67
(g83
g69
NtRp4034
(dp4035
g72
(dp4036
sg81
g4005
sg74
(lp4037
g67
(g88
g69
NtRp4038
(dp4039
g72
(dp4040
sg81
g4034
sg74
(lp4041
g67
(g68
g69
NtRp4042
(dp4043
g72
(dp4044
g80
I1
ssg81
g4038
sg74
(lp4045
S'http://www.web2py.com'
p4046
asbasbasbag67
(g83
g69
NtRp4047
(dp4048
g72
(dp4049
sg81
g4005
sg74
(lp4050
g67
(g88
g69
NtRp4051
(dp4052
g72
(dp4053
sg81
g4047
sg74
(lp4054
g67
(g68
g69
NtRp4055
(dp4056
g72
(dp4057
g80
I1
ssg81
g4051
sg74
(lp4058
(lp4059
(g3735
(S's\x08\x00\x00\x00Download'
tRp4060
I00
S'http://www.web2py.com/examples/default/download'
p4061
tp4062
a(g3735
(S's\x07\x00\x00\x00Support'
tRp4063
I00
S'http://www.web2py.com/examples/default/support'
p4064
tp4065
a(g3735
(S's\x04\x00\x00\x00Demo'
tRp4066
I00
S'http://web2py.com/demo_admin'
p4067
tp4068
a(g3735
(S's\x0e\x00\x00\x00Quick Examples'
tRp4069
I00
S'http://web2py.com/examples/default/examples'
p4070
tp4071
a(g3735
(S's\x03\x00\x00\x00FAQ'
tRp4072
I00
S'http://web2py.com/AlterEgo'
p4073
tp4074
a(g3735
(S's\x06\x00\x00\x00Videos'
tRp4075
I00
S'http://www.web2py.com/examples/default/videos/'
p4076
tp4077
a(g3735
(S's\x11\x00\x00\x00Free Applications'
tRp4078
I00
S'http://web2py.com/appliances'
p4079
tp4080
a(g3735
(S's\x07\x00\x00\x00Plugins'
tRp4081
I00
S'http://web2py.com/plugins'
p4082
tp4083
a(g3735
(S's\x07\x00\x00\x00Layouts'
tRp4084
I00
S'http://web2py.com/layouts'
p4085
tp4086
a(g3735
(S's\x07\x00\x00\x00Recipes'
tRp4087
I00
S'http://web2pyslices.com/'
p4088
tp4089
a(g3735
(S's\x08\x00\x00\x00Semantic'
tRp4090
I00
S'http://web2py.com/semantic'
p4091
tp4092
aasbasbasbasbasbasbasbag67
(g83
g69
NtRp4093
(dp4094
g72
(dp4095
sg81
g3850
sg74
(lp4096
g67
(g88
g69
NtRp4097
(dp4098
g72
(dp4099
sg81
g4093
sg74
(lp4100
g67
(g68
g69
NtRp4101
(dp4102
g72
(dp4103
g80
I2
ssg81
g4097
sg74
(lp4104
g67
(g76
g69
NtRp4105
(dp4106
g72
(dp4107
g80
I1
ssg81
Nsg74
(lp4108
g67
(g83
g69
NtRp4109
(dp4110
g72
(dp4111
sg81
g4105
sg74
(lp4112
g67
(g88
g69
NtRp4113
(dp4114
g72
(dp4115
sg81
g4109
sg74
(lp4116
g67
(g68
g69
NtRp4117
(dp4118
g72
(dp4119
g80
I1
ssg81
g4113
sg74
(lp4120
g3735
(S's\r\x00\x00\x00Documentation'
tRp4121
asbasbasbag67
(g83
g69
NtRp4122
(dp4123
g72
(dp4124
sg81
g4105
sg74
(lp4125
g67
(g88
g69
NtRp4126
(dp4127
g72
(dp4128
sg81
g4122
sg74
(lp4129
g67
(g68
g69
NtRp4130
(dp4131
g72
(dp4132
g80
I1
ssg81
g4126
sg74
(lp4133
I00
asbasbasbag67
(g83
g69
NtRp4134
(dp4135
g72
(dp4136
sg81
g4105
sg74
(lp4137
g67
(g88
g69
NtRp4138
(dp4139
g72
(dp4140
sg81
g4134
sg74
(lp4141
g67
(g68
g69
NtRp4142
(dp4143
g72
(dp4144
g80
I1
ssg81
g4138
sg74
(lp4145
S'http://www.web2py.com/book'
p4146
asbasbasbag67
(g83
g69
NtRp4147
(dp4148
g72
(dp4149
sg81
g4105
sg74
(lp4150
g67
(g88
g69
NtRp4151
(dp4152
g72
(dp4153
sg81
g4147
sg74
(lp4154
g67
(g68
g69
NtRp4155
(dp4156
g72
(dp4157
g80
I1
ssg81
g4151
sg74
(lp4158
(lp4159
(g3735
(S's\x07\x00\x00\x00Preface'
tRp4160
I00
S'http://www.web2py.com/book/default/chapter/00'
p4161
tp4162
a(g3735
(S's\x0c\x00\x00\x00Introduction'
tRp4163
I00
S'http://www.web2py.com/book/default/chapter/01'
p4164
tp4165
a(g3735
(S's\x06\x00\x00\x00Python'
tRp4166
I00
S'http://www.web2py.com/book/default/chapter/02'
p4167
tp4168
a(g3735
(S's\x08\x00\x00\x00Overview'
tRp4169
I00
S'http://www.web2py.com/book/default/chapter/03'
p4170
tp4171
a(g3735
(S's\x08\x00\x00\x00The Core'
tRp4172
I00
S'http://www.web2py.com/book/default/chapter/04'
p4173
tp4174
a(g3735
(S's\t\x00\x00\x00The Views'
tRp4175
I00
S'http://www.web2py.com/book/default/chapter/05'
p4176
tp4177
a(g3735
(S's\x08\x00\x00\x00Database'
tRp4178
I00
S'http://www.web2py.com/book/default/chapter/06'
p4179
tp4180
a(g3735
(S's\x14\x00\x00\x00Forms and Validators'
tRp4181
I00
S'http://www.web2py.com/book/default/chapter/07'
p4182
tp4183
a(g3735
(S's\r\x00\x00\x00Email and SMS'
tRp4184
I00
S'http://www.web2py.com/book/default/chapter/08'
p4185
tp4186
a(g3735
(S's\x0e\x00\x00\x00Access Control'
tRp4187
I00
S'http://www.web2py.com/book/default/chapter/09'
p4188
tp4189
a(g3735
(S's\x08\x00\x00\x00Services'
tRp4190
I00
S'http://www.web2py.com/book/default/chapter/10'
p4191
tp4192
a(g3735
(S's\x0c\x00\x00\x00Ajax Recipes'
tRp4193
I00
S'http://www.web2py.com/book/default/chapter/11'
p4194
tp4195
a(g3735
(S's\x16\x00\x00\x00Components and Plugins'
tRp4196
I00
S'http://www.web2py.com/book/default/chapter/12'
p4197
tp4198
a(g3735
(S's\x12\x00\x00\x00Deployment Recipes'
tRp4199
I00
S'http://www.web2py.com/book/default/chapter/13'
p4200
tp4201
a(g3735
(S's\r\x00\x00\x00Other Recipes'
tRp4202
I00
S'http://www.web2py.com/book/default/chapter/14'
p4203
tp4204
a(g3735
(S's\r\x00\x00\x00Buy this book'
tRp4205
I00
S'http://stores.lulu.com/web2py'
p4206
tp4207
aasbasbasbasbasbasbasbag67
(g83
g69
NtRp4208
(dp4209
g72
(dp4210
sg81
g3850
sg74
(lp4211
g67
(g88
g69
NtRp4212
(dp4213
g72
(dp4214
sg81
g4208
sg74
(lp4215
g67
(g68
g69
NtRp4216
(dp4217
g72
(dp4218
g80
I2
ssg81
g4212
sg74
(lp4219
g67
(g76
g69
NtRp4220
(dp4221
g72
(dp4222
g80
I1
ssg81
Nsg74
(lp4223
g67
(g83
g69
NtRp4224
(dp4225
g72
(dp4226
sg81
g4220
sg74
(lp4227
g67
(g88
g69
NtRp4228
(dp4229
g72
(dp4230
sg81
g4224
sg74
(lp4231
g67
(g68
g69
NtRp4232
(dp4233
g72
(dp4234
g80
I1
ssg81
g4228
sg74
(lp4235
g3735
(S's\t\x00\x00\x00Community'
tRp4236
asbasbasbag67
(g83
g69
NtRp4237
(dp4238
g72
(dp4239
sg81
g4220
sg74
(lp4240
g67
(g88
g69
NtRp4241
(dp4242
g72
(dp4243
sg81
g4237
sg74
(lp4244
g67
(g68
g69
NtRp4245
(dp4246
g72
(dp4247
g80
I1
ssg81
g4241
sg74
(lp4248
I00
asbasbasbag67
(g83
g69
NtRp4249
(dp4250
g72
(dp4251
sg81
g4220
sg74
(lp4252
g67
(g88
g69
NtRp4253
(dp4254
g72
(dp4255
sg81
g4249
sg74
(lp4256
g67
(g68
g69
NtRp4257
(dp4258
g72
(dp4259
g80
I1
ssg81
g4253
sg74
(lp4260
Nasbasbasbag67
(g83
g69
NtRp4261
(dp4262
g72
(dp4263
sg81
g4220
sg74
(lp4264
g67
(g88
g69
NtRp4265
(dp4266
g72
(dp4267
sg81
g4261
sg74
(lp4268
g67
(g68
g69
NtRp4269
(dp4270
g72
(dp4271
g80
I1
ssg81
g4265
sg74
(lp4272
(lp4273
(g3735
(S's\x06\x00\x00\x00Groups'
tRp4274
I00
S'http://www.web2py.com/examples/default/usergroups'
p4275
tp4276
a(g3735
(S's\x07\x00\x00\x00Twitter'
tRp4277
I00
S'http://twitter.com/web2py'
p4278
tp4279
a(g3735
(S's\t\x00\x00\x00Live Chat'
tRp4280
I00
S'http://webchat.freenode.net/?channels=web2py'
p4281
tp4282
aasbasbasbasbasbasbasbag67
(g83
g69
NtRp4283
(dp4284
g72
(dp4285
sg81
g3850
sg74
(lp4286
g67
(g88
g69
NtRp4287
(dp4288
g72
(dp4289
sg81
g4283
sg74
(lp4290
g67
(g68
g69
NtRp4291
(dp4292
g72
(dp4293
g80
I2
ssg81
g4287
sg74
(lp4294
g67
(g76
g69
NtRp4295
(dp4296
g72
(dp4297
g80
I1
ssg81
Nsg74
(lp4298
g67
(g83
g69
NtRp4299
(dp4300
g72
(dp4301
sg81
g4295
sg74
(lp4302
g67
(g88
g69
NtRp4303
(dp4304
g72
(dp4305
sg81
g4299
sg74
(lp4306
g67
(g68
g69
NtRp4307
(dp4308
g72
(dp4309
g80
I1
ssg81
g4303
sg74
(lp4310
g3735
(S's\x07\x00\x00\x00Plugins'
tRp4311
asbasbasbag67
(g83
g69
NtRp4312
(dp4313
g72
(dp4314
sg81
g4295
sg74
(lp4315
g67
(g88
g69
NtRp4316
(dp4317
g72
(dp4318
sg81
g4312
sg74
(lp4319
g67
(g68
g69
NtRp4320
(dp4321
g72
(dp4322
g80
I1
ssg81
g4316
sg74
(lp4323
I00
asbasbasbag67
(g83
g69
NtRp4324
(dp4325
g72
(dp4326
sg81
g4295
sg74
(lp4327
g67
(g88
g69
NtRp4328
(dp4329
g72
(dp4330
sg81
g4324
sg74
(lp4331
g67
(g68
g69
NtRp4332
(dp4333
g72
(dp4334
g80
I1
ssg81
g4328
sg74
(lp4335
Nasbasbasbag67
(g83
g69
NtRp4336
(dp4337
g72
(dp4338
sg81
g4295
sg74
(lp4339
g67
(g88
g69
NtRp4340
(dp4341
g72
(dp4342
sg81
g4336
sg74
(lp4343
g67
(g68
g69
NtRp4344
(dp4345
g72
(dp4346
g80
I1
ssg81
g4340
sg74
(lp4347
(lp4348
(S'plugin_wiki'
p4349
I00
S'http://web2py.com/examples/default/download'
p4350
tp4351
a(g3735
(S's\r\x00\x00\x00Other Plugins'
tRp4352
I00
g4082
tp4353
a(g3735
(S's\x0e\x00\x00\x00Layout Plugins'
tRp4354
I00
g4085
tp4355
aasbasbasbasbasbasbasbasbasbasbasbasbasbasbasbasbasbasbasbag67
(g83
g69
NtRp4356
(dp4357
g72
(dp4358
sg81
g3245
sg74
(lp4359
g67
(g88
g69
NtRp4360
(dp4361
g72
(dp4362
g92
g93
ssg81
g4356
sg74
(lp4363
S'meta'
p4364
asbag67
(g88
g69
NtRp4365
(dp4366
g72
(dp4367
g99
g100
ssg81
g4356
sg74
(lp4368
S':'
asbag67
(g88
g69
NtRp4369
(dp4370
g72
(dp4371
sg81
g4356
sg74
(lp4372
g67
(g68
g69
NtRp4373
(dp4374
g72
(dp4375
g80
I5
ssg81
g4369
sg74
(lp4376
g67
(g76
g69
NtRp4377
(dp4378
g72
(dp4379
g80
I4
ssg81
Nsg74
(lp4380
g67
(g83
g69
NtRp4381
(dp4382
g72
(dp4383
sg81
g4377
sg74
(lp4384
g67
(g88
g69
NtRp4385
(dp4386
g72
(dp4387
g92
g93
ssg81
g4381
sg74
(lp4388
S'author'
p4389
asbag67
(g88
g69
NtRp4390
(dp4391
g72
(dp4392
g99
g100
ssg81
g4381
sg74
(lp4393
S':'
asbag67
(g88
g69
NtRp4394
(dp4395
g72
(dp4396
sg81
g4381
sg74
(lp4397
g67
(g68
g69
NtRp4398
(dp4399
g72
(dp4400
g80
I4
ssg81
g4394
sg74
(lp4401
S'Your Name <you@example.com>'
p4402
asbasbasbag67
(g83
g69
NtRp4403
(dp4404
g72
(dp4405
sg81
g4377
sg74
(lp4406
g67
(g88
g69
NtRp4407
(dp4408
g72
(dp4409
g92
g93
ssg81
g4403
sg74
(lp4410
S'description'
p4411
asbag67
(g88
g69
NtRp4412
(dp4413
g72
(dp4414
g99
g100
ssg81
g4403
sg74
(lp4415
S':'
asbag67
(g88
g69
NtRp4416
(dp4417
g72
(dp4418
sg81
g4403
sg74
(lp4419
g67
(g68
g69
NtRp4420
(dp4421
g72
(dp4422
g80
I4
ssg81
g4416
sg74
(lp4423
S'a cool new app'
p4424
asbasbasbag67
(g83
g69
NtRp4425
(dp4426
g72
(dp4427
sg81
g4377
sg74
(lp4428
g67
(g88
g69
NtRp4429
(dp4430
g72
(dp4431
g92
g93
ssg81
g4425
sg74
(lp4432
S'generator'
p4433
asbag67
(g88
g69
NtRp4434
(dp4435
g72
(dp4436
g99
g100
ssg81
g4425
sg74
(lp4437
S':'
asbag67
(g88
g69
NtRp4438
(dp4439
g72
(dp4440
sg81
g4425
sg74
(lp4441
g67
(g68
g69
NtRp4442
(dp4443
g72
(dp4444
g80
I4
ssg81
g4438
sg74
(lp4445
S'Web2py Web Framework'
p4446
asbasbasbag67
(g83
g69
NtRp4447
(dp4448
g72
(dp4449
sg81
g4377
sg74
(lp4450
g67
(g88
g69
NtRp4451
(dp4452
g72
(dp4453
g92
g93
ssg81
g4447
sg74
(lp4454
S'keywords'
p4455
asbag67
(g88
g69
NtRp4456
(dp4457
g72
(dp4458
g99
g100
ssg81
g4447
sg74
(lp4459
S':'
asbag67
(g88
g69
NtRp4460
(dp4461
g72
(dp4462
sg81
g4447
sg74
(lp4463
g67
(g68
g69
NtRp4464
(dp4465
g72
(dp4466
g80
I4
ssg81
g4460
sg74
(lp4467
S'web2py, python, framework'
p4468
asbasbasbasbasbasbasbag67
(g83
g69
NtRp4469
(dp4470
g72
(dp4471
sg81
g3245
sg74
(lp4472
g67
(g88
g69
NtRp4473
(dp4474
g72
(dp4475
g92
g93
ssg81
g4469
sg74
(lp4476
S'models_to_run'
p4477
asbag67
(g88
g69
NtRp4478
(dp4479
g72
(dp4480
g99
g100
ssg81
g4469
sg74
(lp4481
S':'
asbag67
(g88
g69
NtRp4482
(dp4483
g72
(dp4484
sg81
g4469
sg74
(lp4485
g67
(g68
g69
NtRp4486
(dp4487
g72
(dp4488
g80
I5
ssg81
g4482
sg74
(lp4489
g67
(g76
g69
NtRp4490
(dp4491
g72
(dp4492
g80
I4
ssg81
Nsg74
(lp4493
g67
(g83
g69
NtRp4494
(dp4495
g72
(dp4496
sg81
g4490
sg74
(lp4497
g67
(g88
g69
NtRp4498
(dp4499
g72
(dp4500
sg81
g4494
sg74
(lp4501
g67
(g68
g69
NtRp4502
(dp4503
g72
(dp4504
g80
I4
ssg81
g4498
sg74
(lp4505
S'^\\w+\\.py$'
p4506
asbasbasbag67
(g83
g69
NtRp4507
(dp4508
g72
(dp4509
sg81
g4490
sg74
(lp4510
g67
(g88
g69
NtRp4511
(dp4512
g72
(dp4513
sg81
g4507
sg74
(lp4514
g67
(g68
g69
NtRp4515
(dp4516
g72
(dp4517
g80
I4
ssg81
g4511
sg74
(lp4518
S'^vistas/\\w+\\.py$'
p4519
asbasbasbag67
(g83
g69
NtRp4520
(dp4521
g72
(dp4522
sg81
g4490
sg74
(lp4523
g67
(g88
g69
NtRp4524
(dp4525
g72
(dp4526
sg81
g4520
sg74
(lp4527
g67
(g68
g69
NtRp4528
(dp4529
g72
(dp4530
g80
I4
ssg81
g4524
sg74
(lp4531
S'^vistas/escalas/\\w+\\.py$'
p4532
asbasbasbasbasbasbasbag67
(g83
g69
NtRp4533
(dp4534
g72
(dp4535
sg81
g3245
sg74
(lp4536
g67
(g88
g69
NtRp4537
(dp4538
g72
(dp4539
g92
g93
ssg81
g4533
sg74
(lp4540
S'postprocessing'
p4541
asbag67
(g88
g69
NtRp4542
(dp4543
g72
(dp4544
g99
g100
ssg81
g4533
sg74
(lp4545
S':'
asbag67
(g88
g69
NtRp4546
(dp4547
g72
(dp4548
sg81
g4533
sg74
(lp4549
g67
(g68
g69
NtRp4550
(dp4551
g72
(dp4552
g80
I5
ssg81
g4546
sg74
(lp4553
g67
(g76
g69
NtRp4554
(dp4555
g72
(dp4556
g80
I4
ssg81
Nsg74
(lp4557
sbasbasbasbag67
(g83
g69
NtRp4558
(dp4559
g72
(dp4560
sg81
g3245
sg74
(lp4561
g67
(g88
g69
NtRp4562
(dp4563
g72
(dp4564
g92
g93
ssg81
g4558
sg74
(lp4565
S'session_cookie_expires'
p4566
asbag67
(g88
g69
NtRp4567
(dp4568
g72
(dp4569
g99
g100
ssg81
g4558
sg74
(lp4570
S':'
asbag67
(g88
g69
NtRp4571
(dp4572
g72
(dp4573
sg81
g4558
sg74
(lp4574
g67
(g68
g69
NtRp4575
(dp4576
g72
(dp4577
g80
I5
ssg81
g4571
sg74
(lp4578
S'None'
p4579
asbasbasbag67
(g83
g69
NtRp4580
(dp4581
g72
(dp4582
sg81
g3245
sg74
(lp4583
g67
(g88
g69
NtRp4584
(dp4585
g72
(dp4586
g92
g93
ssg81
g4580
sg74
(lp4587
S'session_data_name'
p4588
asbag67
(g88
g69
NtRp4589
(dp4590
g72
(dp4591
g99
g100
ssg81
g4580
sg74
(lp4592
S':'
asbag67
(g88
g69
NtRp4593
(dp4594
g72
(dp4595
sg81
g4580
sg74
(lp4596
g67
(g68
g69
NtRp4597
(dp4598
g72
(dp4599
g80
I5
ssg81
g4593
sg74
(lp4600
S'session_data_sueldos'
p4601
asbasbasbag67
(g83
g69
NtRp4602
(dp4603
g72
(dp4604
sg81
g3245
sg74
(lp4605
g67
(g88
g69
NtRp4606
(dp4607
g72
(dp4608
g92
g93
ssg81
g4602
sg74
(lp4609
S'session_file'
p4610
asbag67
(g88
g69
NtRp4611
(dp4612
g72
(dp4613
g99
g100
ssg81
g4602
sg74
(lp4614
S':'
asbag67
(g88
g69
NtRp4615
(dp4616
g72
(dp4617
sg81
g4602
sg74
(lp4618
g67
(g68
g69
NtRp4619
(dp4620
g72
(dp4621
g80
I5
ssg81
g4615
sg74
(lp4622
S"<open file '/home/marco/projects/contabilidad/web2py/applications/sueldos/sessions/127.0.0.1-05ce4365-dc54-4394-bd3e-60890d75bc96', mode 'rb+' at 0x30d3780>"
p4623
asbasbasbag67
(g83
g69
NtRp4624
(dp4625
g72
(dp4626
sg81
g3245
sg74
(lp4627
g67
(g88
g69
NtRp4628
(dp4629
g72
(dp4630
g92
g93
ssg81
g4624
sg74
(lp4631
S'session_filename'
p4632
asbag67
(g88
g69
NtRp4633
(dp4634
g72
(dp4635
g99
g100
ssg81
g4624
sg74
(lp4636
S':'
asbag67
(g88
g69
NtRp4637
(dp4638
g72
(dp4639
sg81
g4624
sg74
(lp4640
g67
(g68
g69
NtRp4641
(dp4642
g72
(dp4643
g80
I5
ssg81
g4637
sg74
(lp4644
S'/home/marco/projects/contabilidad/web2py/applications/sueldos/sessions/127.0.0.1-05ce4365-dc54-4394-bd3e-60890d75bc96'
p4645
asbasbasbag67
(g83
g69
NtRp4646
(dp4647
g72
(dp4648
sg81
g3245
sg74
(lp4649
g67
(g88
g69
NtRp4650
(dp4651
g72
(dp4652
g92
g93
ssg81
g4646
sg74
(lp4653
S'session_id'
p4654
asbag67
(g88
g69
NtRp4655
(dp4656
g72
(dp4657
g99
g100
ssg81
g4646
sg74
(lp4658
S':'
asbag67
(g88
g69
NtRp4659
(dp4660
g72
(dp4661
sg81
g4646
sg74
(lp4662
g67
(g68
g69
NtRp4663
(dp4664
g72
(dp4665
g80
I5
ssg81
g4659
sg74
(lp4666
g485
asbasbasbag67
(g83
g69
NtRp4667
(dp4668
g72
(dp4669
sg81
g3245
sg74
(lp4670
g67
(g88
g69
NtRp4671
(dp4672
g72
(dp4673
g92
g93
ssg81
g4667
sg74
(lp4674
S'session_id_name'
p4675
asbag67
(g88
g69
NtRp4676
(dp4677
g72
(dp4678
g99
g100
ssg81
g4667
sg74
(lp4679
S':'
asbag67
(g88
g69
NtRp4680
(dp4681
g72
(dp4682
sg81
g4667
sg74
(lp4683
g67
(g68
g69
NtRp4684
(dp4685
g72
(dp4686
g80
I5
ssg81
g4680
sg74
(lp4687
g3302
asbasbasbag67
(g83
g69
NtRp4688
(dp4689
g72
(dp4690
sg81
g3245
sg74
(lp4691
g67
(g88
g69
NtRp4692
(dp4693
g72
(dp4694
g92
g93
ssg81
g4688
sg74
(lp4695
S'session_locked'
p4696
asbag67
(g88
g69
NtRp4697
(dp4698
g72
(dp4699
g99
g100
ssg81
g4688
sg74
(lp4700
S':'
asbag67
(g88
g69
NtRp4701
(dp4702
g72
(dp4703
sg81
g4688
sg74
(lp4704
g67
(g68
g69
NtRp4705
(dp4706
g72
(dp4707
g80
I5
ssg81
g4701
sg74
(lp4708
g1617
asbasbasbag67
(g83
g69
NtRp4709
(dp4710
g72
(dp4711
sg81
g3245
sg74
(lp4712
g67
(g88
g69
NtRp4713
(dp4714
g72
(dp4715
g92
g93
ssg81
g4709
sg74
(lp4716
S'session_new'
p4717
asbag67
(g88
g69
NtRp4718
(dp4719
g72
(dp4720
g99
g100
ssg81
g4709
sg74
(lp4721
S':'
asbag67
(g88
g69
NtRp4722
(dp4723
g72
(dp4724
sg81
g4709
sg74
(lp4725
g67
(g68
g69
NtRp4726
(dp4727
g72
(dp4728
g80
I5
ssg81
g4722
sg74
(lp4729
g110
asbasbasbag67
(g83
g69
NtRp4730
(dp4731
g72
(dp4732
sg81
g3245
sg74
(lp4733
g67
(g88
g69
NtRp4734
(dp4735
g72
(dp4736
g92
g93
ssg81
g4730
sg74
(lp4737
S'session_storage_type'
p4738
asbag67
(g88
g69
NtRp4739
(dp4740
g72
(dp4741
g99
g100
ssg81
g4730
sg74
(lp4742
S':'
asbag67
(g88
g69
NtRp4743
(dp4744
g72
(dp4745
sg81
g4730
sg74
(lp4746
g67
(g68
g69
NtRp4747
(dp4748
g72
(dp4749
g80
I5
ssg81
g4743
sg74
(lp4750
g3152
asbasbasbag67
(g83
g69
NtRp4751
(dp4752
g72
(dp4753
sg81
g3245
sg74
(lp4754
g67
(g88
g69
NtRp4755
(dp4756
g72
(dp4757
g92
g93
ssg81
g4751
sg74
(lp4758
S'status'
p4759
asbag67
(g88
g69
NtRp4760
(dp4761
g72
(dp4762
g99
g100
ssg81
g4751
sg74
(lp4763
S':'
asbag67
(g88
g69
NtRp4764
(dp4765
g72
(dp4766
sg81
g4751
sg74
(lp4767
g67
(g68
g69
NtRp4768
(dp4769
g72
(dp4770
g80
I5
ssg81
g4764
sg74
(lp4771
S'200'
p4772
asbasbasbag67
(g83
g69
NtRp4773
(dp4774
g72
(dp4775
sg81
g3245
sg74
(lp4776
g67
(g88
g69
NtRp4777
(dp4778
g72
(dp4779
g92
g93
ssg81
g4773
sg74
(lp4780
S'subtitle'
p4781
asbag67
(g88
g69
NtRp4782
(dp4783
g72
(dp4784
g99
g100
ssg81
g4773
sg74
(lp4785
S':'
asbag67
(g88
g69
NtRp4786
(dp4787
g72
(dp4788
sg81
g4773
sg74
(lp4789
g67
(g68
g69
NtRp4790
(dp4791
g72
(dp4792
g80
I5
ssg81
g4786
sg74
(lp4793
g3735
(S's,\x00\x00\x00Sistema de liquidacion de sueldos y jornales'
tRp4794
asbasbasbag67
(g83
g69
NtRp4795
(dp4796
g72
(dp4797
sg81
g3245
sg74
(lp4798
g67
(g88
g69
NtRp4799
(dp4800
g72
(dp4801
g92
g93
ssg81
g4795
sg74
(lp4802
S'title'
p4803
asbag67
(g88
g69
NtRp4804
(dp4805
g72
(dp4806
g99
g100
ssg81
g4795
sg74
(lp4807
S':'
asbag67
(g88
g69
NtRp4808
(dp4809
g72
(dp4810
sg81
g4795
sg74
(lp4811
g67
(g68
g69
NtRp4812
(dp4813
g72
(dp4814
g80
I5
ssg81
g4808
sg74
(lp4815
S'Sueldos'
p4816
asbasbasbag67
(g83
g69
NtRp4817
(dp4818
g72
(dp4819
sg81
g3245
sg74
(lp4820
g67
(g88
g69
NtRp4821
(dp4822
g72
(dp4823
g92
g93
ssg81
g4817
sg74
(lp4824
S'view'
p4825
asbag67
(g88
g69
NtRp4826
(dp4827
g72
(dp4828
g99
g100
ssg81
g4817
sg74
(lp4829
S':'
asbag67
(g88
g69
NtRp4830
(dp4831
g72
(dp4832
sg81
g4817
sg74
(lp4833
g67
(g68
g69
NtRp4834
(dp4835
g72
(dp4836
g80
I5
ssg81
g4830
sg74
(lp4837
S'vistas/escalas.html'
p4838
asbasbasbasbasbsS'locals'
p4839
(dp4840
g4
S"'/home/marco/projects/contabilidad/web2py/applications/sueldos/views/vistas/escalas.html'"
p4841
sg6
S'"response.write(lista)\\nresponse.write(\'\\\\n\\\\n\', esc....vars.gremio))\\nresponse.write(\'\\\\n\', escape=False)"'
p4842
sssS'traceback'
p4843
S'Traceback (most recent call last):\n  File "/home/marco/projects/contabilidad/web2py/gluon/restricted.py", line 211, in restricted\n    ccode = compile2(code, layer)\n  File "/home/marco/projects/contabilidad/web2py/gluon/restricted.py", line 194, in compile2\n    return compile(code.rstrip().replace(\'\\r\\n\', \'\\n\') + \'\\n\', layer, \'exec\')\n  File "/home/marco/projects/contabilidad/web2py/applications/sueldos/views/vistas/escalas.html", line 4\n    response.write(\'\\n\', escape=False)\n           ^\nSyntaxError: invalid syntax\n'
p4844
s.