(dp1
S'output'
p2
S"<type 'exceptions.TypeError'> int() argument must be a string or a number, not 'list'"
p3
sS'layer'
p4
S'/home/marco/projects/contabilidad/web2py/applications/sueldos/controllers/vistas.py'
p5
sS'code'
p6
S"# -*- coding: utf-8 -*-\n\ndef personal():\n    form = SQLFORM.grid(db.empleados, ui='jquery-ui', user_signature=False)\n    return dict(form=form)\n\ndef escalas():\n    if int(request.vars.gremio):\n        lista=db(db.categorias.gremio==int(param)).select()\n    else:\n        lista=request.vars.gremio\n    # nueva=crud.create(db.categorias, next=URL('vistas','escalas', vars=dict(gremio=request.vars.gremio, sindicato=request.vars.sindicato)))\n\n    # if nueva.process().accepted:\n    #     session.flash='La categoria ha sido agregada'\n    # elif nueva.errors:\n    #     response.flash='El formulario tiene errores'\n        \n    return dict(lista=lista)\n\ndef importes():\n    lista=db(db.valores.gremio==request.vars.gremio).select()\n\n    nuevo=SQLFORM(db.valores)\n\n    if nuevo.process().accepted:\n        session.flash='El importe ha sido agregado'\n        redirect(URL('vistas','importes?gremio='+ str(request.vars.gremio)+'&sindicato='+ str(request.vars.sindicato)))\n    elif nuevo.errors:\n        response.flash='El formulario tiene errores'\n    return dict(listado=lista, nuevo=nuevo)\n\nresponse._vars=response._caller(escalas)\n"
p7
sS'snapshot'
p8
(dp9
S'exception'
p10
(dp11
S'__hash__'
p12
S"<method-wrapper '__hash__' of exceptions.TypeError object>"
p13
sS'__setattr__'
p14
S"<method-wrapper '__setattr__' of exceptions.TypeError object>"
p15
sS'__reduce_ex__'
p16
S'<built-in method __reduce_ex__ of exceptions.TypeError object>'
p17
sS'__getslice__'
p18
S"<method-wrapper '__getslice__' of exceptions.TypeError object>"
p19
sS'__getitem__'
p20
S"<method-wrapper '__getitem__' of exceptions.TypeError object>"
p21
sS'__setstate__'
p22
S'<built-in method __setstate__ of exceptions.TypeError object>'
p23
sS'args'
p24
S'("int() argument must be a string or a number, not \'list\'",)'
p25
sS'__reduce__'
p26
S'<built-in method __reduce__ of exceptions.TypeError object>'
p27
sS'__str__'
p28
S"<method-wrapper '__str__' of exceptions.TypeError object>"
p29
sS'__format__'
p30
S'<built-in method __format__ of exceptions.TypeError object>'
p31
sS'__getattribute__'
p32
S"<method-wrapper '__getattribute__' of exceptions.TypeError object>"
p33
sS'__class__'
p34
S"<type 'exceptions.TypeError'>"
p35
sS'__unicode__'
p36
S'<built-in method __unicode__ of exceptions.TypeError object>'
p37
sS'__delattr__'
p38
S"<method-wrapper '__delattr__' of exceptions.TypeError object>"
p39
sS'__subclasshook__'
p40
S'<built-in method __subclasshook__ of type object>'
p41
sS'__repr__'
p42
S"<method-wrapper '__repr__' of exceptions.TypeError object>"
p43
sS'__dict__'
p44
S'{}'
p45
sS'__sizeof__'
p46
S'<built-in method __sizeof__ of exceptions.TypeError object>'
p47
sS'__doc__'
p48
S"'Inappropriate argument type.'"
p49
sS'__init__'
p50
S"<method-wrapper '__init__' of exceptions.TypeError object>"
p51
sS'__new__'
p52
S'<built-in method __new__ of type object>'
p53
ssS'evalue'
p54
S"int() argument must be a string or a number, not 'list'"
p55
sS'request'
p56
ccopy_reg
_reconstructor
p57
(cgluon.html
BEAUTIFY
p58
c__builtin__
object
p59
NtRp60
(dp61
S'attributes'
p62
(dp63
sS'components'
p64
(lp65
g57
(cgluon.html
TABLE
p66
g59
NtRp67
(dp68
g62
(dp69
S'level'
p70
I5
ssS'parent'
p71
Nsg64
(lp72
g57
(cgluon.html
TR
p73
g59
NtRp74
(dp75
g62
(dp76
sg71
g67
sg64
(lp77
g57
(cgluon.html
TD
p78
g59
NtRp79
(dp80
g62
(dp81
S'_style'
p82
S'font-weight:bold;vertical-align:top'
p83
ssg71
g74
sg64
(lp84
S'ajax'
p85
asbag57
(g78
g59
NtRp86
(dp87
g62
(dp88
S'_valign'
p89
S'top'
p90
ssg71
g74
sg64
(lp91
S':'
asbag57
(g78
g59
NtRp92
(dp93
g62
(dp94
sg71
g74
sg64
(lp95
g57
(g58
g59
NtRp96
(dp97
g62
(dp98
g70
I5
ssg71
g92
sg64
(lp99
S'False'
p100
asbasbasbag57
(g73
g59
NtRp101
(dp102
g62
(dp103
sg71
g67
sg64
(lp104
g57
(g78
g59
NtRp105
(dp106
g62
(dp107
g82
g83
ssg71
g101
sg64
(lp108
S'application'
p109
asbag57
(g78
g59
NtRp110
(dp111
g62
(dp112
g89
g90
ssg71
g101
sg64
(lp113
S':'
asbag57
(g78
g59
NtRp114
(dp115
g62
(dp116
sg71
g101
sg64
(lp117
g57
(g58
g59
NtRp118
(dp119
g62
(dp120
g70
I5
ssg71
g114
sg64
(lp121
S'sueldos'
p122
asbasbasbag57
(g73
g59
NtRp123
(dp124
g62
(dp125
sg71
g67
sg64
(lp126
g57
(g78
g59
NtRp127
(dp128
g62
(dp129
g82
g83
ssg71
g123
sg64
(lp130
g24
asbag57
(g78
g59
NtRp131
(dp132
g62
(dp133
g89
g90
ssg71
g123
sg64
(lp134
S':'
asbag57
(g78
g59
NtRp135
(dp136
g62
(dp137
sg71
g123
sg64
(lp138
g57
(g58
g59
NtRp139
(dp140
g62
(dp141
g70
I5
ssg71
g135
sg64
(lp142
g57
(g66
g59
NtRp143
(dp144
g62
(dp145
g70
I4
ssg71
Nsg64
(lp146
sbasbasbasbag57
(g73
g59
NtRp147
(dp148
g62
(dp149
sg71
g67
sg64
(lp150
g57
(g78
g59
NtRp151
(dp152
g62
(dp153
g82
g83
ssg71
g147
sg64
(lp154
S'body'
p155
asbag57
(g78
g59
NtRp156
(dp157
g62
(dp158
g89
g90
ssg71
g147
sg64
(lp159
S':'
asbag57
(g78
g59
NtRp160
(dp161
g62
(dp162
sg71
g147
sg64
(lp163
g57
(g58
g59
NtRp164
(dp165
g62
(dp166
g70
I5
ssg71
g160
sg64
(lp167
S"<open file '<fdopen>', mode 'w+b' at 0x38956f0>"
p168
asbasbasbag57
(g73
g59
NtRp169
(dp170
g62
(dp171
sg71
g67
sg64
(lp172
g57
(g78
g59
NtRp173
(dp174
g62
(dp175
g82
g83
ssg71
g169
sg64
(lp176
S'cid'
p177
asbag57
(g78
g59
NtRp178
(dp179
g62
(dp180
g89
g90
ssg71
g169
sg64
(lp181
S':'
asbag57
(g78
g59
NtRp182
(dp183
g62
(dp184
sg71
g169
sg64
(lp185
g57
(g58
g59
NtRp186
(dp187
g62
(dp188
g70
I5
ssg71
g182
sg64
(lp189
S'None'
p190
asbasbasbag57
(g73
g59
NtRp191
(dp192
g62
(dp193
sg71
g67
sg64
(lp194
g57
(g78
g59
NtRp195
(dp196
g62
(dp197
g82
g83
ssg71
g191
sg64
(lp198
S'client'
p199
asbag57
(g78
g59
NtRp200
(dp201
g62
(dp202
g89
g90
ssg71
g191
sg64
(lp203
S':'
asbag57
(g78
g59
NtRp204
(dp205
g62
(dp206
sg71
g191
sg64
(lp207
g57
(g58
g59
NtRp208
(dp209
g62
(dp210
g70
I5
ssg71
g204
sg64
(lp211
S'127.0.0.1'
p212
asbasbasbag57
(g73
g59
NtRp213
(dp214
g62
(dp215
sg71
g67
sg64
(lp216
g57
(g78
g59
NtRp217
(dp218
g62
(dp219
g82
g83
ssg71
g213
sg64
(lp220
S'controller'
p221
asbag57
(g78
g59
NtRp222
(dp223
g62
(dp224
g89
g90
ssg71
g213
sg64
(lp225
S':'
asbag57
(g78
g59
NtRp226
(dp227
g62
(dp228
sg71
g213
sg64
(lp229
g57
(g58
g59
NtRp230
(dp231
g62
(dp232
g70
I5
ssg71
g226
sg64
(lp233
S'vistas'
p234
asbasbasbag57
(g73
g59
NtRp235
(dp236
g62
(dp237
sg71
g67
sg64
(lp238
g57
(g78
g59
NtRp239
(dp240
g62
(dp241
g82
g83
ssg71
g235
sg64
(lp242
S'cookies'
p243
asbag57
(g78
g59
NtRp244
(dp245
g62
(dp246
g89
g90
ssg71
g235
sg64
(lp247
S':'
asbag57
(g78
g59
NtRp248
(dp249
g62
(dp250
sg71
g235
sg64
(lp251
g57
(g58
g59
NtRp252
(dp253
g62
(dp254
g70
I5
ssg71
g248
sg64
(lp255
g57
(g66
g59
NtRp256
(dp257
g62
(dp258
g70
I4
ssg71
Nsg64
(lp259
g57
(g73
g59
NtRp260
(dp261
g62
(dp262
sg71
g256
sg64
(lp263
g57
(g78
g59
NtRp264
(dp265
g62
(dp266
g82
g83
ssg71
g260
sg64
(lp267
S'session_id_admin'
p268
asbag57
(g78
g59
NtRp269
(dp270
g62
(dp271
g89
g90
ssg71
g260
sg64
(lp272
S':'
asbag57
(g78
g59
NtRp273
(dp274
g62
(dp275
sg71
g260
sg64
(lp276
g57
(g58
g59
NtRp277
(dp278
g62
(dp279
g70
I4
ssg71
g273
sg64
(lp280
S'127.0.0.1-02abd043-fc6c-40a0-be95-723d18a22c5d'
p281
ag57
(g66
g59
NtRp282
(dp283
g62
(dp284
g70
I3
ssg71
Nsg64
(lp285
g57
(g73
g59
NtRp286
(dp287
g62
(dp288
sg71
g282
sg64
(lp289
g57
(g78
g59
NtRp290
(dp291
g62
(dp292
g82
g83
ssg71
g286
sg64
(lp293
S'comment'
p294
asbag57
(g78
g59
NtRp295
(dp296
g62
(dp297
g89
g90
ssg71
g286
sg64
(lp298
S':'
asbag57
(g78
g59
NtRp299
(dp300
g62
(dp301
sg71
g286
sg64
(lp302
g57
(g58
g59
NtRp303
(dp304
g62
(dp305
g70
I3
ssg71
g299
sg64
(lp306
S''
asbasbasbag57
(g73
g59
NtRp307
(dp308
g62
(dp309
sg71
g282
sg64
(lp310
g57
(g78
g59
NtRp311
(dp312
g62
(dp313
g82
g83
ssg71
g307
sg64
(lp314
S'domain'
p315
asbag57
(g78
g59
NtRp316
(dp317
g62
(dp318
g89
g90
ssg71
g307
sg64
(lp319
S':'
asbag57
(g78
g59
NtRp320
(dp321
g62
(dp322
sg71
g307
sg64
(lp323
g57
(g58
g59
NtRp324
(dp325
g62
(dp326
g70
I3
ssg71
g320
sg64
(lp327
S''
asbasbasbag57
(g73
g59
NtRp328
(dp329
g62
(dp330
sg71
g282
sg64
(lp331
g57
(g78
g59
NtRp332
(dp333
g62
(dp334
g82
g83
ssg71
g328
sg64
(lp335
S'expires'
p336
asbag57
(g78
g59
NtRp337
(dp338
g62
(dp339
g89
g90
ssg71
g328
sg64
(lp340
S':'
asbag57
(g78
g59
NtRp341
(dp342
g62
(dp343
sg71
g328
sg64
(lp344
g57
(g58
g59
NtRp345
(dp346
g62
(dp347
g70
I3
ssg71
g341
sg64
(lp348
S''
asbasbasbag57
(g73
g59
NtRp349
(dp350
g62
(dp351
sg71
g282
sg64
(lp352
g57
(g78
g59
NtRp353
(dp354
g62
(dp355
g82
g83
ssg71
g349
sg64
(lp356
S'httponly'
p357
asbag57
(g78
g59
NtRp358
(dp359
g62
(dp360
g89
g90
ssg71
g349
sg64
(lp361
S':'
asbag57
(g78
g59
NtRp362
(dp363
g62
(dp364
sg71
g349
sg64
(lp365
g57
(g58
g59
NtRp366
(dp367
g62
(dp368
g70
I3
ssg71
g362
sg64
(lp369
S''
asbasbasbag57
(g73
g59
NtRp370
(dp371
g62
(dp372
sg71
g282
sg64
(lp373
g57
(g78
g59
NtRp374
(dp375
g62
(dp376
g82
g83
ssg71
g370
sg64
(lp377
S'max-age'
p378
asbag57
(g78
g59
NtRp379
(dp380
g62
(dp381
g89
g90
ssg71
g370
sg64
(lp382
S':'
asbag57
(g78
g59
NtRp383
(dp384
g62
(dp385
sg71
g370
sg64
(lp386
g57
(g58
g59
NtRp387
(dp388
g62
(dp389
g70
I3
ssg71
g383
sg64
(lp390
S''
asbasbasbag57
(g73
g59
NtRp391
(dp392
g62
(dp393
sg71
g282
sg64
(lp394
g57
(g78
g59
NtRp395
(dp396
g62
(dp397
g82
g83
ssg71
g391
sg64
(lp398
S'path'
p399
asbag57
(g78
g59
NtRp400
(dp401
g62
(dp402
g89
g90
ssg71
g391
sg64
(lp403
S':'
asbag57
(g78
g59
NtRp404
(dp405
g62
(dp406
sg71
g391
sg64
(lp407
g57
(g58
g59
NtRp408
(dp409
g62
(dp410
g70
I3
ssg71
g404
sg64
(lp411
S''
asbasbasbag57
(g73
g59
NtRp412
(dp413
g62
(dp414
sg71
g282
sg64
(lp415
g57
(g78
g59
NtRp416
(dp417
g62
(dp418
g82
g83
ssg71
g412
sg64
(lp419
S'secure'
p420
asbag57
(g78
g59
NtRp421
(dp422
g62
(dp423
g89
g90
ssg71
g412
sg64
(lp424
S':'
asbag57
(g78
g59
NtRp425
(dp426
g62
(dp427
sg71
g412
sg64
(lp428
g57
(g58
g59
NtRp429
(dp430
g62
(dp431
g70
I3
ssg71
g425
sg64
(lp432
S''
asbasbasbag57
(g73
g59
NtRp433
(dp434
g62
(dp435
sg71
g282
sg64
(lp436
g57
(g78
g59
NtRp437
(dp438
g62
(dp439
g82
g83
ssg71
g433
sg64
(lp440
S'version'
p441
asbag57
(g78
g59
NtRp442
(dp443
g62
(dp444
g89
g90
ssg71
g433
sg64
(lp445
S':'
asbag57
(g78
g59
NtRp446
(dp447
g62
(dp448
sg71
g433
sg64
(lp449
g57
(g58
g59
NtRp450
(dp451
g62
(dp452
g70
I3
ssg71
g446
sg64
(lp453
S''
asbasbasbasbasbasbasbag57
(g73
g59
NtRp454
(dp455
g62
(dp456
sg71
g256
sg64
(lp457
g57
(g78
g59
NtRp458
(dp459
g62
(dp460
g82
g83
ssg71
g454
sg64
(lp461
S'session_id_sueldos'
p462
asbag57
(g78
g59
NtRp463
(dp464
g62
(dp465
g89
g90
ssg71
g454
sg64
(lp466
S':'
asbag57
(g78
g59
NtRp467
(dp468
g62
(dp469
sg71
g454
sg64
(lp470
g57
(g58
g59
NtRp471
(dp472
g62
(dp473
g70
I4
ssg71
g467
sg64
(lp474
S'127.0.0.1-05ce4365-dc54-4394-bd3e-60890d75bc96'
p475
ag57
(g66
g59
NtRp476
(dp477
g62
(dp478
g70
I3
ssg71
Nsg64
(lp479
g57
(g73
g59
NtRp480
(dp481
g62
(dp482
sg71
g476
sg64
(lp483
g57
(g78
g59
NtRp484
(dp485
g62
(dp486
g82
g83
ssg71
g480
sg64
(lp487
g294
asbag57
(g78
g59
NtRp488
(dp489
g62
(dp490
g89
g90
ssg71
g480
sg64
(lp491
S':'
asbag57
(g78
g59
NtRp492
(dp493
g62
(dp494
sg71
g480
sg64
(lp495
g57
(g58
g59
NtRp496
(dp497
g62
(dp498
g70
I3
ssg71
g492
sg64
(lp499
S''
asbasbasbag57
(g73
g59
NtRp500
(dp501
g62
(dp502
sg71
g476
sg64
(lp503
g57
(g78
g59
NtRp504
(dp505
g62
(dp506
g82
g83
ssg71
g500
sg64
(lp507
g315
asbag57
(g78
g59
NtRp508
(dp509
g62
(dp510
g89
g90
ssg71
g500
sg64
(lp511
S':'
asbag57
(g78
g59
NtRp512
(dp513
g62
(dp514
sg71
g500
sg64
(lp515
g57
(g58
g59
NtRp516
(dp517
g62
(dp518
g70
I3
ssg71
g512
sg64
(lp519
S''
asbasbasbag57
(g73
g59
NtRp520
(dp521
g62
(dp522
sg71
g476
sg64
(lp523
g57
(g78
g59
NtRp524
(dp525
g62
(dp526
g82
g83
ssg71
g520
sg64
(lp527
g336
asbag57
(g78
g59
NtRp528
(dp529
g62
(dp530
g89
g90
ssg71
g520
sg64
(lp531
S':'
asbag57
(g78
g59
NtRp532
(dp533
g62
(dp534
sg71
g520
sg64
(lp535
g57
(g58
g59
NtRp536
(dp537
g62
(dp538
g70
I3
ssg71
g532
sg64
(lp539
S''
asbasbasbag57
(g73
g59
NtRp540
(dp541
g62
(dp542
sg71
g476
sg64
(lp543
g57
(g78
g59
NtRp544
(dp545
g62
(dp546
g82
g83
ssg71
g540
sg64
(lp547
g357
asbag57
(g78
g59
NtRp548
(dp549
g62
(dp550
g89
g90
ssg71
g540
sg64
(lp551
S':'
asbag57
(g78
g59
NtRp552
(dp553
g62
(dp554
sg71
g540
sg64
(lp555
g57
(g58
g59
NtRp556
(dp557
g62
(dp558
g70
I3
ssg71
g552
sg64
(lp559
S''
asbasbasbag57
(g73
g59
NtRp560
(dp561
g62
(dp562
sg71
g476
sg64
(lp563
g57
(g78
g59
NtRp564
(dp565
g62
(dp566
g82
g83
ssg71
g560
sg64
(lp567
g378
asbag57
(g78
g59
NtRp568
(dp569
g62
(dp570
g89
g90
ssg71
g560
sg64
(lp571
S':'
asbag57
(g78
g59
NtRp572
(dp573
g62
(dp574
sg71
g560
sg64
(lp575
g57
(g58
g59
NtRp576
(dp577
g62
(dp578
g70
I3
ssg71
g572
sg64
(lp579
S''
asbasbasbag57
(g73
g59
NtRp580
(dp581
g62
(dp582
sg71
g476
sg64
(lp583
g57
(g78
g59
NtRp584
(dp585
g62
(dp586
g82
g83
ssg71
g580
sg64
(lp587
g399
asbag57
(g78
g59
NtRp588
(dp589
g62
(dp590
g89
g90
ssg71
g580
sg64
(lp591
S':'
asbag57
(g78
g59
NtRp592
(dp593
g62
(dp594
sg71
g580
sg64
(lp595
g57
(g58
g59
NtRp596
(dp597
g62
(dp598
g70
I3
ssg71
g592
sg64
(lp599
S''
asbasbasbag57
(g73
g59
NtRp600
(dp601
g62
(dp602
sg71
g476
sg64
(lp603
g57
(g78
g59
NtRp604
(dp605
g62
(dp606
g82
g83
ssg71
g600
sg64
(lp607
g420
asbag57
(g78
g59
NtRp608
(dp609
g62
(dp610
g89
g90
ssg71
g600
sg64
(lp611
S':'
asbag57
(g78
g59
NtRp612
(dp613
g62
(dp614
sg71
g600
sg64
(lp615
g57
(g58
g59
NtRp616
(dp617
g62
(dp618
g70
I3
ssg71
g612
sg64
(lp619
S''
asbasbasbag57
(g73
g59
NtRp620
(dp621
g62
(dp622
sg71
g476
sg64
(lp623
g57
(g78
g59
NtRp624
(dp625
g62
(dp626
g82
g83
ssg71
g620
sg64
(lp627
g441
asbag57
(g78
g59
NtRp628
(dp629
g62
(dp630
g89
g90
ssg71
g620
sg64
(lp631
S':'
asbag57
(g78
g59
NtRp632
(dp633
g62
(dp634
sg71
g620
sg64
(lp635
g57
(g58
g59
NtRp636
(dp637
g62
(dp638
g70
I3
ssg71
g632
sg64
(lp639
S''
asbasbasbasbasbasbasbasbasbasbasbag57
(g73
g59
NtRp640
(dp641
g62
(dp642
sg71
g67
sg64
(lp643
g57
(g78
g59
NtRp644
(dp645
g62
(dp646
g82
g83
ssg71
g640
sg64
(lp647
S'env'
p648
asbag57
(g78
g59
NtRp649
(dp650
g62
(dp651
g89
g90
ssg71
g640
sg64
(lp652
S':'
asbag57
(g78
g59
NtRp653
(dp654
g62
(dp655
sg71
g640
sg64
(lp656
g57
(g58
g59
NtRp657
(dp658
g62
(dp659
g70
I5
ssg71
g653
sg64
(lp660
g57
(g66
g59
NtRp661
(dp662
g62
(dp663
g70
I4
ssg71
Nsg64
(lp664
g57
(g73
g59
NtRp665
(dp666
g62
(dp667
sg71
g661
sg64
(lp668
g57
(g78
g59
NtRp669
(dp670
g62
(dp671
g82
g83
ssg71
g665
sg64
(lp672
S'app_folders'
p673
asbag57
(g78
g59
NtRp674
(dp675
g62
(dp676
g89
g90
ssg71
g665
sg64
(lp677
S':'
asbag57
(g78
g59
NtRp678
(dp679
g62
(dp680
sg71
g665
sg64
(lp681
g57
(g58
g59
NtRp682
(dp683
g62
(dp684
g70
I4
ssg71
g678
sg64
(lp685
S"set(['/home/marco/projects/contabilidad/web2py/applications/admin/', '/home/marco/projects/contabilidad/web2py/applications/sueldos/'])"
p686
asbasbasbag57
(g73
g59
NtRp687
(dp688
g62
(dp689
sg71
g661
sg64
(lp690
g57
(g78
g59
NtRp691
(dp692
g62
(dp693
g82
g83
ssg71
g687
sg64
(lp694
S'applications_parent'
p695
asbag57
(g78
g59
NtRp696
(dp697
g62
(dp698
g89
g90
ssg71
g687
sg64
(lp699
S':'
asbag57
(g78
g59
NtRp700
(dp701
g62
(dp702
sg71
g687
sg64
(lp703
g57
(g58
g59
NtRp704
(dp705
g62
(dp706
g70
I4
ssg71
g700
sg64
(lp707
S'/home/marco/projects/contabilidad/web2py'
p708
asbasbasbag57
(g73
g59
NtRp709
(dp710
g62
(dp711
sg71
g661
sg64
(lp712
g57
(g78
g59
NtRp713
(dp714
g62
(dp715
g82
g83
ssg71
g709
sg64
(lp716
S'cmd_args'
p717
asbag57
(g78
g59
NtRp718
(dp719
g62
(dp720
g89
g90
ssg71
g709
sg64
(lp721
S':'
asbag57
(g78
g59
NtRp722
(dp723
g62
(dp724
sg71
g709
sg64
(lp725
g57
(g58
g59
NtRp726
(dp727
g62
(dp728
g70
I4
ssg71
g722
sg64
(lp729
g57
(g66
g59
NtRp730
(dp731
g62
(dp732
g70
I3
ssg71
Nsg64
(lp733
sbasbasbasbag57
(g73
g59
NtRp734
(dp735
g62
(dp736
sg71
g661
sg64
(lp737
g57
(g78
g59
NtRp738
(dp739
g62
(dp740
g82
g83
ssg71
g734
sg64
(lp741
S'cmd_options'
p742
asbag57
(g78
g59
NtRp743
(dp744
g62
(dp745
g89
g90
ssg71
g734
sg64
(lp746
S':'
asbag57
(g78
g59
NtRp747
(dp748
g62
(dp749
sg71
g734
sg64
(lp750
g57
(g58
g59
NtRp751
(dp752
g62
(dp753
g70
I4
ssg71
g747
sg64
(lp754
S"<Values at 0x2e6b5a8: {'verbose': False, 'ip': '127.0.0.1', 'with_scheduler': False, 'ips': [], 'shutdown_timeout': 5, 'taskbar': False, 'port': 8000, 'maxthreads': None, 'softcron': False, 'server_name': 'malena', 'bpython': False, 'nogui': False, 'pid_filename': 'httpserver.pid', 'extcron': False, 'runcron': False, 'run_system_tests': False, 'test': None, 'folder': '/home/marco/projects/contabilidad/web2py', 'config': '', 'minthreads': None, 'winservice': '', 'shell': None, 'run': '', 'log_filename': 'httpserver.log', 'debuglevel': 30, 'args': [''], 'socket_timeout': 5, 'ssl_ca_certificate': None, 'scheduler': None, 'profiler_filename': None, 'ssl_private_key': '', 'scheduler_groups': None, 'password': 'asd', 'request_queue_size': 5, 'ssl_certificate': '', 'cronjob': False, 'numthreads': None, 'quiet': False, 'interfaces': None, 'import_models': False, 'timeout': 10, 'plain': False, 'nobanner': False}>"
p755
asbasbasbag57
(g73
g59
NtRp756
(dp757
g62
(dp758
sg71
g661
sg64
(lp759
g57
(g78
g59
NtRp760
(dp761
g62
(dp762
g82
g83
ssg71
g756
sg64
(lp763
S'content_length'
p764
asbag57
(g78
g59
NtRp765
(dp766
g62
(dp767
g89
g90
ssg71
g756
sg64
(lp768
S':'
asbag57
(g78
g59
NtRp769
(dp770
g62
(dp771
sg71
g756
sg64
(lp772
g57
(g58
g59
NtRp773
(dp774
g62
(dp775
g70
I4
ssg71
g769
sg64
(lp776
S'832'
p777
asbasbasbag57
(g73
g59
NtRp778
(dp779
g62
(dp780
sg71
g661
sg64
(lp781
g57
(g78
g59
NtRp782
(dp783
g62
(dp784
g82
g83
ssg71
g778
sg64
(lp785
S'content_type'
p786
asbag57
(g78
g59
NtRp787
(dp788
g62
(dp789
g89
g90
ssg71
g778
sg64
(lp790
S':'
asbag57
(g78
g59
NtRp791
(dp792
g62
(dp793
sg71
g778
sg64
(lp794
g57
(g58
g59
NtRp795
(dp796
g62
(dp797
g70
I4
ssg71
g791
sg64
(lp798
S'multipart/form-data; boundary=---------------------------2076939554339745923244923471'
p799
asbasbasbag57
(g73
g59
NtRp800
(dp801
g62
(dp802
sg71
g661
sg64
(lp803
g57
(g78
g59
NtRp804
(dp805
g62
(dp806
g82
g83
ssg71
g800
sg64
(lp807
S'db_sessions'
p808
asbag57
(g78
g59
NtRp809
(dp810
g62
(dp811
g89
g90
ssg71
g800
sg64
(lp812
S':'
asbag57
(g78
g59
NtRp813
(dp814
g62
(dp815
sg71
g800
sg64
(lp816
g57
(g58
g59
NtRp817
(dp818
g62
(dp819
g70
I4
ssg71
g813
sg64
(lp820
S'set([])'
p821
asbasbasbag57
(g73
g59
NtRp822
(dp823
g62
(dp824
sg71
g661
sg64
(lp825
g57
(g78
g59
NtRp826
(dp827
g62
(dp828
g82
g83
ssg71
g822
sg64
(lp829
S'debugging'
p830
asbag57
(g78
g59
NtRp831
(dp832
g62
(dp833
g89
g90
ssg71
g822
sg64
(lp834
S':'
asbag57
(g78
g59
NtRp835
(dp836
g62
(dp837
sg71
g822
sg64
(lp838
g57
(g58
g59
NtRp839
(dp840
g62
(dp841
g70
I4
ssg71
g835
sg64
(lp842
g100
asbasbasbag57
(g73
g59
NtRp843
(dp844
g62
(dp845
sg71
g661
sg64
(lp846
g57
(g78
g59
NtRp847
(dp848
g62
(dp849
g82
g83
ssg71
g843
sg64
(lp850
S'gluon_parent'
p851
asbag57
(g78
g59
NtRp852
(dp853
g62
(dp854
g89
g90
ssg71
g843
sg64
(lp855
S':'
asbag57
(g78
g59
NtRp856
(dp857
g62
(dp858
sg71
g843
sg64
(lp859
g57
(g58
g59
NtRp860
(dp861
g62
(dp862
g70
I4
ssg71
g856
sg64
(lp863
S'/home/marco/projects/contabilidad/web2py'
p864
asbasbasbag57
(g73
g59
NtRp865
(dp866
g62
(dp867
sg71
g661
sg64
(lp868
g57
(g78
g59
NtRp869
(dp870
g62
(dp871
g82
g83
ssg71
g865
sg64
(lp872
S'http_accept'
p873
asbag57
(g78
g59
NtRp874
(dp875
g62
(dp876
g89
g90
ssg71
g865
sg64
(lp877
S':'
asbag57
(g78
g59
NtRp878
(dp879
g62
(dp880
sg71
g865
sg64
(lp881
g57
(g58
g59
NtRp882
(dp883
g62
(dp884
g70
I4
ssg71
g878
sg64
(lp885
S'text/html,application/xhtml+xml,application/xml;q=0.9,*/*;q=0.8'
p886
asbasbasbag57
(g73
g59
NtRp887
(dp888
g62
(dp889
sg71
g661
sg64
(lp890
g57
(g78
g59
NtRp891
(dp892
g62
(dp893
g82
g83
ssg71
g887
sg64
(lp894
S'http_accept_encoding'
p895
asbag57
(g78
g59
NtRp896
(dp897
g62
(dp898
g89
g90
ssg71
g887
sg64
(lp899
S':'
asbag57
(g78
g59
NtRp900
(dp901
g62
(dp902
sg71
g887
sg64
(lp903
g57
(g58
g59
NtRp904
(dp905
g62
(dp906
g70
I4
ssg71
g900
sg64
(lp907
S'gzip, deflate'
p908
asbasbasbag57
(g73
g59
NtRp909
(dp910
g62
(dp911
sg71
g661
sg64
(lp912
g57
(g78
g59
NtRp913
(dp914
g62
(dp915
g82
g83
ssg71
g909
sg64
(lp916
S'http_accept_language'
p917
asbag57
(g78
g59
NtRp918
(dp919
g62
(dp920
g89
g90
ssg71
g909
sg64
(lp921
S':'
asbag57
(g78
g59
NtRp922
(dp923
g62
(dp924
sg71
g909
sg64
(lp925
g57
(g58
g59
NtRp926
(dp927
g62
(dp928
g70
I4
ssg71
g922
sg64
(lp929
S'en-US,en;q=0.5'
p930
asbasbasbag57
(g73
g59
NtRp931
(dp932
g62
(dp933
sg71
g661
sg64
(lp934
g57
(g78
g59
NtRp935
(dp936
g62
(dp937
g82
g83
ssg71
g931
sg64
(lp938
S'http_cache_control'
p939
asbag57
(g78
g59
NtRp940
(dp941
g62
(dp942
g89
g90
ssg71
g931
sg64
(lp943
S':'
asbag57
(g78
g59
NtRp944
(dp945
g62
(dp946
sg71
g931
sg64
(lp947
g57
(g58
g59
NtRp948
(dp949
g62
(dp950
g70
I4
ssg71
g944
sg64
(lp951
S'max-age=0'
p952
asbasbasbag57
(g73
g59
NtRp953
(dp954
g62
(dp955
sg71
g661
sg64
(lp956
g57
(g78
g59
NtRp957
(dp958
g62
(dp959
g82
g83
ssg71
g953
sg64
(lp960
S'http_connection'
p961
asbag57
(g78
g59
NtRp962
(dp963
g62
(dp964
g89
g90
ssg71
g953
sg64
(lp965
S':'
asbag57
(g78
g59
NtRp966
(dp967
g62
(dp968
sg71
g953
sg64
(lp969
g57
(g58
g59
NtRp970
(dp971
g62
(dp972
g70
I4
ssg71
g966
sg64
(lp973
S'keep-alive'
p974
asbasbasbag57
(g73
g59
NtRp975
(dp976
g62
(dp977
sg71
g661
sg64
(lp978
g57
(g78
g59
NtRp979
(dp980
g62
(dp981
g82
g83
ssg71
g975
sg64
(lp982
S'http_content_length'
p983
asbag57
(g78
g59
NtRp984
(dp985
g62
(dp986
g89
g90
ssg71
g975
sg64
(lp987
S':'
asbag57
(g78
g59
NtRp988
(dp989
g62
(dp990
sg71
g975
sg64
(lp991
g57
(g58
g59
NtRp992
(dp993
g62
(dp994
g70
I4
ssg71
g988
sg64
(lp995
g777
asbasbasbag57
(g73
g59
NtRp996
(dp997
g62
(dp998
sg71
g661
sg64
(lp999
g57
(g78
g59
NtRp1000
(dp1001
g62
(dp1002
g82
g83
ssg71
g996
sg64
(lp1003
S'http_content_type'
p1004
asbag57
(g78
g59
NtRp1005
(dp1006
g62
(dp1007
g89
g90
ssg71
g996
sg64
(lp1008
S':'
asbag57
(g78
g59
NtRp1009
(dp1010
g62
(dp1011
sg71
g996
sg64
(lp1012
g57
(g58
g59
NtRp1013
(dp1014
g62
(dp1015
g70
I4
ssg71
g1009
sg64
(lp1016
g799
asbasbasbag57
(g73
g59
NtRp1017
(dp1018
g62
(dp1019
sg71
g661
sg64
(lp1020
g57
(g78
g59
NtRp1021
(dp1022
g62
(dp1023
g82
g83
ssg71
g1017
sg64
(lp1024
S'http_cookie'
p1025
asbag57
(g78
g59
NtRp1026
(dp1027
g62
(dp1028
g89
g90
ssg71
g1017
sg64
(lp1029
S':'
asbag57
(g78
g59
NtRp1030
(dp1031
g62
(dp1032
sg71
g1017
sg64
(lp1033
g57
(g58
g59
NtRp1034
(dp1035
g62
(dp1036
g70
I4
ssg71
g1030
sg64
(lp1037
S'session_id_sueldos=127.0.0.1-05ce4365-dc54-4394-bd3e-60890d75bc96; session_id_admin=127.0.0.1-02abd043-fc6c-40a0-be95-723d18a22c5d'
p1038
asbasbasbag57
(g73
g59
NtRp1039
(dp1040
g62
(dp1041
sg71
g661
sg64
(lp1042
g57
(g78
g59
NtRp1043
(dp1044
g62
(dp1045
g82
g83
ssg71
g1039
sg64
(lp1046
S'http_host'
p1047
asbag57
(g78
g59
NtRp1048
(dp1049
g62
(dp1050
g89
g90
ssg71
g1039
sg64
(lp1051
S':'
asbag57
(g78
g59
NtRp1052
(dp1053
g62
(dp1054
sg71
g1039
sg64
(lp1055
g57
(g58
g59
NtRp1056
(dp1057
g62
(dp1058
g70
I4
ssg71
g1052
sg64
(lp1059
S'127.0.0.1:8000'
p1060
asbasbasbag57
(g73
g59
NtRp1061
(dp1062
g62
(dp1063
sg71
g661
sg64
(lp1064
g57
(g78
g59
NtRp1065
(dp1066
g62
(dp1067
g82
g83
ssg71
g1061
sg64
(lp1068
S'http_referer'
p1069
asbag57
(g78
g59
NtRp1070
(dp1071
g62
(dp1072
g89
g90
ssg71
g1061
sg64
(lp1073
S':'
asbag57
(g78
g59
NtRp1074
(dp1075
g62
(dp1076
sg71
g1061
sg64
(lp1077
g57
(g58
g59
NtRp1078
(dp1079
g62
(dp1080
g70
I4
ssg71
g1074
sg64
(lp1081
S'http://127.0.0.1:8000/sueldos/vistas/escalas?gremio=1&sindicato=ALIMENTACI%C3%93N'
p1082
asbasbasbag57
(g73
g59
NtRp1083
(dp1084
g62
(dp1085
sg71
g661
sg64
(lp1086
g57
(g78
g59
NtRp1087
(dp1088
g62
(dp1089
g82
g83
ssg71
g1083
sg64
(lp1090
S'http_user_agent'
p1091
asbag57
(g78
g59
NtRp1092
(dp1093
g62
(dp1094
g89
g90
ssg71
g1083
sg64
(lp1095
S':'
asbag57
(g78
g59
NtRp1096
(dp1097
g62
(dp1098
sg71
g1083
sg64
(lp1099
g57
(g58
g59
NtRp1100
(dp1101
g62
(dp1102
g70
I4
ssg71
g1096
sg64
(lp1103
S'Mozilla/5.0 (X11; Linux x86_64; rv:18.0) Gecko/20100101 Firefox/18.0 Iceweasel/18.0'
p1104
asbasbasbag57
(g73
g59
NtRp1105
(dp1106
g62
(dp1107
sg71
g661
sg64
(lp1108
g57
(g78
g59
NtRp1109
(dp1110
g62
(dp1111
g82
g83
ssg71
g1105
sg64
(lp1112
S'is_jython'
p1113
asbag57
(g78
g59
NtRp1114
(dp1115
g62
(dp1116
g89
g90
ssg71
g1105
sg64
(lp1117
S':'
asbag57
(g78
g59
NtRp1118
(dp1119
g62
(dp1120
sg71
g1105
sg64
(lp1121
g57
(g58
g59
NtRp1122
(dp1123
g62
(dp1124
g70
I4
ssg71
g1118
sg64
(lp1125
g100
asbasbasbag57
(g73
g59
NtRp1126
(dp1127
g62
(dp1128
sg71
g661
sg64
(lp1129
g57
(g78
g59
NtRp1130
(dp1131
g62
(dp1132
g82
g83
ssg71
g1126
sg64
(lp1133
S'is_pypy'
p1134
asbag57
(g78
g59
NtRp1135
(dp1136
g62
(dp1137
g89
g90
ssg71
g1126
sg64
(lp1138
S':'
asbag57
(g78
g59
NtRp1139
(dp1140
g62
(dp1141
sg71
g1126
sg64
(lp1142
g57
(g58
g59
NtRp1143
(dp1144
g62
(dp1145
g70
I4
ssg71
g1139
sg64
(lp1146
g100
asbasbasbag57
(g73
g59
NtRp1147
(dp1148
g62
(dp1149
sg71
g661
sg64
(lp1150
g57
(g78
g59
NtRp1151
(dp1152
g62
(dp1153
g82
g83
ssg71
g1147
sg64
(lp1154
S'local_hosts'
p1155
asbag57
(g78
g59
NtRp1156
(dp1157
g62
(dp1158
g89
g90
ssg71
g1147
sg64
(lp1159
S':'
asbag57
(g78
g59
NtRp1160
(dp1161
g62
(dp1162
sg71
g1147
sg64
(lp1163
g57
(g58
g59
NtRp1164
(dp1165
g62
(dp1166
g70
I4
ssg71
g1160
sg64
(lp1167
g57
(g66
g59
NtRp1168
(dp1169
g62
(dp1170
g70
I3
ssg71
Nsg64
(lp1171
g57
(g73
g59
NtRp1172
(dp1173
g62
(dp1174
sg71
g1168
sg64
(lp1175
g57
(g78
g59
NtRp1176
(dp1177
g62
(dp1178
sg71
g1172
sg64
(lp1179
g57
(g58
g59
NtRp1180
(dp1181
g62
(dp1182
g70
I3
ssg71
g1176
sg64
(lp1183
S'malena'
p1184
asbasbasbag57
(g73
g59
NtRp1185
(dp1186
g62
(dp1187
sg71
g1168
sg64
(lp1188
g57
(g78
g59
NtRp1189
(dp1190
g62
(dp1191
sg71
g1185
sg64
(lp1192
g57
(g58
g59
NtRp1193
(dp1194
g62
(dp1195
g70
I3
ssg71
g1189
sg64
(lp1196
S'::1'
p1197
asbasbasbag57
(g73
g59
NtRp1198
(dp1199
g62
(dp1200
sg71
g1168
sg64
(lp1201
g57
(g78
g59
NtRp1202
(dp1203
g62
(dp1204
sg71
g1198
sg64
(lp1205
g57
(g58
g59
NtRp1206
(dp1207
g62
(dp1208
g70
I3
ssg71
g1202
sg64
(lp1209
S'127.0.1.1'
p1210
asbasbasbag57
(g73
g59
NtRp1211
(dp1212
g62
(dp1213
sg71
g1168
sg64
(lp1214
g57
(g78
g59
NtRp1215
(dp1216
g62
(dp1217
sg71
g1211
sg64
(lp1218
g57
(g58
g59
NtRp1219
(dp1220
g62
(dp1221
g70
I3
ssg71
g1215
sg64
(lp1222
S'::ffff:127.0.0.1'
p1223
asbasbasbag57
(g73
g59
NtRp1224
(dp1225
g62
(dp1226
sg71
g1168
sg64
(lp1227
g57
(g78
g59
NtRp1228
(dp1229
g62
(dp1230
sg71
g1224
sg64
(lp1231
g57
(g58
g59
NtRp1232
(dp1233
g62
(dp1234
g70
I3
ssg71
g1228
sg64
(lp1235
S'127.0.0.1'
p1236
asbasbasbasbasbasbasbag57
(g73
g59
NtRp1237
(dp1238
g62
(dp1239
sg71
g661
sg64
(lp1240
g57
(g78
g59
NtRp1241
(dp1242
g62
(dp1243
g82
g83
ssg71
g1237
sg64
(lp1244
S'path_info'
p1245
asbag57
(g78
g59
NtRp1246
(dp1247
g62
(dp1248
g89
g90
ssg71
g1237
sg64
(lp1249
S':'
asbag57
(g78
g59
NtRp1250
(dp1251
g62
(dp1252
sg71
g1237
sg64
(lp1253
g57
(g58
g59
NtRp1254
(dp1255
g62
(dp1256
g70
I4
ssg71
g1250
sg64
(lp1257
S'/sueldos/vistas/escalas'
p1258
asbasbasbag57
(g73
g59
NtRp1259
(dp1260
g62
(dp1261
sg71
g661
sg64
(lp1262
g57
(g78
g59
NtRp1263
(dp1264
g62
(dp1265
g82
g83
ssg71
g1259
sg64
(lp1266
S'query_string'
p1267
asbag57
(g78
g59
NtRp1268
(dp1269
g62
(dp1270
g89
g90
ssg71
g1259
sg64
(lp1271
S':'
asbag57
(g78
g59
NtRp1272
(dp1273
g62
(dp1274
sg71
g1259
sg64
(lp1275
g57
(g58
g59
NtRp1276
(dp1277
g62
(dp1278
g70
I4
ssg71
g1272
sg64
(lp1279
S'gremio=1&sindicato=ALIMENTACI%C3%93N'
p1280
asbasbasbag57
(g73
g59
NtRp1281
(dp1282
g62
(dp1283
sg71
g661
sg64
(lp1284
g57
(g78
g59
NtRp1285
(dp1286
g62
(dp1287
g82
g83
ssg71
g1281
sg64
(lp1288
S'remote_addr'
p1289
asbag57
(g78
g59
NtRp1290
(dp1291
g62
(dp1292
g89
g90
ssg71
g1281
sg64
(lp1293
S':'
asbag57
(g78
g59
NtRp1294
(dp1295
g62
(dp1296
sg71
g1281
sg64
(lp1297
g57
(g58
g59
NtRp1298
(dp1299
g62
(dp1300
g70
I4
ssg71
g1294
sg64
(lp1301
g212
asbasbasbag57
(g73
g59
NtRp1302
(dp1303
g62
(dp1304
sg71
g661
sg64
(lp1305
g57
(g78
g59
NtRp1306
(dp1307
g62
(dp1308
g82
g83
ssg71
g1302
sg64
(lp1309
S'remote_port'
p1310
asbag57
(g78
g59
NtRp1311
(dp1312
g62
(dp1313
g89
g90
ssg71
g1302
sg64
(lp1314
S':'
asbag57
(g78
g59
NtRp1315
(dp1316
g62
(dp1317
sg71
g1302
sg64
(lp1318
g57
(g58
g59
NtRp1319
(dp1320
g62
(dp1321
g70
I4
ssg71
g1315
sg64
(lp1322
S'50454'
p1323
asbasbasbag57
(g73
g59
NtRp1324
(dp1325
g62
(dp1326
sg71
g661
sg64
(lp1327
g57
(g78
g59
NtRp1328
(dp1329
g62
(dp1330
g82
g83
ssg71
g1324
sg64
(lp1331
S'request_method'
p1332
asbag57
(g78
g59
NtRp1333
(dp1334
g62
(dp1335
g89
g90
ssg71
g1324
sg64
(lp1336
S':'
asbag57
(g78
g59
NtRp1337
(dp1338
g62
(dp1339
sg71
g1324
sg64
(lp1340
g57
(g58
g59
NtRp1341
(dp1342
g62
(dp1343
g70
I4
ssg71
g1337
sg64
(lp1344
S'POST'
p1345
asbasbasbag57
(g73
g59
NtRp1346
(dp1347
g62
(dp1348
sg71
g661
sg64
(lp1349
g57
(g78
g59
NtRp1350
(dp1351
g62
(dp1352
g82
g83
ssg71
g1346
sg64
(lp1353
S'request_uri'
p1354
asbag57
(g78
g59
NtRp1355
(dp1356
g62
(dp1357
g89
g90
ssg71
g1346
sg64
(lp1358
S':'
asbag57
(g78
g59
NtRp1359
(dp1360
g62
(dp1361
sg71
g1346
sg64
(lp1362
g57
(g58
g59
NtRp1363
(dp1364
g62
(dp1365
g70
I4
ssg71
g1359
sg64
(lp1366
S'/sueldos/vistas/escalas?gremio=1&sindicato=ALIMENTACI%C3%93N'
p1367
asbasbasbag57
(g73
g59
NtRp1368
(dp1369
g62
(dp1370
sg71
g661
sg64
(lp1371
g57
(g78
g59
NtRp1372
(dp1373
g62
(dp1374
g82
g83
ssg71
g1368
sg64
(lp1375
S'script_name'
p1376
asbag57
(g78
g59
NtRp1377
(dp1378
g62
(dp1379
g89
g90
ssg71
g1368
sg64
(lp1380
S':'
asbag57
(g78
g59
NtRp1381
(dp1382
g62
(dp1383
sg71
g1368
sg64
(lp1384
g57
(g58
g59
NtRp1385
(dp1386
g62
(dp1387
g70
I4
ssg71
g1381
sg64
(lp1388
S''
asbasbasbag57
(g73
g59
NtRp1389
(dp1390
g62
(dp1391
sg71
g661
sg64
(lp1392
g57
(g78
g59
NtRp1393
(dp1394
g62
(dp1395
g82
g83
ssg71
g1389
sg64
(lp1396
S'server_name'
p1397
asbag57
(g78
g59
NtRp1398
(dp1399
g62
(dp1400
g89
g90
ssg71
g1389
sg64
(lp1401
S':'
asbag57
(g78
g59
NtRp1402
(dp1403
g62
(dp1404
sg71
g1389
sg64
(lp1405
g57
(g58
g59
NtRp1406
(dp1407
g62
(dp1408
g70
I4
ssg71
g1402
sg64
(lp1409
S'malena'
p1410
asbasbasbag57
(g73
g59
NtRp1411
(dp1412
g62
(dp1413
sg71
g661
sg64
(lp1414
g57
(g78
g59
NtRp1415
(dp1416
g62
(dp1417
g82
g83
ssg71
g1411
sg64
(lp1418
S'server_port'
p1419
asbag57
(g78
g59
NtRp1420
(dp1421
g62
(dp1422
g89
g90
ssg71
g1411
sg64
(lp1423
S':'
asbag57
(g78
g59
NtRp1424
(dp1425
g62
(dp1426
sg71
g1411
sg64
(lp1427
g57
(g58
g59
NtRp1428
(dp1429
g62
(dp1430
g70
I4
ssg71
g1424
sg64
(lp1431
S'8000'
p1432
asbasbasbag57
(g73
g59
NtRp1433
(dp1434
g62
(dp1435
sg71
g661
sg64
(lp1436
g57
(g78
g59
NtRp1437
(dp1438
g62
(dp1439
g82
g83
ssg71
g1433
sg64
(lp1440
S'server_protocol'
p1441
asbag57
(g78
g59
NtRp1442
(dp1443
g62
(dp1444
g89
g90
ssg71
g1433
sg64
(lp1445
S':'
asbag57
(g78
g59
NtRp1446
(dp1447
g62
(dp1448
sg71
g1433
sg64
(lp1449
g57
(g58
g59
NtRp1450
(dp1451
g62
(dp1452
g70
I4
ssg71
g1446
sg64
(lp1453
S'HTTP/1.1'
p1454
asbasbasbag57
(g73
g59
NtRp1455
(dp1456
g62
(dp1457
sg71
g661
sg64
(lp1458
g57
(g78
g59
NtRp1459
(dp1460
g62
(dp1461
g82
g83
ssg71
g1455
sg64
(lp1462
S'server_software'
p1463
asbag57
(g78
g59
NtRp1464
(dp1465
g62
(dp1466
g89
g90
ssg71
g1455
sg64
(lp1467
S':'
asbag57
(g78
g59
NtRp1468
(dp1469
g62
(dp1470
sg71
g1455
sg64
(lp1471
g57
(g58
g59
NtRp1472
(dp1473
g62
(dp1474
g70
I4
ssg71
g1468
sg64
(lp1475
S'Rocket 1.2.6'
p1476
asbasbasbag57
(g73
g59
NtRp1477
(dp1478
g62
(dp1479
sg71
g661
sg64
(lp1480
g57
(g78
g59
NtRp1481
(dp1482
g62
(dp1483
g82
g83
ssg71
g1477
sg64
(lp1484
S'web2py_path'
p1485
asbag57
(g78
g59
NtRp1486
(dp1487
g62
(dp1488
g89
g90
ssg71
g1477
sg64
(lp1489
S':'
asbag57
(g78
g59
NtRp1490
(dp1491
g62
(dp1492
sg71
g1477
sg64
(lp1493
g57
(g58
g59
NtRp1494
(dp1495
g62
(dp1496
g70
I4
ssg71
g1490
sg64
(lp1497
g708
asbasbasbag57
(g73
g59
NtRp1498
(dp1499
g62
(dp1500
sg71
g661
sg64
(lp1501
g57
(g78
g59
NtRp1502
(dp1503
g62
(dp1504
g82
g83
ssg71
g1498
sg64
(lp1505
S'web2py_version'
p1506
asbag57
(g78
g59
NtRp1507
(dp1508
g62
(dp1509
g89
g90
ssg71
g1498
sg64
(lp1510
S':'
asbag57
(g78
g59
NtRp1511
(dp1512
g62
(dp1513
sg71
g1498
sg64
(lp1514
g57
(g58
g59
NtRp1515
(dp1516
g62
(dp1517
g70
I4
ssg71
g1511
sg64
(lp1518
g57
(g66
g59
NtRp1519
(dp1520
g62
(dp1521
g70
I3
ssg71
Nsg64
(lp1522
g57
(g73
g59
NtRp1523
(dp1524
g62
(dp1525
sg71
g1519
sg64
(lp1526
g57
(g78
g59
NtRp1527
(dp1528
g62
(dp1529
sg71
g1523
sg64
(lp1530
g57
(g58
g59
NtRp1531
(dp1532
g62
(dp1533
g70
I3
ssg71
g1527
sg64
(lp1534
S'2'
asbasbasbag57
(g73
g59
NtRp1535
(dp1536
g62
(dp1537
sg71
g1519
sg64
(lp1538
g57
(g78
g59
NtRp1539
(dp1540
g62
(dp1541
sg71
g1535
sg64
(lp1542
g57
(g58
g59
NtRp1543
(dp1544
g62
(dp1545
g70
I3
ssg71
g1539
sg64
(lp1546
S'4'
asbasbasbag57
(g73
g59
NtRp1547
(dp1548
g62
(dp1549
sg71
g1519
sg64
(lp1550
g57
(g78
g59
NtRp1551
(dp1552
g62
(dp1553
sg71
g1547
sg64
(lp1554
g57
(g58
g59
NtRp1555
(dp1556
g62
(dp1557
g70
I3
ssg71
g1551
sg64
(lp1558
S'1'
asbasbasbag57
(g73
g59
NtRp1559
(dp1560
g62
(dp1561
sg71
g1519
sg64
(lp1562
g57
(g78
g59
NtRp1563
(dp1564
g62
(dp1565
sg71
g1559
sg64
(lp1566
g57
(g58
g59
NtRp1567
(dp1568
g62
(dp1569
g70
I3
ssg71
g1563
sg64
(lp1570
S'alpha.2'
p1571
asbasbasbag57
(g73
g59
NtRp1572
(dp1573
g62
(dp1574
sg71
g1519
sg64
(lp1575
g57
(g78
g59
NtRp1576
(dp1577
g62
(dp1578
sg71
g1572
sg64
(lp1579
g57
(g58
g59
NtRp1580
(dp1581
g62
(dp1582
g70
I3
ssg71
g1576
sg64
(lp1583
S'datetime.datetime(2013, 1, 10, 21, 26, 18)'
p1584
asbasbasbasbasbasbasbag57
(g73
g59
NtRp1585
(dp1586
g62
(dp1587
sg71
g661
sg64
(lp1588
g57
(g78
g59
NtRp1589
(dp1590
g62
(dp1591
g82
g83
ssg71
g1585
sg64
(lp1592
S'wsgi_errors'
p1593
asbag57
(g78
g59
NtRp1594
(dp1595
g62
(dp1596
g89
g90
ssg71
g1585
sg64
(lp1597
S':'
asbag57
(g78
g59
NtRp1598
(dp1599
g62
(dp1600
sg71
g1585
sg64
(lp1601
g57
(g58
g59
NtRp1602
(dp1603
g62
(dp1604
g70
I4
ssg71
g1598
sg64
(lp1605
S"<open file '<stderr>', mode 'w' at 0x7fa88a0fa270>"
p1606
asbasbasbag57
(g73
g59
NtRp1607
(dp1608
g62
(dp1609
sg71
g661
sg64
(lp1610
g57
(g78
g59
NtRp1611
(dp1612
g62
(dp1613
g82
g83
ssg71
g1607
sg64
(lp1614
S'wsgi_file_wrapper'
p1615
asbag57
(g78
g59
NtRp1616
(dp1617
g62
(dp1618
g89
g90
ssg71
g1607
sg64
(lp1619
S':'
asbag57
(g78
g59
NtRp1620
(dp1621
g62
(dp1622
sg71
g1607
sg64
(lp1623
g57
(g58
g59
NtRp1624
(dp1625
g62
(dp1626
g70
I4
ssg71
g1620
sg64
(lp1627
S'<class wsgiref.util.FileWrapper at 0x2dd24c8>'
p1628
asbasbasbag57
(g73
g59
NtRp1629
(dp1630
g62
(dp1631
sg71
g661
sg64
(lp1632
g57
(g78
g59
NtRp1633
(dp1634
g62
(dp1635
g82
g83
ssg71
g1629
sg64
(lp1636
S'wsgi_input'
p1637
asbag57
(g78
g59
NtRp1638
(dp1639
g62
(dp1640
g89
g90
ssg71
g1629
sg64
(lp1641
S':'
asbag57
(g78
g59
NtRp1642
(dp1643
g62
(dp1644
sg71
g1629
sg64
(lp1645
g57
(g58
g59
NtRp1646
(dp1647
g62
(dp1648
g70
I4
ssg71
g1642
sg64
(lp1649
S'<socket._fileobject object at 0x3caead0>'
p1650
asbasbasbag57
(g73
g59
NtRp1651
(dp1652
g62
(dp1653
sg71
g661
sg64
(lp1654
g57
(g78
g59
NtRp1655
(dp1656
g62
(dp1657
g82
g83
ssg71
g1651
sg64
(lp1658
S'wsgi_multiprocess'
p1659
asbag57
(g78
g59
NtRp1660
(dp1661
g62
(dp1662
g89
g90
ssg71
g1651
sg64
(lp1663
S':'
asbag57
(g78
g59
NtRp1664
(dp1665
g62
(dp1666
sg71
g1651
sg64
(lp1667
g57
(g58
g59
NtRp1668
(dp1669
g62
(dp1670
g70
I4
ssg71
g1664
sg64
(lp1671
g100
asbasbasbag57
(g73
g59
NtRp1672
(dp1673
g62
(dp1674
sg71
g661
sg64
(lp1675
g57
(g78
g59
NtRp1676
(dp1677
g62
(dp1678
g82
g83
ssg71
g1672
sg64
(lp1679
S'wsgi_multithread'
p1680
asbag57
(g78
g59
NtRp1681
(dp1682
g62
(dp1683
g89
g90
ssg71
g1672
sg64
(lp1684
S':'
asbag57
(g78
g59
NtRp1685
(dp1686
g62
(dp1687
sg71
g1672
sg64
(lp1688
g57
(g58
g59
NtRp1689
(dp1690
g62
(dp1691
g70
I4
ssg71
g1685
sg64
(lp1692
S'True'
p1693
asbasbasbag57
(g73
g59
NtRp1694
(dp1695
g62
(dp1696
sg71
g661
sg64
(lp1697
g57
(g78
g59
NtRp1698
(dp1699
g62
(dp1700
g82
g83
ssg71
g1694
sg64
(lp1701
S'wsgi_run_once'
p1702
asbag57
(g78
g59
NtRp1703
(dp1704
g62
(dp1705
g89
g90
ssg71
g1694
sg64
(lp1706
S':'
asbag57
(g78
g59
NtRp1707
(dp1708
g62
(dp1709
sg71
g1694
sg64
(lp1710
g57
(g58
g59
NtRp1711
(dp1712
g62
(dp1713
g70
I4
ssg71
g1707
sg64
(lp1714
g100
asbasbasbag57
(g73
g59
NtRp1715
(dp1716
g62
(dp1717
sg71
g661
sg64
(lp1718
g57
(g78
g59
NtRp1719
(dp1720
g62
(dp1721
g82
g83
ssg71
g1715
sg64
(lp1722
S'wsgi_url_scheme'
p1723
asbag57
(g78
g59
NtRp1724
(dp1725
g62
(dp1726
g89
g90
ssg71
g1715
sg64
(lp1727
S':'
asbag57
(g78
g59
NtRp1728
(dp1729
g62
(dp1730
sg71
g1715
sg64
(lp1731
g57
(g58
g59
NtRp1732
(dp1733
g62
(dp1734
g70
I4
ssg71
g1728
sg64
(lp1735
S'http'
p1736
asbasbasbag57
(g73
g59
NtRp1737
(dp1738
g62
(dp1739
sg71
g661
sg64
(lp1740
g57
(g78
g59
NtRp1741
(dp1742
g62
(dp1743
g82
g83
ssg71
g1737
sg64
(lp1744
S'wsgi_version'
p1745
asbag57
(g78
g59
NtRp1746
(dp1747
g62
(dp1748
g89
g90
ssg71
g1737
sg64
(lp1749
S':'
asbag57
(g78
g59
NtRp1750
(dp1751
g62
(dp1752
sg71
g1737
sg64
(lp1753
g57
(g58
g59
NtRp1754
(dp1755
g62
(dp1756
g70
I4
ssg71
g1750
sg64
(lp1757
g57
(g66
g59
NtRp1758
(dp1759
g62
(dp1760
g70
I3
ssg71
Nsg64
(lp1761
g57
(g73
g59
NtRp1762
(dp1763
g62
(dp1764
sg71
g1758
sg64
(lp1765
g57
(g78
g59
NtRp1766
(dp1767
g62
(dp1768
sg71
g1762
sg64
(lp1769
g57
(g58
g59
NtRp1770
(dp1771
g62
(dp1772
g70
I3
ssg71
g1766
sg64
(lp1773
S'1'
asbasbasbag57
(g73
g59
NtRp1774
(dp1775
g62
(dp1776
sg71
g1758
sg64
(lp1777
g57
(g78
g59
NtRp1778
(dp1779
g62
(dp1780
sg71
g1774
sg64
(lp1781
g57
(g58
g59
NtRp1782
(dp1783
g62
(dp1784
g70
I3
ssg71
g1778
sg64
(lp1785
S'0'
asbasbasbasbasbasbasbasbasbasbasbag57
(g73
g59
NtRp1786
(dp1787
g62
(dp1788
sg71
g67
sg64
(lp1789
g57
(g78
g59
NtRp1790
(dp1791
g62
(dp1792
g82
g83
ssg71
g1786
sg64
(lp1793
S'extension'
p1794
asbag57
(g78
g59
NtRp1795
(dp1796
g62
(dp1797
g89
g90
ssg71
g1786
sg64
(lp1798
S':'
asbag57
(g78
g59
NtRp1799
(dp1800
g62
(dp1801
sg71
g1786
sg64
(lp1802
g57
(g58
g59
NtRp1803
(dp1804
g62
(dp1805
g70
I5
ssg71
g1799
sg64
(lp1806
S'html'
p1807
asbasbasbag57
(g73
g59
NtRp1808
(dp1809
g62
(dp1810
sg71
g67
sg64
(lp1811
g57
(g78
g59
NtRp1812
(dp1813
g62
(dp1814
g82
g83
ssg71
g1808
sg64
(lp1815
S'folder'
p1816
asbag57
(g78
g59
NtRp1817
(dp1818
g62
(dp1819
g89
g90
ssg71
g1808
sg64
(lp1820
S':'
asbag57
(g78
g59
NtRp1821
(dp1822
g62
(dp1823
sg71
g1808
sg64
(lp1824
g57
(g58
g59
NtRp1825
(dp1826
g62
(dp1827
g70
I5
ssg71
g1821
sg64
(lp1828
S'/home/marco/projects/contabilidad/web2py/applications/sueldos/'
p1829
asbasbasbag57
(g73
g59
NtRp1830
(dp1831
g62
(dp1832
sg71
g67
sg64
(lp1833
g57
(g78
g59
NtRp1834
(dp1835
g62
(dp1836
g82
g83
ssg71
g1830
sg64
(lp1837
S'function'
p1838
asbag57
(g78
g59
NtRp1839
(dp1840
g62
(dp1841
g89
g90
ssg71
g1830
sg64
(lp1842
S':'
asbag57
(g78
g59
NtRp1843
(dp1844
g62
(dp1845
sg71
g1830
sg64
(lp1846
g57
(g58
g59
NtRp1847
(dp1848
g62
(dp1849
g70
I5
ssg71
g1843
sg64
(lp1850
S'escalas'
p1851
asbasbasbag57
(g73
g59
NtRp1852
(dp1853
g62
(dp1854
sg71
g67
sg64
(lp1855
g57
(g78
g59
NtRp1856
(dp1857
g62
(dp1858
g82
g83
ssg71
g1852
sg64
(lp1859
S'get_vars'
p1860
asbag57
(g78
g59
NtRp1861
(dp1862
g62
(dp1863
g89
g90
ssg71
g1852
sg64
(lp1864
S':'
asbag57
(g78
g59
NtRp1865
(dp1866
g62
(dp1867
sg71
g1852
sg64
(lp1868
g57
(g58
g59
NtRp1869
(dp1870
g62
(dp1871
g70
I5
ssg71
g1865
sg64
(lp1872
g57
(g66
g59
NtRp1873
(dp1874
g62
(dp1875
g70
I4
ssg71
Nsg64
(lp1876
g57
(g73
g59
NtRp1877
(dp1878
g62
(dp1879
sg71
g1873
sg64
(lp1880
g57
(g78
g59
NtRp1881
(dp1882
g62
(dp1883
g82
g83
ssg71
g1877
sg64
(lp1884
S'gremio'
p1885
asbag57
(g78
g59
NtRp1886
(dp1887
g62
(dp1888
g89
g90
ssg71
g1877
sg64
(lp1889
S':'
asbag57
(g78
g59
NtRp1890
(dp1891
g62
(dp1892
sg71
g1877
sg64
(lp1893
g57
(g58
g59
NtRp1894
(dp1895
g62
(dp1896
g70
I4
ssg71
g1890
sg64
(lp1897
S'1'
asbasbasbag57
(g73
g59
NtRp1898
(dp1899
g62
(dp1900
sg71
g1873
sg64
(lp1901
g57
(g78
g59
NtRp1902
(dp1903
g62
(dp1904
g82
g83
ssg71
g1898
sg64
(lp1905
S'sindicato'
p1906
asbag57
(g78
g59
NtRp1907
(dp1908
g62
(dp1909
g89
g90
ssg71
g1898
sg64
(lp1910
S':'
asbag57
(g78
g59
NtRp1911
(dp1912
g62
(dp1913
sg71
g1898
sg64
(lp1914
g57
(g58
g59
NtRp1915
(dp1916
g62
(dp1917
g70
I4
ssg71
g1911
sg64
(lp1918
S'ALIMENTACI\xc3\x93N'
p1919
asbasbasbasbasbasbasbag57
(g73
g59
NtRp1920
(dp1921
g62
(dp1922
sg71
g67
sg64
(lp1923
g57
(g78
g59
NtRp1924
(dp1925
g62
(dp1926
g82
g83
ssg71
g1920
sg64
(lp1927
S'global_settings'
p1928
asbag57
(g78
g59
NtRp1929
(dp1930
g62
(dp1931
g89
g90
ssg71
g1920
sg64
(lp1932
S':'
asbag57
(g78
g59
NtRp1933
(dp1934
g62
(dp1935
sg71
g1920
sg64
(lp1936
g57
(g58
g59
NtRp1937
(dp1938
g62
(dp1939
g70
I5
ssg71
g1933
sg64
(lp1940
g57
(g66
g59
NtRp1941
(dp1942
g62
(dp1943
g70
I4
ssg71
Nsg64
(lp1944
g57
(g73
g59
NtRp1945
(dp1946
g62
(dp1947
sg71
g1941
sg64
(lp1948
g57
(g78
g59
NtRp1949
(dp1950
g62
(dp1951
g82
g83
ssg71
g1945
sg64
(lp1952
g673
asbag57
(g78
g59
NtRp1953
(dp1954
g62
(dp1955
g89
g90
ssg71
g1945
sg64
(lp1956
S':'
asbag57
(g78
g59
NtRp1957
(dp1958
g62
(dp1959
sg71
g1945
sg64
(lp1960
g57
(g58
g59
NtRp1961
(dp1962
g62
(dp1963
g70
I4
ssg71
g1957
sg64
(lp1964
S"set(['/home/marco/projects/contabilidad/web2py/applications/admin/', '/home/marco/projects/contabilidad/web2py/applications/sueldos/'])"
p1965
asbasbasbag57
(g73
g59
NtRp1966
(dp1967
g62
(dp1968
sg71
g1941
sg64
(lp1969
g57
(g78
g59
NtRp1970
(dp1971
g62
(dp1972
g82
g83
ssg71
g1966
sg64
(lp1973
g695
asbag57
(g78
g59
NtRp1974
(dp1975
g62
(dp1976
g89
g90
ssg71
g1966
sg64
(lp1977
S':'
asbag57
(g78
g59
NtRp1978
(dp1979
g62
(dp1980
sg71
g1966
sg64
(lp1981
g57
(g58
g59
NtRp1982
(dp1983
g62
(dp1984
g70
I4
ssg71
g1978
sg64
(lp1985
g708
asbasbasbag57
(g73
g59
NtRp1986
(dp1987
g62
(dp1988
sg71
g1941
sg64
(lp1989
g57
(g78
g59
NtRp1990
(dp1991
g62
(dp1992
g82
g83
ssg71
g1986
sg64
(lp1993
g717
asbag57
(g78
g59
NtRp1994
(dp1995
g62
(dp1996
g89
g90
ssg71
g1986
sg64
(lp1997
S':'
asbag57
(g78
g59
NtRp1998
(dp1999
g62
(dp2000
sg71
g1986
sg64
(lp2001
g57
(g58
g59
NtRp2002
(dp2003
g62
(dp2004
g70
I4
ssg71
g1998
sg64
(lp2005
g57
(g66
g59
NtRp2006
(dp2007
g62
(dp2008
g70
I3
ssg71
Nsg64
(lp2009
sbasbasbasbag57
(g73
g59
NtRp2010
(dp2011
g62
(dp2012
sg71
g1941
sg64
(lp2013
g57
(g78
g59
NtRp2014
(dp2015
g62
(dp2016
g82
g83
ssg71
g2010
sg64
(lp2017
g742
asbag57
(g78
g59
NtRp2018
(dp2019
g62
(dp2020
g89
g90
ssg71
g2010
sg64
(lp2021
S':'
asbag57
(g78
g59
NtRp2022
(dp2023
g62
(dp2024
sg71
g2010
sg64
(lp2025
g57
(g58
g59
NtRp2026
(dp2027
g62
(dp2028
g70
I4
ssg71
g2022
sg64
(lp2029
S"<Values at 0x2e6b5a8: {'verbose': False, 'ip': '127.0.0.1', 'with_scheduler': False, 'ips': [], 'shutdown_timeout': 5, 'taskbar': False, 'port': 8000, 'maxthreads': None, 'softcron': False, 'server_name': 'malena', 'bpython': False, 'nogui': False, 'pid_filename': 'httpserver.pid', 'extcron': False, 'runcron': False, 'run_system_tests': False, 'test': None, 'folder': '/home/marco/projects/contabilidad/web2py', 'config': '', 'minthreads': None, 'winservice': '', 'shell': None, 'run': '', 'log_filename': 'httpserver.log', 'debuglevel': 30, 'args': [''], 'socket_timeout': 5, 'ssl_ca_certificate': None, 'scheduler': None, 'profiler_filename': None, 'ssl_private_key': '', 'scheduler_groups': None, 'password': 'asd', 'request_queue_size': 5, 'ssl_certificate': '', 'cronjob': False, 'numthreads': None, 'quiet': False, 'interfaces': None, 'import_models': False, 'timeout': 10, 'plain': False, 'nobanner': False}>"
p2030
asbasbasbag57
(g73
g59
NtRp2031
(dp2032
g62
(dp2033
sg71
g1941
sg64
(lp2034
g57
(g78
g59
NtRp2035
(dp2036
g62
(dp2037
g82
g83
ssg71
g2031
sg64
(lp2038
g808
asbag57
(g78
g59
NtRp2039
(dp2040
g62
(dp2041
g89
g90
ssg71
g2031
sg64
(lp2042
S':'
asbag57
(g78
g59
NtRp2043
(dp2044
g62
(dp2045
sg71
g2031
sg64
(lp2046
g57
(g58
g59
NtRp2047
(dp2048
g62
(dp2049
g70
I4
ssg71
g2043
sg64
(lp2050
S'set([])'
p2051
asbasbasbag57
(g73
g59
NtRp2052
(dp2053
g62
(dp2054
sg71
g1941
sg64
(lp2055
g57
(g78
g59
NtRp2056
(dp2057
g62
(dp2058
g82
g83
ssg71
g2052
sg64
(lp2059
g830
asbag57
(g78
g59
NtRp2060
(dp2061
g62
(dp2062
g89
g90
ssg71
g2052
sg64
(lp2063
S':'
asbag57
(g78
g59
NtRp2064
(dp2065
g62
(dp2066
sg71
g2052
sg64
(lp2067
g57
(g58
g59
NtRp2068
(dp2069
g62
(dp2070
g70
I4
ssg71
g2064
sg64
(lp2071
g100
asbasbasbag57
(g73
g59
NtRp2072
(dp2073
g62
(dp2074
sg71
g1941
sg64
(lp2075
g57
(g78
g59
NtRp2076
(dp2077
g62
(dp2078
g82
g83
ssg71
g2072
sg64
(lp2079
g851
asbag57
(g78
g59
NtRp2080
(dp2081
g62
(dp2082
g89
g90
ssg71
g2072
sg64
(lp2083
S':'
asbag57
(g78
g59
NtRp2084
(dp2085
g62
(dp2086
sg71
g2072
sg64
(lp2087
g57
(g58
g59
NtRp2088
(dp2089
g62
(dp2090
g70
I4
ssg71
g2084
sg64
(lp2091
g864
asbasbasbag57
(g73
g59
NtRp2092
(dp2093
g62
(dp2094
sg71
g1941
sg64
(lp2095
g57
(g78
g59
NtRp2096
(dp2097
g62
(dp2098
g82
g83
ssg71
g2092
sg64
(lp2099
g1113
asbag57
(g78
g59
NtRp2100
(dp2101
g62
(dp2102
g89
g90
ssg71
g2092
sg64
(lp2103
S':'
asbag57
(g78
g59
NtRp2104
(dp2105
g62
(dp2106
sg71
g2092
sg64
(lp2107
g57
(g58
g59
NtRp2108
(dp2109
g62
(dp2110
g70
I4
ssg71
g2104
sg64
(lp2111
g100
asbasbasbag57
(g73
g59
NtRp2112
(dp2113
g62
(dp2114
sg71
g1941
sg64
(lp2115
g57
(g78
g59
NtRp2116
(dp2117
g62
(dp2118
g82
g83
ssg71
g2112
sg64
(lp2119
g1134
asbag57
(g78
g59
NtRp2120
(dp2121
g62
(dp2122
g89
g90
ssg71
g2112
sg64
(lp2123
S':'
asbag57
(g78
g59
NtRp2124
(dp2125
g62
(dp2126
sg71
g2112
sg64
(lp2127
g57
(g58
g59
NtRp2128
(dp2129
g62
(dp2130
g70
I4
ssg71
g2124
sg64
(lp2131
g100
asbasbasbag57
(g73
g59
NtRp2132
(dp2133
g62
(dp2134
sg71
g1941
sg64
(lp2135
g57
(g78
g59
NtRp2136
(dp2137
g62
(dp2138
g82
g83
ssg71
g2132
sg64
(lp2139
g1155
asbag57
(g78
g59
NtRp2140
(dp2141
g62
(dp2142
g89
g90
ssg71
g2132
sg64
(lp2143
S':'
asbag57
(g78
g59
NtRp2144
(dp2145
g62
(dp2146
sg71
g2132
sg64
(lp2147
g57
(g58
g59
NtRp2148
(dp2149
g62
(dp2150
g70
I4
ssg71
g2144
sg64
(lp2151
g57
(g66
g59
NtRp2152
(dp2153
g62
(dp2154
g70
I3
ssg71
Nsg64
(lp2155
g57
(g73
g59
NtRp2156
(dp2157
g62
(dp2158
sg71
g2152
sg64
(lp2159
g57
(g78
g59
NtRp2160
(dp2161
g62
(dp2162
sg71
g2156
sg64
(lp2163
g57
(g58
g59
NtRp2164
(dp2165
g62
(dp2166
g70
I3
ssg71
g2160
sg64
(lp2167
g1184
asbasbasbag57
(g73
g59
NtRp2168
(dp2169
g62
(dp2170
sg71
g2152
sg64
(lp2171
g57
(g78
g59
NtRp2172
(dp2173
g62
(dp2174
sg71
g2168
sg64
(lp2175
g57
(g58
g59
NtRp2176
(dp2177
g62
(dp2178
g70
I3
ssg71
g2172
sg64
(lp2179
g1197
asbasbasbag57
(g73
g59
NtRp2180
(dp2181
g62
(dp2182
sg71
g2152
sg64
(lp2183
g57
(g78
g59
NtRp2184
(dp2185
g62
(dp2186
sg71
g2180
sg64
(lp2187
g57
(g58
g59
NtRp2188
(dp2189
g62
(dp2190
g70
I3
ssg71
g2184
sg64
(lp2191
g1210
asbasbasbag57
(g73
g59
NtRp2192
(dp2193
g62
(dp2194
sg71
g2152
sg64
(lp2195
g57
(g78
g59
NtRp2196
(dp2197
g62
(dp2198
sg71
g2192
sg64
(lp2199
g57
(g58
g59
NtRp2200
(dp2201
g62
(dp2202
g70
I3
ssg71
g2196
sg64
(lp2203
g1223
asbasbasbag57
(g73
g59
NtRp2204
(dp2205
g62
(dp2206
sg71
g2152
sg64
(lp2207
g57
(g78
g59
NtRp2208
(dp2209
g62
(dp2210
sg71
g2204
sg64
(lp2211
g57
(g58
g59
NtRp2212
(dp2213
g62
(dp2214
g70
I3
ssg71
g2208
sg64
(lp2215
g1236
asbasbasbasbasbasbasbag57
(g73
g59
NtRp2216
(dp2217
g62
(dp2218
sg71
g1941
sg64
(lp2219
g57
(g78
g59
NtRp2220
(dp2221
g62
(dp2222
g82
g83
ssg71
g2216
sg64
(lp2223
g1506
asbag57
(g78
g59
NtRp2224
(dp2225
g62
(dp2226
g89
g90
ssg71
g2216
sg64
(lp2227
S':'
asbag57
(g78
g59
NtRp2228
(dp2229
g62
(dp2230
sg71
g2216
sg64
(lp2231
g57
(g58
g59
NtRp2232
(dp2233
g62
(dp2234
g70
I4
ssg71
g2228
sg64
(lp2235
g57
(g66
g59
NtRp2236
(dp2237
g62
(dp2238
g70
I3
ssg71
Nsg64
(lp2239
g57
(g73
g59
NtRp2240
(dp2241
g62
(dp2242
sg71
g2236
sg64
(lp2243
g57
(g78
g59
NtRp2244
(dp2245
g62
(dp2246
sg71
g2240
sg64
(lp2247
g57
(g58
g59
NtRp2248
(dp2249
g62
(dp2250
g70
I3
ssg71
g2244
sg64
(lp2251
S'2'
asbasbasbag57
(g73
g59
NtRp2252
(dp2253
g62
(dp2254
sg71
g2236
sg64
(lp2255
g57
(g78
g59
NtRp2256
(dp2257
g62
(dp2258
sg71
g2252
sg64
(lp2259
g57
(g58
g59
NtRp2260
(dp2261
g62
(dp2262
g70
I3
ssg71
g2256
sg64
(lp2263
S'4'
asbasbasbag57
(g73
g59
NtRp2264
(dp2265
g62
(dp2266
sg71
g2236
sg64
(lp2267
g57
(g78
g59
NtRp2268
(dp2269
g62
(dp2270
sg71
g2264
sg64
(lp2271
g57
(g58
g59
NtRp2272
(dp2273
g62
(dp2274
g70
I3
ssg71
g2268
sg64
(lp2275
S'1'
asbasbasbag57
(g73
g59
NtRp2276
(dp2277
g62
(dp2278
sg71
g2236
sg64
(lp2279
g57
(g78
g59
NtRp2280
(dp2281
g62
(dp2282
sg71
g2276
sg64
(lp2283
g57
(g58
g59
NtRp2284
(dp2285
g62
(dp2286
g70
I3
ssg71
g2280
sg64
(lp2287
g1571
asbasbasbag57
(g73
g59
NtRp2288
(dp2289
g62
(dp2290
sg71
g2236
sg64
(lp2291
g57
(g78
g59
NtRp2292
(dp2293
g62
(dp2294
sg71
g2288
sg64
(lp2295
g57
(g58
g59
NtRp2296
(dp2297
g62
(dp2298
g70
I3
ssg71
g2292
sg64
(lp2299
S'datetime.datetime(2013, 1, 10, 21, 26, 18)'
p2300
asbasbasbasbasbasbasbasbasbasbasbag57
(g73
g59
NtRp2301
(dp2302
g62
(dp2303
sg71
g67
sg64
(lp2304
g57
(g78
g59
NtRp2305
(dp2306
g62
(dp2307
g82
g83
ssg71
g2301
sg64
(lp2308
S'is_https'
p2309
asbag57
(g78
g59
NtRp2310
(dp2311
g62
(dp2312
g89
g90
ssg71
g2301
sg64
(lp2313
S':'
asbag57
(g78
g59
NtRp2314
(dp2315
g62
(dp2316
sg71
g2301
sg64
(lp2317
g57
(g58
g59
NtRp2318
(dp2319
g62
(dp2320
g70
I5
ssg71
g2314
sg64
(lp2321
g100
asbasbasbag57
(g73
g59
NtRp2322
(dp2323
g62
(dp2324
sg71
g67
sg64
(lp2325
g57
(g78
g59
NtRp2326
(dp2327
g62
(dp2328
g82
g83
ssg71
g2322
sg64
(lp2329
S'is_local'
p2330
asbag57
(g78
g59
NtRp2331
(dp2332
g62
(dp2333
g89
g90
ssg71
g2322
sg64
(lp2334
S':'
asbag57
(g78
g59
NtRp2335
(dp2336
g62
(dp2337
sg71
g2322
sg64
(lp2338
g57
(g58
g59
NtRp2339
(dp2340
g62
(dp2341
g70
I5
ssg71
g2335
sg64
(lp2342
g1693
asbasbasbag57
(g73
g59
NtRp2343
(dp2344
g62
(dp2345
sg71
g67
sg64
(lp2346
g57
(g78
g59
NtRp2347
(dp2348
g62
(dp2349
g82
g83
ssg71
g2343
sg64
(lp2350
S'is_restful'
p2351
asbag57
(g78
g59
NtRp2352
(dp2353
g62
(dp2354
g89
g90
ssg71
g2343
sg64
(lp2355
S':'
asbag57
(g78
g59
NtRp2356
(dp2357
g62
(dp2358
sg71
g2343
sg64
(lp2359
g57
(g58
g59
NtRp2360
(dp2361
g62
(dp2362
g70
I5
ssg71
g2356
sg64
(lp2363
g100
asbasbasbag57
(g73
g59
NtRp2364
(dp2365
g62
(dp2366
sg71
g67
sg64
(lp2367
g57
(g78
g59
NtRp2368
(dp2369
g62
(dp2370
g82
g83
ssg71
g2364
sg64
(lp2371
S'now'
p2372
asbag57
(g78
g59
NtRp2373
(dp2374
g62
(dp2375
g89
g90
ssg71
g2364
sg64
(lp2376
S':'
asbag57
(g78
g59
NtRp2377
(dp2378
g62
(dp2379
sg71
g2364
sg64
(lp2380
g57
(g58
g59
NtRp2381
(dp2382
g62
(dp2383
g70
I5
ssg71
g2377
sg64
(lp2384
S'datetime.datetime(2013, 1, 22, 15, 19, 5, 347571)'
p2385
asbasbasbag57
(g73
g59
NtRp2386
(dp2387
g62
(dp2388
sg71
g67
sg64
(lp2389
g57
(g78
g59
NtRp2390
(dp2391
g62
(dp2392
g82
g83
ssg71
g2386
sg64
(lp2393
S'post_vars'
p2394
asbag57
(g78
g59
NtRp2395
(dp2396
g62
(dp2397
g89
g90
ssg71
g2386
sg64
(lp2398
S':'
asbag57
(g78
g59
NtRp2399
(dp2400
g62
(dp2401
sg71
g2386
sg64
(lp2402
g57
(g58
g59
NtRp2403
(dp2404
g62
(dp2405
g70
I5
ssg71
g2399
sg64
(lp2406
g57
(g66
g59
NtRp2407
(dp2408
g62
(dp2409
g70
I4
ssg71
Nsg64
(lp2410
g57
(g73
g59
NtRp2411
(dp2412
g62
(dp2413
sg71
g2407
sg64
(lp2414
g57
(g78
g59
NtRp2415
(dp2416
g62
(dp2417
g82
g83
ssg71
g2411
sg64
(lp2418
S'basico'
p2419
asbag57
(g78
g59
NtRp2420
(dp2421
g62
(dp2422
g89
g90
ssg71
g2411
sg64
(lp2423
S':'
asbag57
(g78
g59
NtRp2424
(dp2425
g62
(dp2426
sg71
g2411
sg64
(lp2427
g57
(g58
g59
NtRp2428
(dp2429
g62
(dp2430
g70
I4
ssg71
g2424
sg64
(lp2431
S'4544'
p2432
asbasbasbag57
(g73
g59
NtRp2433
(dp2434
g62
(dp2435
sg71
g2407
sg64
(lp2436
g57
(g78
g59
NtRp2437
(dp2438
g62
(dp2439
g82
g83
ssg71
g2433
sg64
(lp2440
S'gremio'
p2441
asbag57
(g78
g59
NtRp2442
(dp2443
g62
(dp2444
g89
g90
ssg71
g2433
sg64
(lp2445
S':'
asbag57
(g78
g59
NtRp2446
(dp2447
g62
(dp2448
sg71
g2433
sg64
(lp2449
g57
(g58
g59
NtRp2450
(dp2451
g62
(dp2452
g70
I4
ssg71
g2446
sg64
(lp2453
S'1'
asbasbasbag57
(g73
g59
NtRp2454
(dp2455
g62
(dp2456
sg71
g2407
sg64
(lp2457
g57
(g78
g59
NtRp2458
(dp2459
g62
(dp2460
g82
g83
ssg71
g2454
sg64
(lp2461
S'nombre'
p2462
asbag57
(g78
g59
NtRp2463
(dp2464
g62
(dp2465
g89
g90
ssg71
g2454
sg64
(lp2466
S':'
asbag57
(g78
g59
NtRp2467
(dp2468
g62
(dp2469
sg71
g2454
sg64
(lp2470
g57
(g58
g59
NtRp2471
(dp2472
g62
(dp2473
g70
I4
ssg71
g2467
sg64
(lp2474
S'administrativo A'
p2475
asbasbasbasbasbasbasbag57
(g73
g59
NtRp2476
(dp2477
g62
(dp2478
sg71
g67
sg64
(lp2479
g57
(g78
g59
NtRp2480
(dp2481
g62
(dp2482
g82
g83
ssg71
g2476
sg64
(lp2483
S'raw_args'
p2484
asbag57
(g78
g59
NtRp2485
(dp2486
g62
(dp2487
g89
g90
ssg71
g2476
sg64
(lp2488
S':'
asbag57
(g78
g59
NtRp2489
(dp2490
g62
(dp2491
sg71
g2476
sg64
(lp2492
g57
(g58
g59
NtRp2493
(dp2494
g62
(dp2495
g70
I5
ssg71
g2489
sg64
(lp2496
S''
asbasbasbag57
(g73
g59
NtRp2497
(dp2498
g62
(dp2499
sg71
g67
sg64
(lp2500
g57
(g78
g59
NtRp2501
(dp2502
g62
(dp2503
g82
g83
ssg71
g2497
sg64
(lp2504
S'raw_extension'
p2505
asbag57
(g78
g59
NtRp2506
(dp2507
g62
(dp2508
g89
g90
ssg71
g2497
sg64
(lp2509
S':'
asbag57
(g78
g59
NtRp2510
(dp2511
g62
(dp2512
sg71
g2497
sg64
(lp2513
g57
(g58
g59
NtRp2514
(dp2515
g62
(dp2516
g70
I5
ssg71
g2510
sg64
(lp2517
S'None'
p2518
asbasbasbag57
(g73
g59
NtRp2519
(dp2520
g62
(dp2521
sg71
g67
sg64
(lp2522
g57
(g78
g59
NtRp2523
(dp2524
g62
(dp2525
g82
g83
ssg71
g2519
sg64
(lp2526
S'url'
p2527
asbag57
(g78
g59
NtRp2528
(dp2529
g62
(dp2530
g89
g90
ssg71
g2519
sg64
(lp2531
S':'
asbag57
(g78
g59
NtRp2532
(dp2533
g62
(dp2534
sg71
g2519
sg64
(lp2535
g57
(g58
g59
NtRp2536
(dp2537
g62
(dp2538
g70
I5
ssg71
g2532
sg64
(lp2539
g1258
asbasbasbag57
(g73
g59
NtRp2540
(dp2541
g62
(dp2542
sg71
g67
sg64
(lp2543
g57
(g78
g59
NtRp2544
(dp2545
g62
(dp2546
g82
g83
ssg71
g2540
sg64
(lp2547
S'utcnow'
p2548
asbag57
(g78
g59
NtRp2549
(dp2550
g62
(dp2551
g89
g90
ssg71
g2540
sg64
(lp2552
S':'
asbag57
(g78
g59
NtRp2553
(dp2554
g62
(dp2555
sg71
g2540
sg64
(lp2556
g57
(g58
g59
NtRp2557
(dp2558
g62
(dp2559
g70
I5
ssg71
g2553
sg64
(lp2560
S'datetime.datetime(2013, 1, 22, 18, 19, 5, 347603)'
p2561
asbasbasbag57
(g73
g59
NtRp2562
(dp2563
g62
(dp2564
sg71
g67
sg64
(lp2565
g57
(g78
g59
NtRp2566
(dp2567
g62
(dp2568
g82
g83
ssg71
g2562
sg64
(lp2569
S'uuid'
p2570
asbag57
(g78
g59
NtRp2571
(dp2572
g62
(dp2573
g89
g90
ssg71
g2562
sg64
(lp2574
S':'
asbag57
(g78
g59
NtRp2575
(dp2576
g62
(dp2577
sg71
g2562
sg64
(lp2578
g57
(g58
g59
NtRp2579
(dp2580
g62
(dp2581
g70
I5
ssg71
g2575
sg64
(lp2582
S'sueldos/127.0.0.1.2013-01-22.15-19-05.fdec4306-34ab-491f-a348-707cd2b45911'
p2583
asbasbasbag57
(g73
g59
NtRp2584
(dp2585
g62
(dp2586
sg71
g67
sg64
(lp2587
g57
(g78
g59
NtRp2588
(dp2589
g62
(dp2590
g82
g83
ssg71
g2584
sg64
(lp2591
S'vars'
p2592
asbag57
(g78
g59
NtRp2593
(dp2594
g62
(dp2595
g89
g90
ssg71
g2584
sg64
(lp2596
S':'
asbag57
(g78
g59
NtRp2597
(dp2598
g62
(dp2599
sg71
g2584
sg64
(lp2600
g57
(g58
g59
NtRp2601
(dp2602
g62
(dp2603
g70
I5
ssg71
g2597
sg64
(lp2604
g57
(g66
g59
NtRp2605
(dp2606
g62
(dp2607
g70
I4
ssg71
Nsg64
(lp2608
g57
(g73
g59
NtRp2609
(dp2610
g62
(dp2611
sg71
g2605
sg64
(lp2612
g57
(g78
g59
NtRp2613
(dp2614
g62
(dp2615
g82
g83
ssg71
g2609
sg64
(lp2616
g2419
asbag57
(g78
g59
NtRp2617
(dp2618
g62
(dp2619
g89
g90
ssg71
g2609
sg64
(lp2620
S':'
asbag57
(g78
g59
NtRp2621
(dp2622
g62
(dp2623
sg71
g2609
sg64
(lp2624
g57
(g58
g59
NtRp2625
(dp2626
g62
(dp2627
g70
I4
ssg71
g2621
sg64
(lp2628
g2432
asbasbasbag57
(g73
g59
NtRp2629
(dp2630
g62
(dp2631
sg71
g2605
sg64
(lp2632
g57
(g78
g59
NtRp2633
(dp2634
g62
(dp2635
g82
g83
ssg71
g2629
sg64
(lp2636
g1885
asbag57
(g78
g59
NtRp2637
(dp2638
g62
(dp2639
g89
g90
ssg71
g2629
sg64
(lp2640
S':'
asbag57
(g78
g59
NtRp2641
(dp2642
g62
(dp2643
sg71
g2629
sg64
(lp2644
g57
(g58
g59
NtRp2645
(dp2646
g62
(dp2647
g70
I4
ssg71
g2641
sg64
(lp2648
g57
(g66
g59
NtRp2649
(dp2650
g62
(dp2651
g70
I3
ssg71
Nsg64
(lp2652
g57
(g73
g59
NtRp2653
(dp2654
g62
(dp2655
sg71
g2649
sg64
(lp2656
g57
(g78
g59
NtRp2657
(dp2658
g62
(dp2659
sg71
g2653
sg64
(lp2660
g57
(g58
g59
NtRp2661
(dp2662
g62
(dp2663
g70
I3
ssg71
g2657
sg64
(lp2664
S'1'
asbasbasbag57
(g73
g59
NtRp2665
(dp2666
g62
(dp2667
sg71
g2649
sg64
(lp2668
g57
(g78
g59
NtRp2669
(dp2670
g62
(dp2671
sg71
g2665
sg64
(lp2672
g57
(g58
g59
NtRp2673
(dp2674
g62
(dp2675
g70
I3
ssg71
g2669
sg64
(lp2676
S'1'
asbasbasbasbasbasbasbag57
(g73
g59
NtRp2677
(dp2678
g62
(dp2679
sg71
g2605
sg64
(lp2680
g57
(g78
g59
NtRp2681
(dp2682
g62
(dp2683
g82
g83
ssg71
g2677
sg64
(lp2684
g2462
asbag57
(g78
g59
NtRp2685
(dp2686
g62
(dp2687
g89
g90
ssg71
g2677
sg64
(lp2688
S':'
asbag57
(g78
g59
NtRp2689
(dp2690
g62
(dp2691
sg71
g2677
sg64
(lp2692
g57
(g58
g59
NtRp2693
(dp2694
g62
(dp2695
g70
I4
ssg71
g2689
sg64
(lp2696
g2475
asbasbasbag57
(g73
g59
NtRp2697
(dp2698
g62
(dp2699
sg71
g2605
sg64
(lp2700
g57
(g78
g59
NtRp2701
(dp2702
g62
(dp2703
g82
g83
ssg71
g2697
sg64
(lp2704
g1906
asbag57
(g78
g59
NtRp2705
(dp2706
g62
(dp2707
g89
g90
ssg71
g2697
sg64
(lp2708
S':'
asbag57
(g78
g59
NtRp2709
(dp2710
g62
(dp2711
sg71
g2697
sg64
(lp2712
g57
(g58
g59
NtRp2713
(dp2714
g62
(dp2715
g70
I4
ssg71
g2709
sg64
(lp2716
S'ALIMENTACI\xc3\x93N'
p2717
asbasbasbasbasbasbasbag57
(g73
g59
NtRp2718
(dp2719
g62
(dp2720
sg71
g67
sg64
(lp2721
g57
(g78
g59
NtRp2722
(dp2723
g62
(dp2724
g82
g83
ssg71
g2718
sg64
(lp2725
S'wsgi'
p2726
asbag57
(g78
g59
NtRp2727
(dp2728
g62
(dp2729
g89
g90
ssg71
g2718
sg64
(lp2730
S':'
asbag57
(g78
g59
NtRp2731
(dp2732
g62
(dp2733
sg71
g2718
sg64
(lp2734
g57
(g58
g59
NtRp2735
(dp2736
g62
(dp2737
g70
I5
ssg71
g2731
sg64
(lp2738
g57
(g66
g59
NtRp2739
(dp2740
g62
(dp2741
g70
I4
ssg71
Nsg64
(lp2742
g57
(g73
g59
NtRp2743
(dp2744
g62
(dp2745
sg71
g2739
sg64
(lp2746
g57
(g78
g59
NtRp2747
(dp2748
g62
(dp2749
g82
g83
ssg71
g2743
sg64
(lp2750
S'environ'
p2751
asbag57
(g78
g59
NtRp2752
(dp2753
g62
(dp2754
g89
g90
ssg71
g2743
sg64
(lp2755
S':'
asbag57
(g78
g59
NtRp2756
(dp2757
g62
(dp2758
sg71
g2743
sg64
(lp2759
g57
(g58
g59
NtRp2760
(dp2761
g62
(dp2762
g70
I4
ssg71
g2756
sg64
(lp2763
g57
(g66
g59
NtRp2764
(dp2765
g62
(dp2766
g70
I3
ssg71
Nsg64
(lp2767
g57
(g73
g59
NtRp2768
(dp2769
g62
(dp2770
sg71
g2764
sg64
(lp2771
g57
(g78
g59
NtRp2772
(dp2773
g62
(dp2774
g82
g83
ssg71
g2768
sg64
(lp2775
S'CONTENT_LENGTH'
p2776
asbag57
(g78
g59
NtRp2777
(dp2778
g62
(dp2779
g89
g90
ssg71
g2768
sg64
(lp2780
S':'
asbag57
(g78
g59
NtRp2781
(dp2782
g62
(dp2783
sg71
g2768
sg64
(lp2784
g57
(g58
g59
NtRp2785
(dp2786
g62
(dp2787
g70
I3
ssg71
g2781
sg64
(lp2788
g777
asbasbasbag57
(g73
g59
NtRp2789
(dp2790
g62
(dp2791
sg71
g2764
sg64
(lp2792
g57
(g78
g59
NtRp2793
(dp2794
g62
(dp2795
g82
g83
ssg71
g2789
sg64
(lp2796
S'CONTENT_TYPE'
p2797
asbag57
(g78
g59
NtRp2798
(dp2799
g62
(dp2800
g89
g90
ssg71
g2789
sg64
(lp2801
S':'
asbag57
(g78
g59
NtRp2802
(dp2803
g62
(dp2804
sg71
g2789
sg64
(lp2805
g57
(g58
g59
NtRp2806
(dp2807
g62
(dp2808
g70
I3
ssg71
g2802
sg64
(lp2809
g799
asbasbasbag57
(g73
g59
NtRp2810
(dp2811
g62
(dp2812
sg71
g2764
sg64
(lp2813
g57
(g78
g59
NtRp2814
(dp2815
g62
(dp2816
g82
g83
ssg71
g2810
sg64
(lp2817
S'HTTP_ACCEPT'
p2818
asbag57
(g78
g59
NtRp2819
(dp2820
g62
(dp2821
g89
g90
ssg71
g2810
sg64
(lp2822
S':'
asbag57
(g78
g59
NtRp2823
(dp2824
g62
(dp2825
sg71
g2810
sg64
(lp2826
g57
(g58
g59
NtRp2827
(dp2828
g62
(dp2829
g70
I3
ssg71
g2823
sg64
(lp2830
g886
asbasbasbag57
(g73
g59
NtRp2831
(dp2832
g62
(dp2833
sg71
g2764
sg64
(lp2834
g57
(g78
g59
NtRp2835
(dp2836
g62
(dp2837
g82
g83
ssg71
g2831
sg64
(lp2838
S'HTTP_ACCEPT_ENCODING'
p2839
asbag57
(g78
g59
NtRp2840
(dp2841
g62
(dp2842
g89
g90
ssg71
g2831
sg64
(lp2843
S':'
asbag57
(g78
g59
NtRp2844
(dp2845
g62
(dp2846
sg71
g2831
sg64
(lp2847
g57
(g58
g59
NtRp2848
(dp2849
g62
(dp2850
g70
I3
ssg71
g2844
sg64
(lp2851
g908
asbasbasbag57
(g73
g59
NtRp2852
(dp2853
g62
(dp2854
sg71
g2764
sg64
(lp2855
g57
(g78
g59
NtRp2856
(dp2857
g62
(dp2858
g82
g83
ssg71
g2852
sg64
(lp2859
S'HTTP_ACCEPT_LANGUAGE'
p2860
asbag57
(g78
g59
NtRp2861
(dp2862
g62
(dp2863
g89
g90
ssg71
g2852
sg64
(lp2864
S':'
asbag57
(g78
g59
NtRp2865
(dp2866
g62
(dp2867
sg71
g2852
sg64
(lp2868
g57
(g58
g59
NtRp2869
(dp2870
g62
(dp2871
g70
I3
ssg71
g2865
sg64
(lp2872
g930
asbasbasbag57
(g73
g59
NtRp2873
(dp2874
g62
(dp2875
sg71
g2764
sg64
(lp2876
g57
(g78
g59
NtRp2877
(dp2878
g62
(dp2879
g82
g83
ssg71
g2873
sg64
(lp2880
S'HTTP_CACHE_CONTROL'
p2881
asbag57
(g78
g59
NtRp2882
(dp2883
g62
(dp2884
g89
g90
ssg71
g2873
sg64
(lp2885
S':'
asbag57
(g78
g59
NtRp2886
(dp2887
g62
(dp2888
sg71
g2873
sg64
(lp2889
g57
(g58
g59
NtRp2890
(dp2891
g62
(dp2892
g70
I3
ssg71
g2886
sg64
(lp2893
g952
asbasbasbag57
(g73
g59
NtRp2894
(dp2895
g62
(dp2896
sg71
g2764
sg64
(lp2897
g57
(g78
g59
NtRp2898
(dp2899
g62
(dp2900
g82
g83
ssg71
g2894
sg64
(lp2901
S'HTTP_CONNECTION'
p2902
asbag57
(g78
g59
NtRp2903
(dp2904
g62
(dp2905
g89
g90
ssg71
g2894
sg64
(lp2906
S':'
asbag57
(g78
g59
NtRp2907
(dp2908
g62
(dp2909
sg71
g2894
sg64
(lp2910
g57
(g58
g59
NtRp2911
(dp2912
g62
(dp2913
g70
I3
ssg71
g2907
sg64
(lp2914
g974
asbasbasbag57
(g73
g59
NtRp2915
(dp2916
g62
(dp2917
sg71
g2764
sg64
(lp2918
g57
(g78
g59
NtRp2919
(dp2920
g62
(dp2921
g82
g83
ssg71
g2915
sg64
(lp2922
S'HTTP_CONTENT_LENGTH'
p2923
asbag57
(g78
g59
NtRp2924
(dp2925
g62
(dp2926
g89
g90
ssg71
g2915
sg64
(lp2927
S':'
asbag57
(g78
g59
NtRp2928
(dp2929
g62
(dp2930
sg71
g2915
sg64
(lp2931
g57
(g58
g59
NtRp2932
(dp2933
g62
(dp2934
g70
I3
ssg71
g2928
sg64
(lp2935
g777
asbasbasbag57
(g73
g59
NtRp2936
(dp2937
g62
(dp2938
sg71
g2764
sg64
(lp2939
g57
(g78
g59
NtRp2940
(dp2941
g62
(dp2942
g82
g83
ssg71
g2936
sg64
(lp2943
S'HTTP_CONTENT_TYPE'
p2944
asbag57
(g78
g59
NtRp2945
(dp2946
g62
(dp2947
g89
g90
ssg71
g2936
sg64
(lp2948
S':'
asbag57
(g78
g59
NtRp2949
(dp2950
g62
(dp2951
sg71
g2936
sg64
(lp2952
g57
(g58
g59
NtRp2953
(dp2954
g62
(dp2955
g70
I3
ssg71
g2949
sg64
(lp2956
g799
asbasbasbag57
(g73
g59
NtRp2957
(dp2958
g62
(dp2959
sg71
g2764
sg64
(lp2960
g57
(g78
g59
NtRp2961
(dp2962
g62
(dp2963
g82
g83
ssg71
g2957
sg64
(lp2964
S'HTTP_COOKIE'
p2965
asbag57
(g78
g59
NtRp2966
(dp2967
g62
(dp2968
g89
g90
ssg71
g2957
sg64
(lp2969
S':'
asbag57
(g78
g59
NtRp2970
(dp2971
g62
(dp2972
sg71
g2957
sg64
(lp2973
g57
(g58
g59
NtRp2974
(dp2975
g62
(dp2976
g70
I3
ssg71
g2970
sg64
(lp2977
g1038
asbasbasbag57
(g73
g59
NtRp2978
(dp2979
g62
(dp2980
sg71
g2764
sg64
(lp2981
g57
(g78
g59
NtRp2982
(dp2983
g62
(dp2984
g82
g83
ssg71
g2978
sg64
(lp2985
S'HTTP_HOST'
p2986
asbag57
(g78
g59
NtRp2987
(dp2988
g62
(dp2989
g89
g90
ssg71
g2978
sg64
(lp2990
S':'
asbag57
(g78
g59
NtRp2991
(dp2992
g62
(dp2993
sg71
g2978
sg64
(lp2994
g57
(g58
g59
NtRp2995
(dp2996
g62
(dp2997
g70
I3
ssg71
g2991
sg64
(lp2998
g1060
asbasbasbag57
(g73
g59
NtRp2999
(dp3000
g62
(dp3001
sg71
g2764
sg64
(lp3002
g57
(g78
g59
NtRp3003
(dp3004
g62
(dp3005
g82
g83
ssg71
g2999
sg64
(lp3006
S'HTTP_REFERER'
p3007
asbag57
(g78
g59
NtRp3008
(dp3009
g62
(dp3010
g89
g90
ssg71
g2999
sg64
(lp3011
S':'
asbag57
(g78
g59
NtRp3012
(dp3013
g62
(dp3014
sg71
g2999
sg64
(lp3015
g57
(g58
g59
NtRp3016
(dp3017
g62
(dp3018
g70
I3
ssg71
g3012
sg64
(lp3019
g1082
asbasbasbag57
(g73
g59
NtRp3020
(dp3021
g62
(dp3022
sg71
g2764
sg64
(lp3023
g57
(g78
g59
NtRp3024
(dp3025
g62
(dp3026
g82
g83
ssg71
g3020
sg64
(lp3027
S'HTTP_USER_AGENT'
p3028
asbag57
(g78
g59
NtRp3029
(dp3030
g62
(dp3031
g89
g90
ssg71
g3020
sg64
(lp3032
S':'
asbag57
(g78
g59
NtRp3033
(dp3034
g62
(dp3035
sg71
g3020
sg64
(lp3036
g57
(g58
g59
NtRp3037
(dp3038
g62
(dp3039
g70
I3
ssg71
g3033
sg64
(lp3040
g1104
asbasbasbag57
(g73
g59
NtRp3041
(dp3042
g62
(dp3043
sg71
g2764
sg64
(lp3044
g57
(g78
g59
NtRp3045
(dp3046
g62
(dp3047
g82
g83
ssg71
g3041
sg64
(lp3048
S'PATH_INFO'
p3049
asbag57
(g78
g59
NtRp3050
(dp3051
g62
(dp3052
g89
g90
ssg71
g3041
sg64
(lp3053
S':'
asbag57
(g78
g59
NtRp3054
(dp3055
g62
(dp3056
sg71
g3041
sg64
(lp3057
g57
(g58
g59
NtRp3058
(dp3059
g62
(dp3060
g70
I3
ssg71
g3054
sg64
(lp3061
g1258
asbasbasbag57
(g73
g59
NtRp3062
(dp3063
g62
(dp3064
sg71
g2764
sg64
(lp3065
g57
(g78
g59
NtRp3066
(dp3067
g62
(dp3068
g82
g83
ssg71
g3062
sg64
(lp3069
S'QUERY_STRING'
p3070
asbag57
(g78
g59
NtRp3071
(dp3072
g62
(dp3073
g89
g90
ssg71
g3062
sg64
(lp3074
S':'
asbag57
(g78
g59
NtRp3075
(dp3076
g62
(dp3077
sg71
g3062
sg64
(lp3078
g57
(g58
g59
NtRp3079
(dp3080
g62
(dp3081
g70
I3
ssg71
g3075
sg64
(lp3082
g1280
asbasbasbag57
(g73
g59
NtRp3083
(dp3084
g62
(dp3085
sg71
g2764
sg64
(lp3086
g57
(g78
g59
NtRp3087
(dp3088
g62
(dp3089
g82
g83
ssg71
g3083
sg64
(lp3090
S'REMOTE_ADDR'
p3091
asbag57
(g78
g59
NtRp3092
(dp3093
g62
(dp3094
g89
g90
ssg71
g3083
sg64
(lp3095
S':'
asbag57
(g78
g59
NtRp3096
(dp3097
g62
(dp3098
sg71
g3083
sg64
(lp3099
g57
(g58
g59
NtRp3100
(dp3101
g62
(dp3102
g70
I3
ssg71
g3096
sg64
(lp3103
g212
asbasbasbag57
(g73
g59
NtRp3104
(dp3105
g62
(dp3106
sg71
g2764
sg64
(lp3107
g57
(g78
g59
NtRp3108
(dp3109
g62
(dp3110
g82
g83
ssg71
g3104
sg64
(lp3111
S'REMOTE_PORT'
p3112
asbag57
(g78
g59
NtRp3113
(dp3114
g62
(dp3115
g89
g90
ssg71
g3104
sg64
(lp3116
S':'
asbag57
(g78
g59
NtRp3117
(dp3118
g62
(dp3119
sg71
g3104
sg64
(lp3120
g57
(g58
g59
NtRp3121
(dp3122
g62
(dp3123
g70
I3
ssg71
g3117
sg64
(lp3124
g1323
asbasbasbag57
(g73
g59
NtRp3125
(dp3126
g62
(dp3127
sg71
g2764
sg64
(lp3128
g57
(g78
g59
NtRp3129
(dp3130
g62
(dp3131
g82
g83
ssg71
g3125
sg64
(lp3132
S'REQUEST_METHOD'
p3133
asbag57
(g78
g59
NtRp3134
(dp3135
g62
(dp3136
g89
g90
ssg71
g3125
sg64
(lp3137
S':'
asbag57
(g78
g59
NtRp3138
(dp3139
g62
(dp3140
sg71
g3125
sg64
(lp3141
g57
(g58
g59
NtRp3142
(dp3143
g62
(dp3144
g70
I3
ssg71
g3138
sg64
(lp3145
g1345
asbasbasbag57
(g73
g59
NtRp3146
(dp3147
g62
(dp3148
sg71
g2764
sg64
(lp3149
g57
(g78
g59
NtRp3150
(dp3151
g62
(dp3152
g82
g83
ssg71
g3146
sg64
(lp3153
S'REQUEST_URI'
p3154
asbag57
(g78
g59
NtRp3155
(dp3156
g62
(dp3157
g89
g90
ssg71
g3146
sg64
(lp3158
S':'
asbag57
(g78
g59
NtRp3159
(dp3160
g62
(dp3161
sg71
g3146
sg64
(lp3162
g57
(g58
g59
NtRp3163
(dp3164
g62
(dp3165
g70
I3
ssg71
g3159
sg64
(lp3166
g1367
asbasbasbag57
(g73
g59
NtRp3167
(dp3168
g62
(dp3169
sg71
g2764
sg64
(lp3170
g57
(g78
g59
NtRp3171
(dp3172
g62
(dp3173
g82
g83
ssg71
g3167
sg64
(lp3174
S'SCRIPT_NAME'
p3175
asbag57
(g78
g59
NtRp3176
(dp3177
g62
(dp3178
g89
g90
ssg71
g3167
sg64
(lp3179
S':'
asbag57
(g78
g59
NtRp3180
(dp3181
g62
(dp3182
sg71
g3167
sg64
(lp3183
g57
(g58
g59
NtRp3184
(dp3185
g62
(dp3186
g70
I3
ssg71
g3180
sg64
(lp3187
S''
asbasbasbag57
(g73
g59
NtRp3188
(dp3189
g62
(dp3190
sg71
g2764
sg64
(lp3191
g57
(g78
g59
NtRp3192
(dp3193
g62
(dp3194
g82
g83
ssg71
g3188
sg64
(lp3195
S'SERVER_NAME'
p3196
asbag57
(g78
g59
NtRp3197
(dp3198
g62
(dp3199
g89
g90
ssg71
g3188
sg64
(lp3200
S':'
asbag57
(g78
g59
NtRp3201
(dp3202
g62
(dp3203
sg71
g3188
sg64
(lp3204
g57
(g58
g59
NtRp3205
(dp3206
g62
(dp3207
g70
I3
ssg71
g3201
sg64
(lp3208
g1410
asbasbasbag57
(g73
g59
NtRp3209
(dp3210
g62
(dp3211
sg71
g2764
sg64
(lp3212
g57
(g78
g59
NtRp3213
(dp3214
g62
(dp3215
g82
g83
ssg71
g3209
sg64
(lp3216
S'SERVER_PORT'
p3217
asbag57
(g78
g59
NtRp3218
(dp3219
g62
(dp3220
g89
g90
ssg71
g3209
sg64
(lp3221
S':'
asbag57
(g78
g59
NtRp3222
(dp3223
g62
(dp3224
sg71
g3209
sg64
(lp3225
g57
(g58
g59
NtRp3226
(dp3227
g62
(dp3228
g70
I3
ssg71
g3222
sg64
(lp3229
g1432
asbasbasbag57
(g73
g59
NtRp3230
(dp3231
g62
(dp3232
sg71
g2764
sg64
(lp3233
g57
(g78
g59
NtRp3234
(dp3235
g62
(dp3236
g82
g83
ssg71
g3230
sg64
(lp3237
S'SERVER_PROTOCOL'
p3238
asbag57
(g78
g59
NtRp3239
(dp3240
g62
(dp3241
g89
g90
ssg71
g3230
sg64
(lp3242
S':'
asbag57
(g78
g59
NtRp3243
(dp3244
g62
(dp3245
sg71
g3230
sg64
(lp3246
g57
(g58
g59
NtRp3247
(dp3248
g62
(dp3249
g70
I3
ssg71
g3243
sg64
(lp3250
g1454
asbasbasbag57
(g73
g59
NtRp3251
(dp3252
g62
(dp3253
sg71
g2764
sg64
(lp3254
g57
(g78
g59
NtRp3255
(dp3256
g62
(dp3257
g82
g83
ssg71
g3251
sg64
(lp3258
S'SERVER_SOFTWARE'
p3259
asbag57
(g78
g59
NtRp3260
(dp3261
g62
(dp3262
g89
g90
ssg71
g3251
sg64
(lp3263
S':'
asbag57
(g78
g59
NtRp3264
(dp3265
g62
(dp3266
sg71
g3251
sg64
(lp3267
g57
(g58
g59
NtRp3268
(dp3269
g62
(dp3270
g70
I3
ssg71
g3264
sg64
(lp3271
g1476
asbasbasbag57
(g73
g59
NtRp3272
(dp3273
g62
(dp3274
sg71
g2764
sg64
(lp3275
g57
(g78
g59
NtRp3276
(dp3277
g62
(dp3278
g82
g83
ssg71
g3272
sg64
(lp3279
S'wsgi.errors'
p3280
asbag57
(g78
g59
NtRp3281
(dp3282
g62
(dp3283
g89
g90
ssg71
g3272
sg64
(lp3284
S':'
asbag57
(g78
g59
NtRp3285
(dp3286
g62
(dp3287
sg71
g3272
sg64
(lp3288
g57
(g58
g59
NtRp3289
(dp3290
g62
(dp3291
g70
I3
ssg71
g3285
sg64
(lp3292
S"<open file '<stderr>', mode 'w' at 0x7fa88a0fa270>"
p3293
asbasbasbag57
(g73
g59
NtRp3294
(dp3295
g62
(dp3296
sg71
g2764
sg64
(lp3297
g57
(g78
g59
NtRp3298
(dp3299
g62
(dp3300
g82
g83
ssg71
g3294
sg64
(lp3301
S'wsgi.file_wrapper'
p3302
asbag57
(g78
g59
NtRp3303
(dp3304
g62
(dp3305
g89
g90
ssg71
g3294
sg64
(lp3306
S':'
asbag57
(g78
g59
NtRp3307
(dp3308
g62
(dp3309
sg71
g3294
sg64
(lp3310
g57
(g58
g59
NtRp3311
(dp3312
g62
(dp3313
g70
I3
ssg71
g3307
sg64
(lp3314
S'<class wsgiref.util.FileWrapper at 0x2dd24c8>'
p3315
asbasbasbag57
(g73
g59
NtRp3316
(dp3317
g62
(dp3318
sg71
g2764
sg64
(lp3319
g57
(g78
g59
NtRp3320
(dp3321
g62
(dp3322
g82
g83
ssg71
g3316
sg64
(lp3323
S'wsgi.input'
p3324
asbag57
(g78
g59
NtRp3325
(dp3326
g62
(dp3327
g89
g90
ssg71
g3316
sg64
(lp3328
S':'
asbag57
(g78
g59
NtRp3329
(dp3330
g62
(dp3331
sg71
g3316
sg64
(lp3332
g57
(g58
g59
NtRp3333
(dp3334
g62
(dp3335
g70
I3
ssg71
g3329
sg64
(lp3336
S"<open file '<fdopen>', mode 'w+b' at 0x38956f0>"
p3337
asbasbasbag57
(g73
g59
NtRp3338
(dp3339
g62
(dp3340
sg71
g2764
sg64
(lp3341
g57
(g78
g59
NtRp3342
(dp3343
g62
(dp3344
g82
g83
ssg71
g3338
sg64
(lp3345
S'wsgi.multiprocess'
p3346
asbag57
(g78
g59
NtRp3347
(dp3348
g62
(dp3349
g89
g90
ssg71
g3338
sg64
(lp3350
S':'
asbag57
(g78
g59
NtRp3351
(dp3352
g62
(dp3353
sg71
g3338
sg64
(lp3354
g57
(g58
g59
NtRp3355
(dp3356
g62
(dp3357
g70
I3
ssg71
g3351
sg64
(lp3358
g100
asbasbasbag57
(g73
g59
NtRp3359
(dp3360
g62
(dp3361
sg71
g2764
sg64
(lp3362
g57
(g78
g59
NtRp3363
(dp3364
g62
(dp3365
g82
g83
ssg71
g3359
sg64
(lp3366
S'wsgi.multithread'
p3367
asbag57
(g78
g59
NtRp3368
(dp3369
g62
(dp3370
g89
g90
ssg71
g3359
sg64
(lp3371
S':'
asbag57
(g78
g59
NtRp3372
(dp3373
g62
(dp3374
sg71
g3359
sg64
(lp3375
g57
(g58
g59
NtRp3376
(dp3377
g62
(dp3378
g70
I3
ssg71
g3372
sg64
(lp3379
g1693
asbasbasbag57
(g73
g59
NtRp3380
(dp3381
g62
(dp3382
sg71
g2764
sg64
(lp3383
g57
(g78
g59
NtRp3384
(dp3385
g62
(dp3386
g82
g83
ssg71
g3380
sg64
(lp3387
S'wsgi.run_once'
p3388
asbag57
(g78
g59
NtRp3389
(dp3390
g62
(dp3391
g89
g90
ssg71
g3380
sg64
(lp3392
S':'
asbag57
(g78
g59
NtRp3393
(dp3394
g62
(dp3395
sg71
g3380
sg64
(lp3396
g57
(g58
g59
NtRp3397
(dp3398
g62
(dp3399
g70
I3
ssg71
g3393
sg64
(lp3400
g100
asbasbasbag57
(g73
g59
NtRp3401
(dp3402
g62
(dp3403
sg71
g2764
sg64
(lp3404
g57
(g78
g59
NtRp3405
(dp3406
g62
(dp3407
g82
g83
ssg71
g3401
sg64
(lp3408
S'wsgi.url_scheme'
p3409
asbag57
(g78
g59
NtRp3410
(dp3411
g62
(dp3412
g89
g90
ssg71
g3401
sg64
(lp3413
S':'
asbag57
(g78
g59
NtRp3414
(dp3415
g62
(dp3416
sg71
g3401
sg64
(lp3417
g57
(g58
g59
NtRp3418
(dp3419
g62
(dp3420
g70
I3
ssg71
g3414
sg64
(lp3421
g1736
asbasbasbag57
(g73
g59
NtRp3422
(dp3423
g62
(dp3424
sg71
g2764
sg64
(lp3425
g57
(g78
g59
NtRp3426
(dp3427
g62
(dp3428
g82
g83
ssg71
g3422
sg64
(lp3429
S'wsgi.version'
p3430
asbag57
(g78
g59
NtRp3431
(dp3432
g62
(dp3433
g89
g90
ssg71
g3422
sg64
(lp3434
S':'
asbag57
(g78
g59
NtRp3435
(dp3436
g62
(dp3437
sg71
g3422
sg64
(lp3438
g57
(g58
g59
NtRp3439
(dp3440
g62
(dp3441
g70
I3
ssg71
g3435
sg64
(lp3442
S'1'
asbasbasbasbasbasbasbasbasbasbasbasbasbsS'frames'
p3443
(lp3444
(dp3445
S'file'
p3446
S'/home/marco/projects/contabilidad/web2py/gluon/restricted.py'
p3447
sS'dump'
p3448
(dp3449
S'environment'
p3450
S"{'A': <class 'gluon.html.A'>, 'Auth': <class 'gluon.tools.Auth'>, 'B': <class 'gluon.html.B'>, 'BEAUTIFY': <class 'gluon.html.BEAUTIFY'>, 'BODY': <class 'gluon.html.BODY'>, 'BR': <class 'gluon.html.BR'>, 'BUTTON': <class 'gluon.html.BUTTON'>, 'CAT': <class 'gluon.html.CAT'>, 'CENTER': <class 'gluon.html.CENTER'>, 'CLEANUP': <class 'gluon.validators.CLEANUP'>, ...}"
p3451
sS'ccode'
p3452
S'<code object <module> at 0x3d58db0, file "/home/...lications/sueldos/controllers/vistas.py", line 3>'
p3453
ssS'lnum'
p3454
I212
sS'lines'
p3455
(dp3456
I207
S'    try:'
p3457
sI208
S'        if isinstance(code, types.CodeType):'
p3458
sI209
S'            ccode = code'
p3459
sI210
S'        else:'
p3460
sI211
S'            ccode = compile2(code, layer)'
p3461
sI212
S'        exec ccode in environment'
p3462
sI213
S'    except HTTP:'
p3463
sI214
S'        raise'
p3464
sI215
S'    except RestrictedError:'
p3465
sI216
S'        # do not encapsulate (obfuscate) the original RestrictedError'
p3466
ssS'call'
p3467
S"(code='# -*- coding: utf-8 -*-\\n\\ndef personal():\\n    for...nuevo)\\n\\nresponse._vars=response._caller(escalas)\\n', environment={'A': <class 'gluon.html.A'>, 'Auth': <class 'gluon.tools.Auth'>, 'B': <class 'gluon.html.B'>, 'BEAUTIFY': <class 'gluon.html.BEAUTIFY'>, 'BODY': <class 'gluon.html.BODY'>, 'BR': <class 'gluon.html.BR'>, 'BUTTON': <class 'gluon.html.BUTTON'>, 'CAT': <class 'gluon.html.CAT'>, 'CENTER': <class 'gluon.html.CENTER'>, 'CLEANUP': <class 'gluon.validators.CLEANUP'>, ...}, layer='/home/marco/projects/contabilidad/web2py/applications/sueldos/controllers/vistas.py')"
p3468
sS'func'
p3469
S'restricted'
p3470
sa(dp3471
g3446
S'/home/marco/projects/contabilidad/web2py/applications/sueldos/controllers/vistas.py'
p3472
sg3448
(dp3473
sg3454
I33
sg3455
(dp3474
I22
S'    lista=db(db.valores.gremio==request.vars.gremio).select()'
p3475
sI23
S''
sI24
S'    nuevo=SQLFORM(db.valores)'
p3476
sI25
S''
sI26
S'    if nuevo.process().accepted:'
p3477
sI27
S"        session.flash='El importe ha sido agregado'"
p3478
sI28
S"        redirect(URL('vistas','importes?gremio='+ str(request.vars.gremio)+'&sindicato='+ str(request.vars.sindicato)))"
p3479
sI29
S'    elif nuevo.errors:'
p3480
sI30
S"        response.flash='El formulario tiene errores'"
p3481
sI31
S'    return dict(listado=lista, nuevo=nuevo)'
p3482
ssg3467
S'()'
p3483
sg3469
S'<module>'
p3484
sa(dp3485
g3446
S'/home/marco/projects/contabilidad/web2py/gluon/globals.py'
p3486
sg3448
(dp3487
S'self'
p3488
S'undefined'
p3489
sS'f'
S'<function escalas>'
p3490
ssg3454
I193
sg3455
(dp3491
I192
S'        self._vars = None'
p3492
sI193
S'        self._caller = lambda f: f()'
p3493
sI194
S'        self._view_environment = None'
p3494
sI195
S'        self._custom_commit = None'
p3495
sI196
S'        self._custom_rollback = None'
p3496
sI197
S''
sI188
S'        self.menu = []             # used by the default view layout'
p3497
sI189
S'        self.files = []            # used by web2py_ajax.html'
p3498
sI190
S'        self.generic_patterns = []  # patterns to allow generic views'
p3499
sI191
S"        self.delimiters = ('{{', '}}')"
p3500
ssg3467
S'(f=<function escalas>)'
p3501
sg3469
S'<lambda>'
p3502
sa(dp3503
g3446
S'/home/marco/projects/contabilidad/web2py/applications/sueldos/controllers/vistas.py'
p3504
sg3448
(dp3505
S'global request'
p3506
S"<Storage {'function': 'escalas', 'body': <open f...ormname': 'categorias/None', 'basico': '4544'}>}>"
p3507
sS'request.vars'
p3508
S"<Storage {'sindicato': 'ALIMENTACI\\xc3\\x93N', 'g..._formname': 'categorias/None', 'basico': '4544'}>"
p3509
sS'builtinint'
p3510
S"<type 'int'>"
p3511
sS'request.vars.gremio'
p3512
S"['1', '1']"
p3513
ssg3454
I8
sg3455
(dp3514
I3
S'def personal():'
p3515
sI4
S"    form = SQLFORM.grid(db.empleados, ui='jquery-ui', user_signature=False)"
p3516
sI5
S'    return dict(form=form)'
p3517
sI6
S''
sI7
S'def escalas():'
p3518
sI8
S'    if int(request.vars.gremio):'
p3519
sI9
S'        lista=db(db.categorias.gremio==int(param)).select()'
p3520
sI10
S'    else:'
p3521
sI11
S'        lista=request.vars.gremio'
p3522
sI12
S"    # nueva=crud.create(db.categorias, next=URL('vistas','escalas', vars=dict(gremio=request.vars.gremio, sindicato=request.vars.sindicato)))"
p3523
ssg3467
S'()'
p3524
sg3469
S'escalas'
p3525
sasS'pyver'
p3526
S'Python 2.7.3: /usr/bin/python'
p3527
sS'session'
p3528
g57
(g58
g59
NtRp3529
(dp3530
g62
(dp3531
sg64
(lp3532
g57
(g66
g59
NtRp3533
(dp3534
g62
(dp3535
g70
I5
ssg71
Nsg64
(lp3536
g57
(g73
g59
NtRp3537
(dp3538
g62
(dp3539
sg71
g3533
sg64
(lp3540
g57
(g78
g59
NtRp3541
(dp3542
g62
(dp3543
g82
g83
ssg71
g3537
sg64
(lp3544
S'flash'
p3545
asbag57
(g78
g59
NtRp3546
(dp3547
g62
(dp3548
g89
g90
ssg71
g3537
sg64
(lp3549
S':'
asbag57
(g78
g59
NtRp3550
(dp3551
g62
(dp3552
sg71
g3537
sg64
(lp3553
g57
(g58
g59
NtRp3554
(dp3555
g62
(dp3556
g70
I5
ssg71
g3550
sg64
(lp3557
S'None'
p3558
asbasbasbasbasbsS'etype'
p3559
S"<type 'exceptions.TypeError'>"
p3560
sS'date'
p3561
S'Tue Jan 22 15:19:05 2013'
p3562
sS'response'
p3563
g57
(g58
g59
NtRp3564
(dp3565
g62
(dp3566
sg64
(lp3567
g57
(g66
g59
NtRp3568
(dp3569
g62
(dp3570
g70
I5
ssg71
Nsg64
(lp3571
g57
(g73
g59
NtRp3572
(dp3573
g62
(dp3574
sg71
g3568
sg64
(lp3575
g57
(g78
g59
NtRp3576
(dp3577
g62
(dp3578
g82
g83
ssg71
g3572
sg64
(lp3579
g155
asbag57
(g78
g59
NtRp3580
(dp3581
g62
(dp3582
g89
g90
ssg71
g3572
sg64
(lp3583
S':'
asbag57
(g78
g59
NtRp3584
(dp3585
g62
(dp3586
sg71
g3572
sg64
(lp3587
g57
(g58
g59
NtRp3588
(dp3589
g62
(dp3590
g70
I5
ssg71
g3584
sg64
(lp3591
S'<cStringIO.StringO object at 0x4486ae8>'
p3592
asbasbasbag57
(g73
g59
NtRp3593
(dp3594
g62
(dp3595
sg71
g3568
sg64
(lp3596
g57
(g78
g59
NtRp3597
(dp3598
g62
(dp3599
g82
g83
ssg71
g3593
sg64
(lp3600
g243
asbag57
(g78
g59
NtRp3601
(dp3602
g62
(dp3603
g89
g90
ssg71
g3593
sg64
(lp3604
S':'
asbag57
(g78
g59
NtRp3605
(dp3606
g62
(dp3607
sg71
g3593
sg64
(lp3608
g57
(g58
g59
NtRp3609
(dp3610
g62
(dp3611
g70
I5
ssg71
g3605
sg64
(lp3612
g57
(g66
g59
NtRp3613
(dp3614
g62
(dp3615
g70
I4
ssg71
Nsg64
(lp3616
g57
(g73
g59
NtRp3617
(dp3618
g62
(dp3619
sg71
g3613
sg64
(lp3620
g57
(g78
g59
NtRp3621
(dp3622
g62
(dp3623
g82
g83
ssg71
g3617
sg64
(lp3624
S'session_id_sueldos'
p3625
asbag57
(g78
g59
NtRp3626
(dp3627
g62
(dp3628
g89
g90
ssg71
g3617
sg64
(lp3629
S':'
asbag57
(g78
g59
NtRp3630
(dp3631
g62
(dp3632
sg71
g3617
sg64
(lp3633
g57
(g58
g59
NtRp3634
(dp3635
g62
(dp3636
g70
I4
ssg71
g3630
sg64
(lp3637
g475
ag57
(g66
g59
NtRp3638
(dp3639
g62
(dp3640
g70
I3
ssg71
Nsg64
(lp3641
g57
(g73
g59
NtRp3642
(dp3643
g62
(dp3644
sg71
g3638
sg64
(lp3645
g57
(g78
g59
NtRp3646
(dp3647
g62
(dp3648
g82
g83
ssg71
g3642
sg64
(lp3649
g294
asbag57
(g78
g59
NtRp3650
(dp3651
g62
(dp3652
g89
g90
ssg71
g3642
sg64
(lp3653
S':'
asbag57
(g78
g59
NtRp3654
(dp3655
g62
(dp3656
sg71
g3642
sg64
(lp3657
g57
(g58
g59
NtRp3658
(dp3659
g62
(dp3660
g70
I3
ssg71
g3654
sg64
(lp3661
S''
asbasbasbag57
(g73
g59
NtRp3662
(dp3663
g62
(dp3664
sg71
g3638
sg64
(lp3665
g57
(g78
g59
NtRp3666
(dp3667
g62
(dp3668
g82
g83
ssg71
g3662
sg64
(lp3669
g315
asbag57
(g78
g59
NtRp3670
(dp3671
g62
(dp3672
g89
g90
ssg71
g3662
sg64
(lp3673
S':'
asbag57
(g78
g59
NtRp3674
(dp3675
g62
(dp3676
sg71
g3662
sg64
(lp3677
g57
(g58
g59
NtRp3678
(dp3679
g62
(dp3680
g70
I3
ssg71
g3674
sg64
(lp3681
S''
asbasbasbag57
(g73
g59
NtRp3682
(dp3683
g62
(dp3684
sg71
g3638
sg64
(lp3685
g57
(g78
g59
NtRp3686
(dp3687
g62
(dp3688
g82
g83
ssg71
g3682
sg64
(lp3689
g336
asbag57
(g78
g59
NtRp3690
(dp3691
g62
(dp3692
g89
g90
ssg71
g3682
sg64
(lp3693
S':'
asbag57
(g78
g59
NtRp3694
(dp3695
g62
(dp3696
sg71
g3682
sg64
(lp3697
g57
(g58
g59
NtRp3698
(dp3699
g62
(dp3700
g70
I3
ssg71
g3694
sg64
(lp3701
S''
asbasbasbag57
(g73
g59
NtRp3702
(dp3703
g62
(dp3704
sg71
g3638
sg64
(lp3705
g57
(g78
g59
NtRp3706
(dp3707
g62
(dp3708
g82
g83
ssg71
g3702
sg64
(lp3709
g357
asbag57
(g78
g59
NtRp3710
(dp3711
g62
(dp3712
g89
g90
ssg71
g3702
sg64
(lp3713
S':'
asbag57
(g78
g59
NtRp3714
(dp3715
g62
(dp3716
sg71
g3702
sg64
(lp3717
g57
(g58
g59
NtRp3718
(dp3719
g62
(dp3720
g70
I3
ssg71
g3714
sg64
(lp3721
S''
asbasbasbag57
(g73
g59
NtRp3722
(dp3723
g62
(dp3724
sg71
g3638
sg64
(lp3725
g57
(g78
g59
NtRp3726
(dp3727
g62
(dp3728
g82
g83
ssg71
g3722
sg64
(lp3729
g378
asbag57
(g78
g59
NtRp3730
(dp3731
g62
(dp3732
g89
g90
ssg71
g3722
sg64
(lp3733
S':'
asbag57
(g78
g59
NtRp3734
(dp3735
g62
(dp3736
sg71
g3722
sg64
(lp3737
g57
(g58
g59
NtRp3738
(dp3739
g62
(dp3740
g70
I3
ssg71
g3734
sg64
(lp3741
S''
asbasbasbag57
(g73
g59
NtRp3742
(dp3743
g62
(dp3744
sg71
g3638
sg64
(lp3745
g57
(g78
g59
NtRp3746
(dp3747
g62
(dp3748
g82
g83
ssg71
g3742
sg64
(lp3749
g399
asbag57
(g78
g59
NtRp3750
(dp3751
g62
(dp3752
g89
g90
ssg71
g3742
sg64
(lp3753
S':'
asbag57
(g78
g59
NtRp3754
(dp3755
g62
(dp3756
sg71
g3742
sg64
(lp3757
g57
(g58
g59
NtRp3758
(dp3759
g62
(dp3760
g70
I3
ssg71
g3754
sg64
(lp3761
S'/'
asbasbasbag57
(g73
g59
NtRp3762
(dp3763
g62
(dp3764
sg71
g3638
sg64
(lp3765
g57
(g78
g59
NtRp3766
(dp3767
g62
(dp3768
g82
g83
ssg71
g3762
sg64
(lp3769
g420
asbag57
(g78
g59
NtRp3770
(dp3771
g62
(dp3772
g89
g90
ssg71
g3762
sg64
(lp3773
S':'
asbag57
(g78
g59
NtRp3774
(dp3775
g62
(dp3776
sg71
g3762
sg64
(lp3777
g57
(g58
g59
NtRp3778
(dp3779
g62
(dp3780
g70
I3
ssg71
g3774
sg64
(lp3781
S''
asbasbasbag57
(g73
g59
NtRp3782
(dp3783
g62
(dp3784
sg71
g3638
sg64
(lp3785
g57
(g78
g59
NtRp3786
(dp3787
g62
(dp3788
g82
g83
ssg71
g3782
sg64
(lp3789
g441
asbag57
(g78
g59
NtRp3790
(dp3791
g62
(dp3792
g89
g90
ssg71
g3782
sg64
(lp3793
S':'
asbag57
(g78
g59
NtRp3794
(dp3795
g62
(dp3796
sg71
g3782
sg64
(lp3797
g57
(g58
g59
NtRp3798
(dp3799
g62
(dp3800
g70
I3
ssg71
g3794
sg64
(lp3801
S''
asbasbasbasbasbasbasbasbasbasbasbag57
(g73
g59
NtRp3802
(dp3803
g62
(dp3804
sg71
g3568
sg64
(lp3805
g57
(g78
g59
NtRp3806
(dp3807
g62
(dp3808
g82
g83
ssg71
g3802
sg64
(lp3809
S'delimiters'
p3810
asbag57
(g78
g59
NtRp3811
(dp3812
g62
(dp3813
g89
g90
ssg71
g3802
sg64
(lp3814
S':'
asbag57
(g78
g59
NtRp3815
(dp3816
g62
(dp3817
sg71
g3802
sg64
(lp3818
g57
(g58
g59
NtRp3819
(dp3820
g62
(dp3821
g70
I5
ssg71
g3815
sg64
(lp3822
g57
(g66
g59
NtRp3823
(dp3824
g62
(dp3825
g70
I4
ssg71
Nsg64
(lp3826
g57
(g73
g59
NtRp3827
(dp3828
g62
(dp3829
sg71
g3823
sg64
(lp3830
g57
(g78
g59
NtRp3831
(dp3832
g62
(dp3833
sg71
g3827
sg64
(lp3834
g57
(g58
g59
NtRp3835
(dp3836
g62
(dp3837
g70
I4
ssg71
g3831
sg64
(lp3838
S'{{'
p3839
asbasbasbag57
(g73
g59
NtRp3840
(dp3841
g62
(dp3842
sg71
g3823
sg64
(lp3843
g57
(g78
g59
NtRp3844
(dp3845
g62
(dp3846
sg71
g3840
sg64
(lp3847
g57
(g58
g59
NtRp3848
(dp3849
g62
(dp3850
g70
I4
ssg71
g3844
sg64
(lp3851
S'}}'
p3852
asbasbasbasbasbasbasbag57
(g73
g59
NtRp3853
(dp3854
g62
(dp3855
sg71
g3568
sg64
(lp3856
g57
(g78
g59
NtRp3857
(dp3858
g62
(dp3859
g82
g83
ssg71
g3853
sg64
(lp3860
S'files'
p3861
asbag57
(g78
g59
NtRp3862
(dp3863
g62
(dp3864
g89
g90
ssg71
g3853
sg64
(lp3865
S':'
asbag57
(g78
g59
NtRp3866
(dp3867
g62
(dp3868
sg71
g3853
sg64
(lp3869
g57
(g58
g59
NtRp3870
(dp3871
g62
(dp3872
g70
I5
ssg71
g3866
sg64
(lp3873
g57
(g66
g59
NtRp3874
(dp3875
g62
(dp3876
g70
I4
ssg71
Nsg64
(lp3877
sbasbasbasbag57
(g73
g59
NtRp3878
(dp3879
g62
(dp3880
sg71
g3568
sg64
(lp3881
g57
(g78
g59
NtRp3882
(dp3883
g62
(dp3884
g82
g83
ssg71
g3878
sg64
(lp3885
S'flash'
p3886
asbag57
(g78
g59
NtRp3887
(dp3888
g62
(dp3889
g89
g90
ssg71
g3878
sg64
(lp3890
S':'
asbag57
(g78
g59
NtRp3891
(dp3892
g62
(dp3893
sg71
g3878
sg64
(lp3894
g57
(g58
g59
NtRp3895
(dp3896
g62
(dp3897
g70
I5
ssg71
g3891
sg64
(lp3898
S''
asbasbasbag57
(g73
g59
NtRp3899
(dp3900
g62
(dp3901
sg71
g3568
sg64
(lp3902
g57
(g78
g59
NtRp3903
(dp3904
g62
(dp3905
g82
g83
ssg71
g3899
sg64
(lp3906
S'generic_patterns'
p3907
asbag57
(g78
g59
NtRp3908
(dp3909
g62
(dp3910
g89
g90
ssg71
g3899
sg64
(lp3911
S':'
asbag57
(g78
g59
NtRp3912
(dp3913
g62
(dp3914
sg71
g3899
sg64
(lp3915
g57
(g58
g59
NtRp3916
(dp3917
g62
(dp3918
g70
I5
ssg71
g3912
sg64
(lp3919
g57
(g66
g59
NtRp3920
(dp3921
g62
(dp3922
g70
I4
ssg71
Nsg64
(lp3923
g57
(g73
g59
NtRp3924
(dp3925
g62
(dp3926
sg71
g3920
sg64
(lp3927
g57
(g78
g59
NtRp3928
(dp3929
g62
(dp3930
sg71
g3924
sg64
(lp3931
g57
(g58
g59
NtRp3932
(dp3933
g62
(dp3934
g70
I4
ssg71
g3928
sg64
(lp3935
S'*'
asbasbasbasbasbasbasbag57
(g73
g59
NtRp3936
(dp3937
g62
(dp3938
sg71
g3568
sg64
(lp3939
g57
(g78
g59
NtRp3940
(dp3941
g62
(dp3942
g82
g83
ssg71
g3936
sg64
(lp3943
S'google_analytics_id'
p3944
asbag57
(g78
g59
NtRp3945
(dp3946
g62
(dp3947
g89
g90
ssg71
g3936
sg64
(lp3948
S':'
asbag57
(g78
g59
NtRp3949
(dp3950
g62
(dp3951
sg71
g3936
sg64
(lp3952
g57
(g58
g59
NtRp3953
(dp3954
g62
(dp3955
g70
I5
ssg71
g3949
sg64
(lp3956
S'None'
p3957
asbasbasbag57
(g73
g59
NtRp3958
(dp3959
g62
(dp3960
sg71
g3568
sg64
(lp3961
g57
(g78
g59
NtRp3962
(dp3963
g62
(dp3964
g82
g83
ssg71
g3958
sg64
(lp3965
S'headers'
p3966
asbag57
(g78
g59
NtRp3967
(dp3968
g62
(dp3969
g89
g90
ssg71
g3958
sg64
(lp3970
S':'
asbag57
(g78
g59
NtRp3971
(dp3972
g62
(dp3973
sg71
g3958
sg64
(lp3974
g57
(g58
g59
NtRp3975
(dp3976
g62
(dp3977
g70
I5
ssg71
g3971
sg64
(lp3978
g57
(g66
g59
NtRp3979
(dp3980
g62
(dp3981
g70
I4
ssg71
Nsg64
(lp3982
g57
(g73
g59
NtRp3983
(dp3984
g62
(dp3985
sg71
g3979
sg64
(lp3986
g57
(g78
g59
NtRp3987
(dp3988
g62
(dp3989
g82
g83
ssg71
g3983
sg64
(lp3990
S'X-Powered-By'
p3991
asbag57
(g78
g59
NtRp3992
(dp3993
g62
(dp3994
g89
g90
ssg71
g3983
sg64
(lp3995
S':'
asbag57
(g78
g59
NtRp3996
(dp3997
g62
(dp3998
sg71
g3983
sg64
(lp3999
g57
(g58
g59
NtRp4000
(dp4001
g62
(dp4002
g70
I4
ssg71
g3996
sg64
(lp4003
S'web2py'
p4004
asbasbasbasbasbasbasbag57
(g73
g59
NtRp4005
(dp4006
g62
(dp4007
sg71
g3568
sg64
(lp4008
g57
(g78
g59
NtRp4009
(dp4010
g62
(dp4011
g82
g83
ssg71
g4005
sg64
(lp4012
S'menu'
p4013
asbag57
(g78
g59
NtRp4014
(dp4015
g62
(dp4016
g89
g90
ssg71
g4005
sg64
(lp4017
S':'
asbag57
(g78
g59
NtRp4018
(dp4019
g62
(dp4020
sg71
g4005
sg64
(lp4021
g57
(g58
g59
NtRp4022
(dp4023
g62
(dp4024
g70
I5
ssg71
g4018
sg64
(lp4025
g57
(g66
g59
NtRp4026
(dp4027
g62
(dp4028
g70
I4
ssg71
Nsg64
(lp4029
g57
(g73
g59
NtRp4030
(dp4031
g62
(dp4032
sg71
g4026
sg64
(lp4033
g57
(g78
g59
NtRp4034
(dp4035
g62
(dp4036
sg71
g4030
sg64
(lp4037
g57
(g58
g59
NtRp4038
(dp4039
g62
(dp4040
g70
I4
ssg71
g4034
sg64
(lp4041
g57
(g66
g59
NtRp4042
(dp4043
g62
(dp4044
g70
I3
ssg71
Nsg64
(lp4045
g57
(g73
g59
NtRp4046
(dp4047
g62
(dp4048
sg71
g4042
sg64
(lp4049
g57
(g78
g59
NtRp4050
(dp4051
g62
(dp4052
sg71
g4046
sg64
(lp4053
g57
(g58
g59
NtRp4054
(dp4055
g62
(dp4056
g70
I3
ssg71
g4050
sg64
(lp4057
cgluon.languages
lazyT_unpickle
p4058
(S's\x04\x00\x00\x00Home'
tRp4059
asbasbasbag57
(g73
g59
NtRp4060
(dp4061
g62
(dp4062
sg71
g4042
sg64
(lp4063
g57
(g78
g59
NtRp4064
(dp4065
g62
(dp4066
sg71
g4060
sg64
(lp4067
g57
(g58
g59
NtRp4068
(dp4069
g62
(dp4070
g70
I3
ssg71
g4064
sg64
(lp4071
g100
asbasbasbag57
(g73
g59
NtRp4072
(dp4073
g62
(dp4074
sg71
g4042
sg64
(lp4075
g57
(g78
g59
NtRp4076
(dp4077
g62
(dp4078
sg71
g4072
sg64
(lp4079
g57
(g58
g59
NtRp4080
(dp4081
g62
(dp4082
g70
I3
ssg71
g4076
sg64
(lp4083
S'/sueldos/default/index'
p4084
asbasbasbag57
(g73
g59
NtRp4085
(dp4086
g62
(dp4087
sg71
g4042
sg64
(lp4088
g57
(g78
g59
NtRp4089
(dp4090
g62
(dp4091
sg71
g4085
sg64
(lp4092
g57
(g58
g59
NtRp4093
(dp4094
g62
(dp4095
g70
I3
ssg71
g4089
sg64
(lp4096
g57
(g66
g59
NtRp4097
(dp4098
g62
(dp4099
g70
I2
ssg71
Nsg64
(lp4100
sbasbasbasbasbasbasbasbag57
(g73
g59
NtRp4101
(dp4102
g62
(dp4103
sg71
g4026
sg64
(lp4104
g57
(g78
g59
NtRp4105
(dp4106
g62
(dp4107
sg71
g4101
sg64
(lp4108
g57
(g58
g59
NtRp4109
(dp4110
g62
(dp4111
g70
I4
ssg71
g4105
sg64
(lp4112
g57
(g66
g59
NtRp4113
(dp4114
g62
(dp4115
g70
I3
ssg71
Nsg64
(lp4116
g57
(g73
g59
NtRp4117
(dp4118
g62
(dp4119
sg71
g4113
sg64
(lp4120
g57
(g78
g59
NtRp4121
(dp4122
g62
(dp4123
sg71
g4117
sg64
(lp4124
g57
(g58
g59
NtRp4125
(dp4126
g62
(dp4127
g70
I3
ssg71
g4121
sg64
(lp4128
g57
(cgluon.html
SPAN
p4129
g59
NtRp4130
(dp4131
g62
(dp4132
S'_class'
p4133
S'highlighted'
p4134
ssg71
Nsg64
(lp4135
g4004
asbasbasbasbag57
(g73
g59
NtRp4136
(dp4137
g62
(dp4138
sg71
g4113
sg64
(lp4139
g57
(g78
g59
NtRp4140
(dp4141
g62
(dp4142
sg71
g4136
sg64
(lp4143
g57
(g58
g59
NtRp4144
(dp4145
g62
(dp4146
g70
I3
ssg71
g4140
sg64
(lp4147
g100
asbasbasbag57
(g73
g59
NtRp4148
(dp4149
g62
(dp4150
sg71
g4113
sg64
(lp4151
g57
(g78
g59
NtRp4152
(dp4153
g62
(dp4154
sg71
g4148
sg64
(lp4155
g57
(g58
g59
NtRp4156
(dp4157
g62
(dp4158
g70
I3
ssg71
g4152
sg64
(lp4159
S'http://web2py.com'
p4160
asbasbasbag57
(g73
g59
NtRp4161
(dp4162
g62
(dp4163
sg71
g4113
sg64
(lp4164
g57
(g78
g59
NtRp4165
(dp4166
g62
(dp4167
sg71
g4161
sg64
(lp4168
g57
(g58
g59
NtRp4169
(dp4170
g62
(dp4171
g70
I3
ssg71
g4165
sg64
(lp4172
g57
(g66
g59
NtRp4173
(dp4174
g62
(dp4175
g70
I2
ssg71
Nsg64
(lp4176
g57
(g73
g59
NtRp4177
(dp4178
g62
(dp4179
sg71
g4173
sg64
(lp4180
g57
(g78
g59
NtRp4181
(dp4182
g62
(dp4183
sg71
g4177
sg64
(lp4184
g57
(g58
g59
NtRp4185
(dp4186
g62
(dp4187
g70
I2
ssg71
g4181
sg64
(lp4188
g57
(g66
g59
NtRp4189
(dp4190
g62
(dp4191
g70
I1
ssg71
Nsg64
(lp4192
g57
(g73
g59
NtRp4193
(dp4194
g62
(dp4195
sg71
g4189
sg64
(lp4196
g57
(g78
g59
NtRp4197
(dp4198
g62
(dp4199
sg71
g4193
sg64
(lp4200
g57
(g58
g59
NtRp4201
(dp4202
g62
(dp4203
g70
I1
ssg71
g4197
sg64
(lp4204
g4058
(S's\x08\x00\x00\x00My Sites'
tRp4205
asbasbasbag57
(g73
g59
NtRp4206
(dp4207
g62
(dp4208
sg71
g4189
sg64
(lp4209
g57
(g78
g59
NtRp4210
(dp4211
g62
(dp4212
sg71
g4206
sg64
(lp4213
g57
(g58
g59
NtRp4214
(dp4215
g62
(dp4216
g70
I1
ssg71
g4210
sg64
(lp4217
I00
asbasbasbag57
(g73
g59
NtRp4218
(dp4219
g62
(dp4220
sg71
g4189
sg64
(lp4221
g57
(g78
g59
NtRp4222
(dp4223
g62
(dp4224
sg71
g4218
sg64
(lp4225
g57
(g58
g59
NtRp4226
(dp4227
g62
(dp4228
g70
I1
ssg71
g4222
sg64
(lp4229
S'/admin/default/site'
p4230
asbasbasbasbasbasbasbag57
(g73
g59
NtRp4231
(dp4232
g62
(dp4233
sg71
g4173
sg64
(lp4234
g57
(g78
g59
NtRp4235
(dp4236
g62
(dp4237
sg71
g4231
sg64
(lp4238
g57
(g58
g59
NtRp4239
(dp4240
g62
(dp4241
g70
I2
ssg71
g4235
sg64
(lp4242
g57
(g66
g59
NtRp4243
(dp4244
g62
(dp4245
g70
I1
ssg71
Nsg64
(lp4246
g57
(g73
g59
NtRp4247
(dp4248
g62
(dp4249
sg71
g4243
sg64
(lp4250
g57
(g78
g59
NtRp4251
(dp4252
g62
(dp4253
sg71
g4247
sg64
(lp4254
g57
(g58
g59
NtRp4255
(dp4256
g62
(dp4257
g70
I1
ssg71
g4251
sg64
(lp4258
g4058
(S's\x08\x00\x00\x00This App'
tRp4259
asbasbasbag57
(g73
g59
NtRp4260
(dp4261
g62
(dp4262
sg71
g4243
sg64
(lp4263
g57
(g78
g59
NtRp4264
(dp4265
g62
(dp4266
sg71
g4260
sg64
(lp4267
g57
(g58
g59
NtRp4268
(dp4269
g62
(dp4270
g70
I1
ssg71
g4264
sg64
(lp4271
I00
asbasbasbag57
(g73
g59
NtRp4272
(dp4273
g62
(dp4274
sg71
g4243
sg64
(lp4275
g57
(g78
g59
NtRp4276
(dp4277
g62
(dp4278
sg71
g4272
sg64
(lp4279
g57
(g58
g59
NtRp4280
(dp4281
g62
(dp4282
g70
I1
ssg71
g4276
sg64
(lp4283
S'/admin/default/design/sueldos'
p4284
asbasbasbag57
(g73
g59
NtRp4285
(dp4286
g62
(dp4287
sg71
g4243
sg64
(lp4288
g57
(g78
g59
NtRp4289
(dp4290
g62
(dp4291
sg71
g4285
sg64
(lp4292
g57
(g58
g59
NtRp4293
(dp4294
g62
(dp4295
g70
I1
ssg71
g4289
sg64
(lp4296
(lp4297
(g4058
(S's\n\x00\x00\x00Controller'
tRp4298
I00
S'/admin/default/edit/sueldos/controllers/vistas.py'
tp4299
a(g4058
(S's\x04\x00\x00\x00View'
tRp4300
I00
S'/admin/default/edit/sueldos/views/vistas/escalas.html'
tp4301
a(g4058
(S's\x06\x00\x00\x00Layout'
tRp4302
I00
S'/admin/default/edit/sueldos/views/layout.html'
tp4303
a(g4058
(S's\n\x00\x00\x00Stylesheet'
tRp4304
I00
S'/admin/default/edit/sueldos/static/css/web2py.css'
tp4305
a(g4058
(S's\x08\x00\x00\x00DB Model'
tRp4306
I00
S'/admin/default/edit/sueldos/models/db.py'
tp4307
a(g4058
(S's\n\x00\x00\x00Menu Model'
tRp4308
I00
S'/admin/default/edit/sueldos/models/menu.py'
tp4309
a(g4058
(S's\x08\x00\x00\x00Database'
tRp4310
I00
S'/sueldos/appadmin/index'
tp4311
a(g4058
(S's\x06\x00\x00\x00Errors'
tRp4312
I00
S'/admin/default/errors/sueldos'
tp4313
a(g4058
(S's\x05\x00\x00\x00About'
tRp4314
I00
S'/admin/default/about/sueldos'
tp4315
aasbasbasbasbasbasbasbag57
(g73
g59
NtRp4316
(dp4317
g62
(dp4318
sg71
g4173
sg64
(lp4319
g57
(g78
g59
NtRp4320
(dp4321
g62
(dp4322
sg71
g4316
sg64
(lp4323
g57
(g58
g59
NtRp4324
(dp4325
g62
(dp4326
g70
I2
ssg71
g4320
sg64
(lp4327
g57
(g66
g59
NtRp4328
(dp4329
g62
(dp4330
g70
I1
ssg71
Nsg64
(lp4331
g57
(g73
g59
NtRp4332
(dp4333
g62
(dp4334
sg71
g4328
sg64
(lp4335
g57
(g78
g59
NtRp4336
(dp4337
g62
(dp4338
sg71
g4332
sg64
(lp4339
g57
(g58
g59
NtRp4340
(dp4341
g62
(dp4342
g70
I1
ssg71
g4336
sg64
(lp4343
S'web2py.com'
p4344
asbasbasbag57
(g73
g59
NtRp4345
(dp4346
g62
(dp4347
sg71
g4328
sg64
(lp4348
g57
(g78
g59
NtRp4349
(dp4350
g62
(dp4351
sg71
g4345
sg64
(lp4352
g57
(g58
g59
NtRp4353
(dp4354
g62
(dp4355
g70
I1
ssg71
g4349
sg64
(lp4356
I00
asbasbasbag57
(g73
g59
NtRp4357
(dp4358
g62
(dp4359
sg71
g4328
sg64
(lp4360
g57
(g78
g59
NtRp4361
(dp4362
g62
(dp4363
sg71
g4357
sg64
(lp4364
g57
(g58
g59
NtRp4365
(dp4366
g62
(dp4367
g70
I1
ssg71
g4361
sg64
(lp4368
S'http://www.web2py.com'
p4369
asbasbasbag57
(g73
g59
NtRp4370
(dp4371
g62
(dp4372
sg71
g4328
sg64
(lp4373
g57
(g78
g59
NtRp4374
(dp4375
g62
(dp4376
sg71
g4370
sg64
(lp4377
g57
(g58
g59
NtRp4378
(dp4379
g62
(dp4380
g70
I1
ssg71
g4374
sg64
(lp4381
(lp4382
(g4058
(S's\x08\x00\x00\x00Download'
tRp4383
I00
S'http://www.web2py.com/examples/default/download'
p4384
tp4385
a(g4058
(S's\x07\x00\x00\x00Support'
tRp4386
I00
S'http://www.web2py.com/examples/default/support'
p4387
tp4388
a(g4058
(S's\x04\x00\x00\x00Demo'
tRp4389
I00
S'http://web2py.com/demo_admin'
p4390
tp4391
a(g4058
(S's\x0e\x00\x00\x00Quick Examples'
tRp4392
I00
S'http://web2py.com/examples/default/examples'
p4393
tp4394
a(g4058
(S's\x03\x00\x00\x00FAQ'
tRp4395
I00
S'http://web2py.com/AlterEgo'
p4396
tp4397
a(g4058
(S's\x06\x00\x00\x00Videos'
tRp4398
I00
S'http://www.web2py.com/examples/default/videos/'
p4399
tp4400
a(g4058
(S's\x11\x00\x00\x00Free Applications'
tRp4401
I00
S'http://web2py.com/appliances'
p4402
tp4403
a(g4058
(S's\x07\x00\x00\x00Plugins'
tRp4404
I00
S'http://web2py.com/plugins'
p4405
tp4406
a(g4058
(S's\x07\x00\x00\x00Layouts'
tRp4407
I00
S'http://web2py.com/layouts'
p4408
tp4409
a(g4058
(S's\x07\x00\x00\x00Recipes'
tRp4410
I00
S'http://web2pyslices.com/'
p4411
tp4412
a(g4058
(S's\x08\x00\x00\x00Semantic'
tRp4413
I00
S'http://web2py.com/semantic'
p4414
tp4415
aasbasbasbasbasbasbasbag57
(g73
g59
NtRp4416
(dp4417
g62
(dp4418
sg71
g4173
sg64
(lp4419
g57
(g78
g59
NtRp4420
(dp4421
g62
(dp4422
sg71
g4416
sg64
(lp4423
g57
(g58
g59
NtRp4424
(dp4425
g62
(dp4426
g70
I2
ssg71
g4420
sg64
(lp4427
g57
(g66
g59
NtRp4428
(dp4429
g62
(dp4430
g70
I1
ssg71
Nsg64
(lp4431
g57
(g73
g59
NtRp4432
(dp4433
g62
(dp4434
sg71
g4428
sg64
(lp4435
g57
(g78
g59
NtRp4436
(dp4437
g62
(dp4438
sg71
g4432
sg64
(lp4439
g57
(g58
g59
NtRp4440
(dp4441
g62
(dp4442
g70
I1
ssg71
g4436
sg64
(lp4443
g4058
(S's\r\x00\x00\x00Documentation'
tRp4444
asbasbasbag57
(g73
g59
NtRp4445
(dp4446
g62
(dp4447
sg71
g4428
sg64
(lp4448
g57
(g78
g59
NtRp4449
(dp4450
g62
(dp4451
sg71
g4445
sg64
(lp4452
g57
(g58
g59
NtRp4453
(dp4454
g62
(dp4455
g70
I1
ssg71
g4449
sg64
(lp4456
I00
asbasbasbag57
(g73
g59
NtRp4457
(dp4458
g62
(dp4459
sg71
g4428
sg64
(lp4460
g57
(g78
g59
NtRp4461
(dp4462
g62
(dp4463
sg71
g4457
sg64
(lp4464
g57
(g58
g59
NtRp4465
(dp4466
g62
(dp4467
g70
I1
ssg71
g4461
sg64
(lp4468
S'http://www.web2py.com/book'
p4469
asbasbasbag57
(g73
g59
NtRp4470
(dp4471
g62
(dp4472
sg71
g4428
sg64
(lp4473
g57
(g78
g59
NtRp4474
(dp4475
g62
(dp4476
sg71
g4470
sg64
(lp4477
g57
(g58
g59
NtRp4478
(dp4479
g62
(dp4480
g70
I1
ssg71
g4474
sg64
(lp4481
(lp4482
(g4058
(S's\x07\x00\x00\x00Preface'
tRp4483
I00
S'http://www.web2py.com/book/default/chapter/00'
p4484
tp4485
a(g4058
(S's\x0c\x00\x00\x00Introduction'
tRp4486
I00
S'http://www.web2py.com/book/default/chapter/01'
p4487
tp4488
a(g4058
(S's\x06\x00\x00\x00Python'
tRp4489
I00
S'http://www.web2py.com/book/default/chapter/02'
p4490
tp4491
a(g4058
(S's\x08\x00\x00\x00Overview'
tRp4492
I00
S'http://www.web2py.com/book/default/chapter/03'
p4493
tp4494
a(g4058
(S's\x08\x00\x00\x00The Core'
tRp4495
I00
S'http://www.web2py.com/book/default/chapter/04'
p4496
tp4497
a(g4058
(S's\t\x00\x00\x00The Views'
tRp4498
I00
S'http://www.web2py.com/book/default/chapter/05'
p4499
tp4500
a(g4058
(S's\x08\x00\x00\x00Database'
tRp4501
I00
S'http://www.web2py.com/book/default/chapter/06'
p4502
tp4503
a(g4058
(S's\x14\x00\x00\x00Forms and Validators'
tRp4504
I00
S'http://www.web2py.com/book/default/chapter/07'
p4505
tp4506
a(g4058
(S's\r\x00\x00\x00Email and SMS'
tRp4507
I00
S'http://www.web2py.com/book/default/chapter/08'
p4508
tp4509
a(g4058
(S's\x0e\x00\x00\x00Access Control'
tRp4510
I00
S'http://www.web2py.com/book/default/chapter/09'
p4511
tp4512
a(g4058
(S's\x08\x00\x00\x00Services'
tRp4513
I00
S'http://www.web2py.com/book/default/chapter/10'
p4514
tp4515
a(g4058
(S's\x0c\x00\x00\x00Ajax Recipes'
tRp4516
I00
S'http://www.web2py.com/book/default/chapter/11'
p4517
tp4518
a(g4058
(S's\x16\x00\x00\x00Components and Plugins'
tRp4519
I00
S'http://www.web2py.com/book/default/chapter/12'
p4520
tp4521
a(g4058
(S's\x12\x00\x00\x00Deployment Recipes'
tRp4522
I00
S'http://www.web2py.com/book/default/chapter/13'
p4523
tp4524
a(g4058
(S's\r\x00\x00\x00Other Recipes'
tRp4525
I00
S'http://www.web2py.com/book/default/chapter/14'
p4526
tp4527
a(g4058
(S's\r\x00\x00\x00Buy this book'
tRp4528
I00
S'http://stores.lulu.com/web2py'
p4529
tp4530
aasbasbasbasbasbasbasbag57
(g73
g59
NtRp4531
(dp4532
g62
(dp4533
sg71
g4173
sg64
(lp4534
g57
(g78
g59
NtRp4535
(dp4536
g62
(dp4537
sg71
g4531
sg64
(lp4538
g57
(g58
g59
NtRp4539
(dp4540
g62
(dp4541
g70
I2
ssg71
g4535
sg64
(lp4542
g57
(g66
g59
NtRp4543
(dp4544
g62
(dp4545
g70
I1
ssg71
Nsg64
(lp4546
g57
(g73
g59
NtRp4547
(dp4548
g62
(dp4549
sg71
g4543
sg64
(lp4550
g57
(g78
g59
NtRp4551
(dp4552
g62
(dp4553
sg71
g4547
sg64
(lp4554
g57
(g58
g59
NtRp4555
(dp4556
g62
(dp4557
g70
I1
ssg71
g4551
sg64
(lp4558
g4058
(S's\t\x00\x00\x00Community'
tRp4559
asbasbasbag57
(g73
g59
NtRp4560
(dp4561
g62
(dp4562
sg71
g4543
sg64
(lp4563
g57
(g78
g59
NtRp4564
(dp4565
g62
(dp4566
sg71
g4560
sg64
(lp4567
g57
(g58
g59
NtRp4568
(dp4569
g62
(dp4570
g70
I1
ssg71
g4564
sg64
(lp4571
I00
asbasbasbag57
(g73
g59
NtRp4572
(dp4573
g62
(dp4574
sg71
g4543
sg64
(lp4575
g57
(g78
g59
NtRp4576
(dp4577
g62
(dp4578
sg71
g4572
sg64
(lp4579
g57
(g58
g59
NtRp4580
(dp4581
g62
(dp4582
g70
I1
ssg71
g4576
sg64
(lp4583
Nasbasbasbag57
(g73
g59
NtRp4584
(dp4585
g62
(dp4586
sg71
g4543
sg64
(lp4587
g57
(g78
g59
NtRp4588
(dp4589
g62
(dp4590
sg71
g4584
sg64
(lp4591
g57
(g58
g59
NtRp4592
(dp4593
g62
(dp4594
g70
I1
ssg71
g4588
sg64
(lp4595
(lp4596
(g4058
(S's\x06\x00\x00\x00Groups'
tRp4597
I00
S'http://www.web2py.com/examples/default/usergroups'
p4598
tp4599
a(g4058
(S's\x07\x00\x00\x00Twitter'
tRp4600
I00
S'http://twitter.com/web2py'
p4601
tp4602
a(g4058
(S's\t\x00\x00\x00Live Chat'
tRp4603
I00
S'http://webchat.freenode.net/?channels=web2py'
p4604
tp4605
aasbasbasbasbasbasbasbag57
(g73
g59
NtRp4606
(dp4607
g62
(dp4608
sg71
g4173
sg64
(lp4609
g57
(g78
g59
NtRp4610
(dp4611
g62
(dp4612
sg71
g4606
sg64
(lp4613
g57
(g58
g59
NtRp4614
(dp4615
g62
(dp4616
g70
I2
ssg71
g4610
sg64
(lp4617
g57
(g66
g59
NtRp4618
(dp4619
g62
(dp4620
g70
I1
ssg71
Nsg64
(lp4621
g57
(g73
g59
NtRp4622
(dp4623
g62
(dp4624
sg71
g4618
sg64
(lp4625
g57
(g78
g59
NtRp4626
(dp4627
g62
(dp4628
sg71
g4622
sg64
(lp4629
g57
(g58
g59
NtRp4630
(dp4631
g62
(dp4632
g70
I1
ssg71
g4626
sg64
(lp4633
g4058
(S's\x07\x00\x00\x00Plugins'
tRp4634
asbasbasbag57
(g73
g59
NtRp4635
(dp4636
g62
(dp4637
sg71
g4618
sg64
(lp4638
g57
(g78
g59
NtRp4639
(dp4640
g62
(dp4641
sg71
g4635
sg64
(lp4642
g57
(g58
g59
NtRp4643
(dp4644
g62
(dp4645
g70
I1
ssg71
g4639
sg64
(lp4646
I00
asbasbasbag57
(g73
g59
NtRp4647
(dp4648
g62
(dp4649
sg71
g4618
sg64
(lp4650
g57
(g78
g59
NtRp4651
(dp4652
g62
(dp4653
sg71
g4647
sg64
(lp4654
g57
(g58
g59
NtRp4655
(dp4656
g62
(dp4657
g70
I1
ssg71
g4651
sg64
(lp4658
Nasbasbasbag57
(g73
g59
NtRp4659
(dp4660
g62
(dp4661
sg71
g4618
sg64
(lp4662
g57
(g78
g59
NtRp4663
(dp4664
g62
(dp4665
sg71
g4659
sg64
(lp4666
g57
(g58
g59
NtRp4667
(dp4668
g62
(dp4669
g70
I1
ssg71
g4663
sg64
(lp4670
(lp4671
(S'plugin_wiki'
p4672
I00
S'http://web2py.com/examples/default/download'
p4673
tp4674
a(g4058
(S's\r\x00\x00\x00Other Plugins'
tRp4675
I00
g4405
tp4676
a(g4058
(S's\x0e\x00\x00\x00Layout Plugins'
tRp4677
I00
g4408
tp4678
aasbasbasbasbasbasbasbasbasbasbasbasbasbasbasbasbasbasbasbag57
(g73
g59
NtRp4679
(dp4680
g62
(dp4681
sg71
g3568
sg64
(lp4682
g57
(g78
g59
NtRp4683
(dp4684
g62
(dp4685
g82
g83
ssg71
g4679
sg64
(lp4686
S'meta'
p4687
asbag57
(g78
g59
NtRp4688
(dp4689
g62
(dp4690
g89
g90
ssg71
g4679
sg64
(lp4691
S':'
asbag57
(g78
g59
NtRp4692
(dp4693
g62
(dp4694
sg71
g4679
sg64
(lp4695
g57
(g58
g59
NtRp4696
(dp4697
g62
(dp4698
g70
I5
ssg71
g4692
sg64
(lp4699
g57
(g66
g59
NtRp4700
(dp4701
g62
(dp4702
g70
I4
ssg71
Nsg64
(lp4703
g57
(g73
g59
NtRp4704
(dp4705
g62
(dp4706
sg71
g4700
sg64
(lp4707
g57
(g78
g59
NtRp4708
(dp4709
g62
(dp4710
g82
g83
ssg71
g4704
sg64
(lp4711
S'author'
p4712
asbag57
(g78
g59
NtRp4713
(dp4714
g62
(dp4715
g89
g90
ssg71
g4704
sg64
(lp4716
S':'
asbag57
(g78
g59
NtRp4717
(dp4718
g62
(dp4719
sg71
g4704
sg64
(lp4720
g57
(g58
g59
NtRp4721
(dp4722
g62
(dp4723
g70
I4
ssg71
g4717
sg64
(lp4724
S'Your Name <you@example.com>'
p4725
asbasbasbag57
(g73
g59
NtRp4726
(dp4727
g62
(dp4728
sg71
g4700
sg64
(lp4729
g57
(g78
g59
NtRp4730
(dp4731
g62
(dp4732
g82
g83
ssg71
g4726
sg64
(lp4733
S'description'
p4734
asbag57
(g78
g59
NtRp4735
(dp4736
g62
(dp4737
g89
g90
ssg71
g4726
sg64
(lp4738
S':'
asbag57
(g78
g59
NtRp4739
(dp4740
g62
(dp4741
sg71
g4726
sg64
(lp4742
g57
(g58
g59
NtRp4743
(dp4744
g62
(dp4745
g70
I4
ssg71
g4739
sg64
(lp4746
S'a cool new app'
p4747
asbasbasbag57
(g73
g59
NtRp4748
(dp4749
g62
(dp4750
sg71
g4700
sg64
(lp4751
g57
(g78
g59
NtRp4752
(dp4753
g62
(dp4754
g82
g83
ssg71
g4748
sg64
(lp4755
S'generator'
p4756
asbag57
(g78
g59
NtRp4757
(dp4758
g62
(dp4759
g89
g90
ssg71
g4748
sg64
(lp4760
S':'
asbag57
(g78
g59
NtRp4761
(dp4762
g62
(dp4763
sg71
g4748
sg64
(lp4764
g57
(g58
g59
NtRp4765
(dp4766
g62
(dp4767
g70
I4
ssg71
g4761
sg64
(lp4768
S'Web2py Web Framework'
p4769
asbasbasbag57
(g73
g59
NtRp4770
(dp4771
g62
(dp4772
sg71
g4700
sg64
(lp4773
g57
(g78
g59
NtRp4774
(dp4775
g62
(dp4776
g82
g83
ssg71
g4770
sg64
(lp4777
S'keywords'
p4778
asbag57
(g78
g59
NtRp4779
(dp4780
g62
(dp4781
g89
g90
ssg71
g4770
sg64
(lp4782
S':'
asbag57
(g78
g59
NtRp4783
(dp4784
g62
(dp4785
sg71
g4770
sg64
(lp4786
g57
(g58
g59
NtRp4787
(dp4788
g62
(dp4789
g70
I4
ssg71
g4783
sg64
(lp4790
S'web2py, python, framework'
p4791
asbasbasbasbasbasbasbag57
(g73
g59
NtRp4792
(dp4793
g62
(dp4794
sg71
g3568
sg64
(lp4795
g57
(g78
g59
NtRp4796
(dp4797
g62
(dp4798
g82
g83
ssg71
g4792
sg64
(lp4799
S'models_to_run'
p4800
asbag57
(g78
g59
NtRp4801
(dp4802
g62
(dp4803
g89
g90
ssg71
g4792
sg64
(lp4804
S':'
asbag57
(g78
g59
NtRp4805
(dp4806
g62
(dp4807
sg71
g4792
sg64
(lp4808
g57
(g58
g59
NtRp4809
(dp4810
g62
(dp4811
g70
I5
ssg71
g4805
sg64
(lp4812
g57
(g66
g59
NtRp4813
(dp4814
g62
(dp4815
g70
I4
ssg71
Nsg64
(lp4816
g57
(g73
g59
NtRp4817
(dp4818
g62
(dp4819
sg71
g4813
sg64
(lp4820
g57
(g78
g59
NtRp4821
(dp4822
g62
(dp4823
sg71
g4817
sg64
(lp4824
g57
(g58
g59
NtRp4825
(dp4826
g62
(dp4827
g70
I4
ssg71
g4821
sg64
(lp4828
S'^\\w+\\.py$'
p4829
asbasbasbag57
(g73
g59
NtRp4830
(dp4831
g62
(dp4832
sg71
g4813
sg64
(lp4833
g57
(g78
g59
NtRp4834
(dp4835
g62
(dp4836
sg71
g4830
sg64
(lp4837
g57
(g58
g59
NtRp4838
(dp4839
g62
(dp4840
g70
I4
ssg71
g4834
sg64
(lp4841
S'^vistas/\\w+\\.py$'
p4842
asbasbasbag57
(g73
g59
NtRp4843
(dp4844
g62
(dp4845
sg71
g4813
sg64
(lp4846
g57
(g78
g59
NtRp4847
(dp4848
g62
(dp4849
sg71
g4843
sg64
(lp4850
g57
(g58
g59
NtRp4851
(dp4852
g62
(dp4853
g70
I4
ssg71
g4847
sg64
(lp4854
S'^vistas/escalas/\\w+\\.py$'
p4855
asbasbasbasbasbasbasbag57
(g73
g59
NtRp4856
(dp4857
g62
(dp4858
sg71
g3568
sg64
(lp4859
g57
(g78
g59
NtRp4860
(dp4861
g62
(dp4862
g82
g83
ssg71
g4856
sg64
(lp4863
S'postprocessing'
p4864
asbag57
(g78
g59
NtRp4865
(dp4866
g62
(dp4867
g89
g90
ssg71
g4856
sg64
(lp4868
S':'
asbag57
(g78
g59
NtRp4869
(dp4870
g62
(dp4871
sg71
g4856
sg64
(lp4872
g57
(g58
g59
NtRp4873
(dp4874
g62
(dp4875
g70
I5
ssg71
g4869
sg64
(lp4876
g57
(g66
g59
NtRp4877
(dp4878
g62
(dp4879
g70
I4
ssg71
Nsg64
(lp4880
sbasbasbasbag57
(g73
g59
NtRp4881
(dp4882
g62
(dp4883
sg71
g3568
sg64
(lp4884
g57
(g78
g59
NtRp4885
(dp4886
g62
(dp4887
g82
g83
ssg71
g4881
sg64
(lp4888
S'session_cookie_expires'
p4889
asbag57
(g78
g59
NtRp4890
(dp4891
g62
(dp4892
g89
g90
ssg71
g4881
sg64
(lp4893
S':'
asbag57
(g78
g59
NtRp4894
(dp4895
g62
(dp4896
sg71
g4881
sg64
(lp4897
g57
(g58
g59
NtRp4898
(dp4899
g62
(dp4900
g70
I5
ssg71
g4894
sg64
(lp4901
S'None'
p4902
asbasbasbag57
(g73
g59
NtRp4903
(dp4904
g62
(dp4905
sg71
g3568
sg64
(lp4906
g57
(g78
g59
NtRp4907
(dp4908
g62
(dp4909
g82
g83
ssg71
g4903
sg64
(lp4910
S'session_data_name'
p4911
asbag57
(g78
g59
NtRp4912
(dp4913
g62
(dp4914
g89
g90
ssg71
g4903
sg64
(lp4915
S':'
asbag57
(g78
g59
NtRp4916
(dp4917
g62
(dp4918
sg71
g4903
sg64
(lp4919
g57
(g58
g59
NtRp4920
(dp4921
g62
(dp4922
g70
I5
ssg71
g4916
sg64
(lp4923
S'session_data_sueldos'
p4924
asbasbasbag57
(g73
g59
NtRp4925
(dp4926
g62
(dp4927
sg71
g3568
sg64
(lp4928
g57
(g78
g59
NtRp4929
(dp4930
g62
(dp4931
g82
g83
ssg71
g4925
sg64
(lp4932
S'session_file'
p4933
asbag57
(g78
g59
NtRp4934
(dp4935
g62
(dp4936
g89
g90
ssg71
g4925
sg64
(lp4937
S':'
asbag57
(g78
g59
NtRp4938
(dp4939
g62
(dp4940
sg71
g4925
sg64
(lp4941
g57
(g58
g59
NtRp4942
(dp4943
g62
(dp4944
g70
I5
ssg71
g4938
sg64
(lp4945
S"<open file '/home/marco/projects/contabilidad/web2py/applications/sueldos/sessions/127.0.0.1-05ce4365-dc54-4394-bd3e-60890d75bc96', mode 'rb+' at 0x38958a0>"
p4946
asbasbasbag57
(g73
g59
NtRp4947
(dp4948
g62
(dp4949
sg71
g3568
sg64
(lp4950
g57
(g78
g59
NtRp4951
(dp4952
g62
(dp4953
g82
g83
ssg71
g4947
sg64
(lp4954
S'session_filename'
p4955
asbag57
(g78
g59
NtRp4956
(dp4957
g62
(dp4958
g89
g90
ssg71
g4947
sg64
(lp4959
S':'
asbag57
(g78
g59
NtRp4960
(dp4961
g62
(dp4962
sg71
g4947
sg64
(lp4963
g57
(g58
g59
NtRp4964
(dp4965
g62
(dp4966
g70
I5
ssg71
g4960
sg64
(lp4967
S'/home/marco/projects/contabilidad/web2py/applications/sueldos/sessions/127.0.0.1-05ce4365-dc54-4394-bd3e-60890d75bc96'
p4968
asbasbasbag57
(g73
g59
NtRp4969
(dp4970
g62
(dp4971
sg71
g3568
sg64
(lp4972
g57
(g78
g59
NtRp4973
(dp4974
g62
(dp4975
g82
g83
ssg71
g4969
sg64
(lp4976
S'session_id'
p4977
asbag57
(g78
g59
NtRp4978
(dp4979
g62
(dp4980
g89
g90
ssg71
g4969
sg64
(lp4981
S':'
asbag57
(g78
g59
NtRp4982
(dp4983
g62
(dp4984
sg71
g4969
sg64
(lp4985
g57
(g58
g59
NtRp4986
(dp4987
g62
(dp4988
g70
I5
ssg71
g4982
sg64
(lp4989
g475
asbasbasbag57
(g73
g59
NtRp4990
(dp4991
g62
(dp4992
sg71
g3568
sg64
(lp4993
g57
(g78
g59
NtRp4994
(dp4995
g62
(dp4996
g82
g83
ssg71
g4990
sg64
(lp4997
S'session_id_name'
p4998
asbag57
(g78
g59
NtRp4999
(dp5000
g62
(dp5001
g89
g90
ssg71
g4990
sg64
(lp5002
S':'
asbag57
(g78
g59
NtRp5003
(dp5004
g62
(dp5005
sg71
g4990
sg64
(lp5006
g57
(g58
g59
NtRp5007
(dp5008
g62
(dp5009
g70
I5
ssg71
g5003
sg64
(lp5010
g3625
asbasbasbag57
(g73
g59
NtRp5011
(dp5012
g62
(dp5013
sg71
g3568
sg64
(lp5014
g57
(g78
g59
NtRp5015
(dp5016
g62
(dp5017
g82
g83
ssg71
g5011
sg64
(lp5018
S'session_locked'
p5019
asbag57
(g78
g59
NtRp5020
(dp5021
g62
(dp5022
g89
g90
ssg71
g5011
sg64
(lp5023
S':'
asbag57
(g78
g59
NtRp5024
(dp5025
g62
(dp5026
sg71
g5011
sg64
(lp5027
g57
(g58
g59
NtRp5028
(dp5029
g62
(dp5030
g70
I5
ssg71
g5024
sg64
(lp5031
g1693
asbasbasbag57
(g73
g59
NtRp5032
(dp5033
g62
(dp5034
sg71
g3568
sg64
(lp5035
g57
(g78
g59
NtRp5036
(dp5037
g62
(dp5038
g82
g83
ssg71
g5032
sg64
(lp5039
S'session_new'
p5040
asbag57
(g78
g59
NtRp5041
(dp5042
g62
(dp5043
g89
g90
ssg71
g5032
sg64
(lp5044
S':'
asbag57
(g78
g59
NtRp5045
(dp5046
g62
(dp5047
sg71
g5032
sg64
(lp5048
g57
(g58
g59
NtRp5049
(dp5050
g62
(dp5051
g70
I5
ssg71
g5045
sg64
(lp5052
g100
asbasbasbag57
(g73
g59
NtRp5053
(dp5054
g62
(dp5055
sg71
g3568
sg64
(lp5056
g57
(g78
g59
NtRp5057
(dp5058
g62
(dp5059
g82
g83
ssg71
g5053
sg64
(lp5060
S'session_storage_type'
p5061
asbag57
(g78
g59
NtRp5062
(dp5063
g62
(dp5064
g89
g90
ssg71
g5053
sg64
(lp5065
S':'
asbag57
(g78
g59
NtRp5066
(dp5067
g62
(dp5068
sg71
g5053
sg64
(lp5069
g57
(g58
g59
NtRp5070
(dp5071
g62
(dp5072
g70
I5
ssg71
g5066
sg64
(lp5073
g3446
asbasbasbag57
(g73
g59
NtRp5074
(dp5075
g62
(dp5076
sg71
g3568
sg64
(lp5077
g57
(g78
g59
NtRp5078
(dp5079
g62
(dp5080
g82
g83
ssg71
g5074
sg64
(lp5081
S'status'
p5082
asbag57
(g78
g59
NtRp5083
(dp5084
g62
(dp5085
g89
g90
ssg71
g5074
sg64
(lp5086
S':'
asbag57
(g78
g59
NtRp5087
(dp5088
g62
(dp5089
sg71
g5074
sg64
(lp5090
g57
(g58
g59
NtRp5091
(dp5092
g62
(dp5093
g70
I5
ssg71
g5087
sg64
(lp5094
S'200'
p5095
asbasbasbag57
(g73
g59
NtRp5096
(dp5097
g62
(dp5098
sg71
g3568
sg64
(lp5099
g57
(g78
g59
NtRp5100
(dp5101
g62
(dp5102
g82
g83
ssg71
g5096
sg64
(lp5103
S'subtitle'
p5104
asbag57
(g78
g59
NtRp5105
(dp5106
g62
(dp5107
g89
g90
ssg71
g5096
sg64
(lp5108
S':'
asbag57
(g78
g59
NtRp5109
(dp5110
g62
(dp5111
sg71
g5096
sg64
(lp5112
g57
(g58
g59
NtRp5113
(dp5114
g62
(dp5115
g70
I5
ssg71
g5109
sg64
(lp5116
g4058
(S's,\x00\x00\x00Sistema de liquidacion de sueldos y jornales'
tRp5117
asbasbasbag57
(g73
g59
NtRp5118
(dp5119
g62
(dp5120
sg71
g3568
sg64
(lp5121
g57
(g78
g59
NtRp5122
(dp5123
g62
(dp5124
g82
g83
ssg71
g5118
sg64
(lp5125
S'title'
p5126
asbag57
(g78
g59
NtRp5127
(dp5128
g62
(dp5129
g89
g90
ssg71
g5118
sg64
(lp5130
S':'
asbag57
(g78
g59
NtRp5131
(dp5132
g62
(dp5133
sg71
g5118
sg64
(lp5134
g57
(g58
g59
NtRp5135
(dp5136
g62
(dp5137
g70
I5
ssg71
g5131
sg64
(lp5138
S'Sueldos'
p5139
asbasbasbag57
(g73
g59
NtRp5140
(dp5141
g62
(dp5142
sg71
g3568
sg64
(lp5143
g57
(g78
g59
NtRp5144
(dp5145
g62
(dp5146
g82
g83
ssg71
g5140
sg64
(lp5147
S'view'
p5148
asbag57
(g78
g59
NtRp5149
(dp5150
g62
(dp5151
g89
g90
ssg71
g5140
sg64
(lp5152
S':'
asbag57
(g78
g59
NtRp5153
(dp5154
g62
(dp5155
sg71
g5140
sg64
(lp5156
g57
(g58
g59
NtRp5157
(dp5158
g62
(dp5159
g70
I5
ssg71
g5153
sg64
(lp5160
S'vistas/escalas.html'
p5161
asbasbasbasbasbsS'locals'
p5162
(dp5163
ssS'traceback'
p5164
S'Traceback (most recent call last):\n  File "/home/marco/projects/contabilidad/web2py/gluon/restricted.py", line 212, in restricted\n    exec ccode in environment\n  File "/home/marco/projects/contabilidad/web2py/applications/sueldos/controllers/vistas.py", line 33, in <module>\n  File "/home/marco/projects/contabilidad/web2py/gluon/globals.py", line 193, in <lambda>\n    self._caller = lambda f: f()\n  File "/home/marco/projects/contabilidad/web2py/applications/sueldos/controllers/vistas.py", line 8, in escalas\n    if int(request.vars.gremio):\nTypeError: int() argument must be a string or a number, not \'list\'\n'
p5165
s.