(dp1
S'output'
p2
S"<type 'exceptions.IndexError'> list index out of range"
p3
sS'layer'
p4
S'/home/marco/projects/contabilidad/web2py/applications/sueldos/controllers/altas.py'
p5
sS'code'
p6
S"#-*- coding: utf-8 -*-\n\ndef empleadores():\n    form = SQLFORM(db.empleadores)\n\n    return dict(form=form)\n\n\ndef empleados():\n    \n    form = SQLFORM(db.empleados)\n\n    if form.process().accepted:\n        response.flash='El empleado a sido agregado'\n    elif form.errors:\n        response.flash='El formulario tiene errores'\n    else:\n        response.flash='Por favor complete los datos del empleado'\n\n    return dict(form=form)\n\nresponse._vars=response._caller(empleados)\n"
p7
sS'snapshot'
p8
(dp9
S'exception'
p10
(dp11
S'__hash__'
p12
S"<method-wrapper '__hash__' of exceptions.IndexError object>"
p13
sS'__setattr__'
p14
S"<method-wrapper '__setattr__' of exceptions.IndexError object>"
p15
sS'__reduce_ex__'
p16
S'<built-in method __reduce_ex__ of exceptions.IndexError object>'
p17
sS'__getslice__'
p18
S"<method-wrapper '__getslice__' of exceptions.IndexError object>"
p19
sS'__getitem__'
p20
S"<method-wrapper '__getitem__' of exceptions.IndexError object>"
p21
sS'__setstate__'
p22
S'<built-in method __setstate__ of exceptions.IndexError object>'
p23
sS'args'
p24
S"('list index out of range',)"
p25
sS'__reduce__'
p26
S'<built-in method __reduce__ of exceptions.IndexError object>'
p27
sS'__str__'
p28
S"<method-wrapper '__str__' of exceptions.IndexError object>"
p29
sS'__format__'
p30
S'<built-in method __format__ of exceptions.IndexError object>'
p31
sS'__getattribute__'
p32
S"<method-wrapper '__getattribute__' of exceptions.IndexError object>"
p33
sS'__class__'
p34
S"<type 'exceptions.IndexError'>"
p35
sS'__unicode__'
p36
S'<built-in method __unicode__ of exceptions.IndexError object>'
p37
sS'__delattr__'
p38
S"<method-wrapper '__delattr__' of exceptions.IndexError object>"
p39
sS'__subclasshook__'
p40
S'<built-in method __subclasshook__ of type object>'
p41
sS'__repr__'
p42
S"<method-wrapper '__repr__' of exceptions.IndexError object>"
p43
sS'__dict__'
p44
S'{}'
p45
sS'__sizeof__'
p46
S'<built-in method __sizeof__ of exceptions.IndexError object>'
p47
sS'__doc__'
p48
S"'Sequence index out of range.'"
p49
sS'__init__'
p50
S"<method-wrapper '__init__' of exceptions.IndexError object>"
p51
sS'__new__'
p52
S'<built-in method __new__ of type object>'
p53
ssS'evalue'
p54
S'list index out of range'
p55
sS'request'
p56
ccopy_reg
_reconstructor
p57
(cgluon.html
BEAUTIFY
p58
c__builtin__
object
p59
NtRp60
(dp61
S'attributes'
p62
(dp63
sS'components'
p64
(lp65
g57
(cgluon.html
TABLE
p66
g59
NtRp67
(dp68
g62
(dp69
S'level'
p70
I5
ssS'parent'
p71
Nsg64
(lp72
g57
(cgluon.html
TR
p73
g59
NtRp74
(dp75
g62
(dp76
sg71
g67
sg64
(lp77
g57
(cgluon.html
TD
p78
g59
NtRp79
(dp80
g62
(dp81
S'_style'
p82
S'font-weight:bold;vertical-align:top'
p83
ssg71
g74
sg64
(lp84
S'ajax'
p85
asbag57
(g78
g59
NtRp86
(dp87
g62
(dp88
S'_valign'
p89
S'top'
p90
ssg71
g74
sg64
(lp91
S':'
asbag57
(g78
g59
NtRp92
(dp93
g62
(dp94
sg71
g74
sg64
(lp95
g57
(g58
g59
NtRp96
(dp97
g62
(dp98
g70
I5
ssg71
g92
sg64
(lp99
S'False'
p100
asbasbasbag57
(g73
g59
NtRp101
(dp102
g62
(dp103
sg71
g67
sg64
(lp104
g57
(g78
g59
NtRp105
(dp106
g62
(dp107
g82
g83
ssg71
g101
sg64
(lp108
S'application'
p109
asbag57
(g78
g59
NtRp110
(dp111
g62
(dp112
g89
g90
ssg71
g101
sg64
(lp113
S':'
asbag57
(g78
g59
NtRp114
(dp115
g62
(dp116
sg71
g101
sg64
(lp117
g57
(g58
g59
NtRp118
(dp119
g62
(dp120
g70
I5
ssg71
g114
sg64
(lp121
S'sueldos'
p122
asbasbasbag57
(g73
g59
NtRp123
(dp124
g62
(dp125
sg71
g67
sg64
(lp126
g57
(g78
g59
NtRp127
(dp128
g62
(dp129
g82
g83
ssg71
g123
sg64
(lp130
g24
asbag57
(g78
g59
NtRp131
(dp132
g62
(dp133
g89
g90
ssg71
g123
sg64
(lp134
S':'
asbag57
(g78
g59
NtRp135
(dp136
g62
(dp137
sg71
g123
sg64
(lp138
g57
(g58
g59
NtRp139
(dp140
g62
(dp141
g70
I5
ssg71
g135
sg64
(lp142
g57
(g66
g59
NtRp143
(dp144
g62
(dp145
g70
I4
ssg71
Nsg64
(lp146
sbasbasbasbag57
(g73
g59
NtRp147
(dp148
g62
(dp149
sg71
g67
sg64
(lp150
g57
(g78
g59
NtRp151
(dp152
g62
(dp153
g82
g83
ssg71
g147
sg64
(lp154
S'body'
p155
asbag57
(g78
g59
NtRp156
(dp157
g62
(dp158
g89
g90
ssg71
g147
sg64
(lp159
S':'
asbag57
(g78
g59
NtRp160
(dp161
g62
(dp162
sg71
g147
sg64
(lp163
g57
(g58
g59
NtRp164
(dp165
g62
(dp166
g70
I5
ssg71
g160
sg64
(lp167
S"<open file '<fdopen>', mode 'w+b' at 0x3a0cae0>"
p168
asbasbasbag57
(g73
g59
NtRp169
(dp170
g62
(dp171
sg71
g67
sg64
(lp172
g57
(g78
g59
NtRp173
(dp174
g62
(dp175
g82
g83
ssg71
g169
sg64
(lp176
S'cid'
p177
asbag57
(g78
g59
NtRp178
(dp179
g62
(dp180
g89
g90
ssg71
g169
sg64
(lp181
S':'
asbag57
(g78
g59
NtRp182
(dp183
g62
(dp184
sg71
g169
sg64
(lp185
g57
(g58
g59
NtRp186
(dp187
g62
(dp188
g70
I5
ssg71
g182
sg64
(lp189
S'None'
p190
asbasbasbag57
(g73
g59
NtRp191
(dp192
g62
(dp193
sg71
g67
sg64
(lp194
g57
(g78
g59
NtRp195
(dp196
g62
(dp197
g82
g83
ssg71
g191
sg64
(lp198
S'client'
p199
asbag57
(g78
g59
NtRp200
(dp201
g62
(dp202
g89
g90
ssg71
g191
sg64
(lp203
S':'
asbag57
(g78
g59
NtRp204
(dp205
g62
(dp206
sg71
g191
sg64
(lp207
g57
(g58
g59
NtRp208
(dp209
g62
(dp210
g70
I5
ssg71
g204
sg64
(lp211
S'127.0.0.1'
p212
asbasbasbag57
(g73
g59
NtRp213
(dp214
g62
(dp215
sg71
g67
sg64
(lp216
g57
(g78
g59
NtRp217
(dp218
g62
(dp219
g82
g83
ssg71
g213
sg64
(lp220
S'controller'
p221
asbag57
(g78
g59
NtRp222
(dp223
g62
(dp224
g89
g90
ssg71
g213
sg64
(lp225
S':'
asbag57
(g78
g59
NtRp226
(dp227
g62
(dp228
sg71
g213
sg64
(lp229
g57
(g58
g59
NtRp230
(dp231
g62
(dp232
g70
I5
ssg71
g226
sg64
(lp233
S'altas'
p234
asbasbasbag57
(g73
g59
NtRp235
(dp236
g62
(dp237
sg71
g67
sg64
(lp238
g57
(g78
g59
NtRp239
(dp240
g62
(dp241
g82
g83
ssg71
g235
sg64
(lp242
S'cookies'
p243
asbag57
(g78
g59
NtRp244
(dp245
g62
(dp246
g89
g90
ssg71
g235
sg64
(lp247
S':'
asbag57
(g78
g59
NtRp248
(dp249
g62
(dp250
sg71
g235
sg64
(lp251
g57
(g58
g59
NtRp252
(dp253
g62
(dp254
g70
I5
ssg71
g248
sg64
(lp255
g57
(g66
g59
NtRp256
(dp257
g62
(dp258
g70
I4
ssg71
Nsg64
(lp259
g57
(g73
g59
NtRp260
(dp261
g62
(dp262
sg71
g256
sg64
(lp263
g57
(g78
g59
NtRp264
(dp265
g62
(dp266
g82
g83
ssg71
g260
sg64
(lp267
S'session_id_admin'
p268
asbag57
(g78
g59
NtRp269
(dp270
g62
(dp271
g89
g90
ssg71
g260
sg64
(lp272
S':'
asbag57
(g78
g59
NtRp273
(dp274
g62
(dp275
sg71
g260
sg64
(lp276
g57
(g58
g59
NtRp277
(dp278
g62
(dp279
g70
I4
ssg71
g273
sg64
(lp280
S'127.0.0.1-eb741a17-21d1-4fe5-86a8-1a1ff5faee59'
p281
ag57
(g66
g59
NtRp282
(dp283
g62
(dp284
g70
I3
ssg71
Nsg64
(lp285
g57
(g73
g59
NtRp286
(dp287
g62
(dp288
sg71
g282
sg64
(lp289
g57
(g78
g59
NtRp290
(dp291
g62
(dp292
g82
g83
ssg71
g286
sg64
(lp293
S'comment'
p294
asbag57
(g78
g59
NtRp295
(dp296
g62
(dp297
g89
g90
ssg71
g286
sg64
(lp298
S':'
asbag57
(g78
g59
NtRp299
(dp300
g62
(dp301
sg71
g286
sg64
(lp302
g57
(g58
g59
NtRp303
(dp304
g62
(dp305
g70
I3
ssg71
g299
sg64
(lp306
S''
asbasbasbag57
(g73
g59
NtRp307
(dp308
g62
(dp309
sg71
g282
sg64
(lp310
g57
(g78
g59
NtRp311
(dp312
g62
(dp313
g82
g83
ssg71
g307
sg64
(lp314
S'domain'
p315
asbag57
(g78
g59
NtRp316
(dp317
g62
(dp318
g89
g90
ssg71
g307
sg64
(lp319
S':'
asbag57
(g78
g59
NtRp320
(dp321
g62
(dp322
sg71
g307
sg64
(lp323
g57
(g58
g59
NtRp324
(dp325
g62
(dp326
g70
I3
ssg71
g320
sg64
(lp327
S''
asbasbasbag57
(g73
g59
NtRp328
(dp329
g62
(dp330
sg71
g282
sg64
(lp331
g57
(g78
g59
NtRp332
(dp333
g62
(dp334
g82
g83
ssg71
g328
sg64
(lp335
S'expires'
p336
asbag57
(g78
g59
NtRp337
(dp338
g62
(dp339
g89
g90
ssg71
g328
sg64
(lp340
S':'
asbag57
(g78
g59
NtRp341
(dp342
g62
(dp343
sg71
g328
sg64
(lp344
g57
(g58
g59
NtRp345
(dp346
g62
(dp347
g70
I3
ssg71
g341
sg64
(lp348
S''
asbasbasbag57
(g73
g59
NtRp349
(dp350
g62
(dp351
sg71
g282
sg64
(lp352
g57
(g78
g59
NtRp353
(dp354
g62
(dp355
g82
g83
ssg71
g349
sg64
(lp356
S'httponly'
p357
asbag57
(g78
g59
NtRp358
(dp359
g62
(dp360
g89
g90
ssg71
g349
sg64
(lp361
S':'
asbag57
(g78
g59
NtRp362
(dp363
g62
(dp364
sg71
g349
sg64
(lp365
g57
(g58
g59
NtRp366
(dp367
g62
(dp368
g70
I3
ssg71
g362
sg64
(lp369
S''
asbasbasbag57
(g73
g59
NtRp370
(dp371
g62
(dp372
sg71
g282
sg64
(lp373
g57
(g78
g59
NtRp374
(dp375
g62
(dp376
g82
g83
ssg71
g370
sg64
(lp377
S'max-age'
p378
asbag57
(g78
g59
NtRp379
(dp380
g62
(dp381
g89
g90
ssg71
g370
sg64
(lp382
S':'
asbag57
(g78
g59
NtRp383
(dp384
g62
(dp385
sg71
g370
sg64
(lp386
g57
(g58
g59
NtRp387
(dp388
g62
(dp389
g70
I3
ssg71
g383
sg64
(lp390
S''
asbasbasbag57
(g73
g59
NtRp391
(dp392
g62
(dp393
sg71
g282
sg64
(lp394
g57
(g78
g59
NtRp395
(dp396
g62
(dp397
g82
g83
ssg71
g391
sg64
(lp398
S'path'
p399
asbag57
(g78
g59
NtRp400
(dp401
g62
(dp402
g89
g90
ssg71
g391
sg64
(lp403
S':'
asbag57
(g78
g59
NtRp404
(dp405
g62
(dp406
sg71
g391
sg64
(lp407
g57
(g58
g59
NtRp408
(dp409
g62
(dp410
g70
I3
ssg71
g404
sg64
(lp411
S''
asbasbasbag57
(g73
g59
NtRp412
(dp413
g62
(dp414
sg71
g282
sg64
(lp415
g57
(g78
g59
NtRp416
(dp417
g62
(dp418
g82
g83
ssg71
g412
sg64
(lp419
S'secure'
p420
asbag57
(g78
g59
NtRp421
(dp422
g62
(dp423
g89
g90
ssg71
g412
sg64
(lp424
S':'
asbag57
(g78
g59
NtRp425
(dp426
g62
(dp427
sg71
g412
sg64
(lp428
g57
(g58
g59
NtRp429
(dp430
g62
(dp431
g70
I3
ssg71
g425
sg64
(lp432
S''
asbasbasbag57
(g73
g59
NtRp433
(dp434
g62
(dp435
sg71
g282
sg64
(lp436
g57
(g78
g59
NtRp437
(dp438
g62
(dp439
g82
g83
ssg71
g433
sg64
(lp440
S'version'
p441
asbag57
(g78
g59
NtRp442
(dp443
g62
(dp444
g89
g90
ssg71
g433
sg64
(lp445
S':'
asbag57
(g78
g59
NtRp446
(dp447
g62
(dp448
sg71
g433
sg64
(lp449
g57
(g58
g59
NtRp450
(dp451
g62
(dp452
g70
I3
ssg71
g446
sg64
(lp453
S''
asbasbasbasbasbasbasbag57
(g73
g59
NtRp454
(dp455
g62
(dp456
sg71
g256
sg64
(lp457
g57
(g78
g59
NtRp458
(dp459
g62
(dp460
g82
g83
ssg71
g454
sg64
(lp461
S'session_id_sueldos'
p462
asbag57
(g78
g59
NtRp463
(dp464
g62
(dp465
g89
g90
ssg71
g454
sg64
(lp466
S':'
asbag57
(g78
g59
NtRp467
(dp468
g62
(dp469
sg71
g454
sg64
(lp470
g57
(g58
g59
NtRp471
(dp472
g62
(dp473
g70
I4
ssg71
g467
sg64
(lp474
S'127.0.0.1-09a8fa4f-31e4-4480-b892-b6370616c8e4'
p475
ag57
(g66
g59
NtRp476
(dp477
g62
(dp478
g70
I3
ssg71
Nsg64
(lp479
g57
(g73
g59
NtRp480
(dp481
g62
(dp482
sg71
g476
sg64
(lp483
g57
(g78
g59
NtRp484
(dp485
g62
(dp486
g82
g83
ssg71
g480
sg64
(lp487
g294
asbag57
(g78
g59
NtRp488
(dp489
g62
(dp490
g89
g90
ssg71
g480
sg64
(lp491
S':'
asbag57
(g78
g59
NtRp492
(dp493
g62
(dp494
sg71
g480
sg64
(lp495
g57
(g58
g59
NtRp496
(dp497
g62
(dp498
g70
I3
ssg71
g492
sg64
(lp499
S''
asbasbasbag57
(g73
g59
NtRp500
(dp501
g62
(dp502
sg71
g476
sg64
(lp503
g57
(g78
g59
NtRp504
(dp505
g62
(dp506
g82
g83
ssg71
g500
sg64
(lp507
g315
asbag57
(g78
g59
NtRp508
(dp509
g62
(dp510
g89
g90
ssg71
g500
sg64
(lp511
S':'
asbag57
(g78
g59
NtRp512
(dp513
g62
(dp514
sg71
g500
sg64
(lp515
g57
(g58
g59
NtRp516
(dp517
g62
(dp518
g70
I3
ssg71
g512
sg64
(lp519
S''
asbasbasbag57
(g73
g59
NtRp520
(dp521
g62
(dp522
sg71
g476
sg64
(lp523
g57
(g78
g59
NtRp524
(dp525
g62
(dp526
g82
g83
ssg71
g520
sg64
(lp527
g336
asbag57
(g78
g59
NtRp528
(dp529
g62
(dp530
g89
g90
ssg71
g520
sg64
(lp531
S':'
asbag57
(g78
g59
NtRp532
(dp533
g62
(dp534
sg71
g520
sg64
(lp535
g57
(g58
g59
NtRp536
(dp537
g62
(dp538
g70
I3
ssg71
g532
sg64
(lp539
S''
asbasbasbag57
(g73
g59
NtRp540
(dp541
g62
(dp542
sg71
g476
sg64
(lp543
g57
(g78
g59
NtRp544
(dp545
g62
(dp546
g82
g83
ssg71
g540
sg64
(lp547
g357
asbag57
(g78
g59
NtRp548
(dp549
g62
(dp550
g89
g90
ssg71
g540
sg64
(lp551
S':'
asbag57
(g78
g59
NtRp552
(dp553
g62
(dp554
sg71
g540
sg64
(lp555
g57
(g58
g59
NtRp556
(dp557
g62
(dp558
g70
I3
ssg71
g552
sg64
(lp559
S''
asbasbasbag57
(g73
g59
NtRp560
(dp561
g62
(dp562
sg71
g476
sg64
(lp563
g57
(g78
g59
NtRp564
(dp565
g62
(dp566
g82
g83
ssg71
g560
sg64
(lp567
g378
asbag57
(g78
g59
NtRp568
(dp569
g62
(dp570
g89
g90
ssg71
g560
sg64
(lp571
S':'
asbag57
(g78
g59
NtRp572
(dp573
g62
(dp574
sg71
g560
sg64
(lp575
g57
(g58
g59
NtRp576
(dp577
g62
(dp578
g70
I3
ssg71
g572
sg64
(lp579
S''
asbasbasbag57
(g73
g59
NtRp580
(dp581
g62
(dp582
sg71
g476
sg64
(lp583
g57
(g78
g59
NtRp584
(dp585
g62
(dp586
g82
g83
ssg71
g580
sg64
(lp587
g399
asbag57
(g78
g59
NtRp588
(dp589
g62
(dp590
g89
g90
ssg71
g580
sg64
(lp591
S':'
asbag57
(g78
g59
NtRp592
(dp593
g62
(dp594
sg71
g580
sg64
(lp595
g57
(g58
g59
NtRp596
(dp597
g62
(dp598
g70
I3
ssg71
g592
sg64
(lp599
S''
asbasbasbag57
(g73
g59
NtRp600
(dp601
g62
(dp602
sg71
g476
sg64
(lp603
g57
(g78
g59
NtRp604
(dp605
g62
(dp606
g82
g83
ssg71
g600
sg64
(lp607
g420
asbag57
(g78
g59
NtRp608
(dp609
g62
(dp610
g89
g90
ssg71
g600
sg64
(lp611
S':'
asbag57
(g78
g59
NtRp612
(dp613
g62
(dp614
sg71
g600
sg64
(lp615
g57
(g58
g59
NtRp616
(dp617
g62
(dp618
g70
I3
ssg71
g612
sg64
(lp619
S''
asbasbasbag57
(g73
g59
NtRp620
(dp621
g62
(dp622
sg71
g476
sg64
(lp623
g57
(g78
g59
NtRp624
(dp625
g62
(dp626
g82
g83
ssg71
g620
sg64
(lp627
g441
asbag57
(g78
g59
NtRp628
(dp629
g62
(dp630
g89
g90
ssg71
g620
sg64
(lp631
S':'
asbag57
(g78
g59
NtRp632
(dp633
g62
(dp634
sg71
g620
sg64
(lp635
g57
(g58
g59
NtRp636
(dp637
g62
(dp638
g70
I3
ssg71
g632
sg64
(lp639
S''
asbasbasbasbasbasbasbasbasbasbasbag57
(g73
g59
NtRp640
(dp641
g62
(dp642
sg71
g67
sg64
(lp643
g57
(g78
g59
NtRp644
(dp645
g62
(dp646
g82
g83
ssg71
g640
sg64
(lp647
S'env'
p648
asbag57
(g78
g59
NtRp649
(dp650
g62
(dp651
g89
g90
ssg71
g640
sg64
(lp652
S':'
asbag57
(g78
g59
NtRp653
(dp654
g62
(dp655
sg71
g640
sg64
(lp656
g57
(g58
g59
NtRp657
(dp658
g62
(dp659
g70
I5
ssg71
g653
sg64
(lp660
g57
(g66
g59
NtRp661
(dp662
g62
(dp663
g70
I4
ssg71
Nsg64
(lp664
g57
(g73
g59
NtRp665
(dp666
g62
(dp667
sg71
g661
sg64
(lp668
g57
(g78
g59
NtRp669
(dp670
g62
(dp671
g82
g83
ssg71
g665
sg64
(lp672
S'app_folders'
p673
asbag57
(g78
g59
NtRp674
(dp675
g62
(dp676
g89
g90
ssg71
g665
sg64
(lp677
S':'
asbag57
(g78
g59
NtRp678
(dp679
g62
(dp680
sg71
g665
sg64
(lp681
g57
(g58
g59
NtRp682
(dp683
g62
(dp684
g70
I4
ssg71
g678
sg64
(lp685
S"set(['/home/marco/projects/contabilidad/web2py/applications/admin/', '/home/marco/projects/contabilidad/web2py/applications/sueldos/'])"
p686
asbasbasbag57
(g73
g59
NtRp687
(dp688
g62
(dp689
sg71
g661
sg64
(lp690
g57
(g78
g59
NtRp691
(dp692
g62
(dp693
g82
g83
ssg71
g687
sg64
(lp694
S'applications_parent'
p695
asbag57
(g78
g59
NtRp696
(dp697
g62
(dp698
g89
g90
ssg71
g687
sg64
(lp699
S':'
asbag57
(g78
g59
NtRp700
(dp701
g62
(dp702
sg71
g687
sg64
(lp703
g57
(g58
g59
NtRp704
(dp705
g62
(dp706
g70
I4
ssg71
g700
sg64
(lp707
S'/home/marco/projects/contabilidad/web2py'
p708
asbasbasbag57
(g73
g59
NtRp709
(dp710
g62
(dp711
sg71
g661
sg64
(lp712
g57
(g78
g59
NtRp713
(dp714
g62
(dp715
g82
g83
ssg71
g709
sg64
(lp716
S'cmd_args'
p717
asbag57
(g78
g59
NtRp718
(dp719
g62
(dp720
g89
g90
ssg71
g709
sg64
(lp721
S':'
asbag57
(g78
g59
NtRp722
(dp723
g62
(dp724
sg71
g709
sg64
(lp725
g57
(g58
g59
NtRp726
(dp727
g62
(dp728
g70
I4
ssg71
g722
sg64
(lp729
g57
(g66
g59
NtRp730
(dp731
g62
(dp732
g70
I3
ssg71
Nsg64
(lp733
sbasbasbasbag57
(g73
g59
NtRp734
(dp735
g62
(dp736
sg71
g661
sg64
(lp737
g57
(g78
g59
NtRp738
(dp739
g62
(dp740
g82
g83
ssg71
g734
sg64
(lp741
S'cmd_options'
p742
asbag57
(g78
g59
NtRp743
(dp744
g62
(dp745
g89
g90
ssg71
g734
sg64
(lp746
S':'
asbag57
(g78
g59
NtRp747
(dp748
g62
(dp749
sg71
g734
sg64
(lp750
g57
(g58
g59
NtRp751
(dp752
g62
(dp753
g70
I4
ssg71
g747
sg64
(lp754
S"<Values at 0x3062320: {'verbose': False, 'ip': '127.0.0.1', 'with_scheduler': False, 'ips': [], 'shutdown_timeout': 5, 'taskbar': False, 'port': 8000, 'maxthreads': None, 'softcron': False, 'server_name': 'malena', 'bpython': False, 'nogui': False, 'pid_filename': 'httpserver.pid', 'extcron': False, 'runcron': False, 'run_system_tests': False, 'test': None, 'folder': '/home/marco/projects/contabilidad/web2py', 'config': '', 'minthreads': None, 'winservice': '', 'shell': None, 'run': '', 'log_filename': 'httpserver.log', 'debuglevel': 30, 'args': [''], 'socket_timeout': 5, 'ssl_ca_certificate': None, 'scheduler': None, 'profiler_filename': None, 'ssl_private_key': '', 'scheduler_groups': None, 'password': 'asd', 'request_queue_size': 5, 'ssl_certificate': '', 'cronjob': False, 'numthreads': None, 'quiet': False, 'interfaces': None, 'import_models': False, 'timeout': 10, 'plain': False, 'nobanner': False}>"
p755
asbasbasbag57
(g73
g59
NtRp756
(dp757
g62
(dp758
sg71
g661
sg64
(lp759
g57
(g78
g59
NtRp760
(dp761
g62
(dp762
g82
g83
ssg71
g756
sg64
(lp763
S'content_length'
p764
asbag57
(g78
g59
NtRp765
(dp766
g62
(dp767
g89
g90
ssg71
g756
sg64
(lp768
S':'
asbag57
(g78
g59
NtRp769
(dp770
g62
(dp771
sg71
g756
sg64
(lp772
g57
(g58
g59
NtRp773
(dp774
g62
(dp775
g70
I4
ssg71
g769
sg64
(lp776
S'1565'
p777
asbasbasbag57
(g73
g59
NtRp778
(dp779
g62
(dp780
sg71
g661
sg64
(lp781
g57
(g78
g59
NtRp782
(dp783
g62
(dp784
g82
g83
ssg71
g778
sg64
(lp785
S'content_type'
p786
asbag57
(g78
g59
NtRp787
(dp788
g62
(dp789
g89
g90
ssg71
g778
sg64
(lp790
S':'
asbag57
(g78
g59
NtRp791
(dp792
g62
(dp793
sg71
g778
sg64
(lp794
g57
(g58
g59
NtRp795
(dp796
g62
(dp797
g70
I4
ssg71
g791
sg64
(lp798
S'multipart/form-data; boundary=---------------------------1726225301871307563168627561'
p799
asbasbasbag57
(g73
g59
NtRp800
(dp801
g62
(dp802
sg71
g661
sg64
(lp803
g57
(g78
g59
NtRp804
(dp805
g62
(dp806
g82
g83
ssg71
g800
sg64
(lp807
S'db_sessions'
p808
asbag57
(g78
g59
NtRp809
(dp810
g62
(dp811
g89
g90
ssg71
g800
sg64
(lp812
S':'
asbag57
(g78
g59
NtRp813
(dp814
g62
(dp815
sg71
g800
sg64
(lp816
g57
(g58
g59
NtRp817
(dp818
g62
(dp819
g70
I4
ssg71
g813
sg64
(lp820
S'set([])'
p821
asbasbasbag57
(g73
g59
NtRp822
(dp823
g62
(dp824
sg71
g661
sg64
(lp825
g57
(g78
g59
NtRp826
(dp827
g62
(dp828
g82
g83
ssg71
g822
sg64
(lp829
S'debugging'
p830
asbag57
(g78
g59
NtRp831
(dp832
g62
(dp833
g89
g90
ssg71
g822
sg64
(lp834
S':'
asbag57
(g78
g59
NtRp835
(dp836
g62
(dp837
sg71
g822
sg64
(lp838
g57
(g58
g59
NtRp839
(dp840
g62
(dp841
g70
I4
ssg71
g835
sg64
(lp842
g100
asbasbasbag57
(g73
g59
NtRp843
(dp844
g62
(dp845
sg71
g661
sg64
(lp846
g57
(g78
g59
NtRp847
(dp848
g62
(dp849
g82
g83
ssg71
g843
sg64
(lp850
S'gluon_parent'
p851
asbag57
(g78
g59
NtRp852
(dp853
g62
(dp854
g89
g90
ssg71
g843
sg64
(lp855
S':'
asbag57
(g78
g59
NtRp856
(dp857
g62
(dp858
sg71
g843
sg64
(lp859
g57
(g58
g59
NtRp860
(dp861
g62
(dp862
g70
I4
ssg71
g856
sg64
(lp863
S'/home/marco/projects/contabilidad/web2py'
p864
asbasbasbag57
(g73
g59
NtRp865
(dp866
g62
(dp867
sg71
g661
sg64
(lp868
g57
(g78
g59
NtRp869
(dp870
g62
(dp871
g82
g83
ssg71
g865
sg64
(lp872
S'http_accept'
p873
asbag57
(g78
g59
NtRp874
(dp875
g62
(dp876
g89
g90
ssg71
g865
sg64
(lp877
S':'
asbag57
(g78
g59
NtRp878
(dp879
g62
(dp880
sg71
g865
sg64
(lp881
g57
(g58
g59
NtRp882
(dp883
g62
(dp884
g70
I4
ssg71
g878
sg64
(lp885
S'text/html,application/xhtml+xml,application/xml;q=0.9,*/*;q=0.8'
p886
asbasbasbag57
(g73
g59
NtRp887
(dp888
g62
(dp889
sg71
g661
sg64
(lp890
g57
(g78
g59
NtRp891
(dp892
g62
(dp893
g82
g83
ssg71
g887
sg64
(lp894
S'http_accept_encoding'
p895
asbag57
(g78
g59
NtRp896
(dp897
g62
(dp898
g89
g90
ssg71
g887
sg64
(lp899
S':'
asbag57
(g78
g59
NtRp900
(dp901
g62
(dp902
sg71
g887
sg64
(lp903
g57
(g58
g59
NtRp904
(dp905
g62
(dp906
g70
I4
ssg71
g900
sg64
(lp907
S'gzip, deflate'
p908
asbasbasbag57
(g73
g59
NtRp909
(dp910
g62
(dp911
sg71
g661
sg64
(lp912
g57
(g78
g59
NtRp913
(dp914
g62
(dp915
g82
g83
ssg71
g909
sg64
(lp916
S'http_accept_language'
p917
asbag57
(g78
g59
NtRp918
(dp919
g62
(dp920
g89
g90
ssg71
g909
sg64
(lp921
S':'
asbag57
(g78
g59
NtRp922
(dp923
g62
(dp924
sg71
g909
sg64
(lp925
g57
(g58
g59
NtRp926
(dp927
g62
(dp928
g70
I4
ssg71
g922
sg64
(lp929
S'en-US,en;q=0.5'
p930
asbasbasbag57
(g73
g59
NtRp931
(dp932
g62
(dp933
sg71
g661
sg64
(lp934
g57
(g78
g59
NtRp935
(dp936
g62
(dp937
g82
g83
ssg71
g931
sg64
(lp938
S'http_connection'
p939
asbag57
(g78
g59
NtRp940
(dp941
g62
(dp942
g89
g90
ssg71
g931
sg64
(lp943
S':'
asbag57
(g78
g59
NtRp944
(dp945
g62
(dp946
sg71
g931
sg64
(lp947
g57
(g58
g59
NtRp948
(dp949
g62
(dp950
g70
I4
ssg71
g944
sg64
(lp951
S'keep-alive'
p952
asbasbasbag57
(g73
g59
NtRp953
(dp954
g62
(dp955
sg71
g661
sg64
(lp956
g57
(g78
g59
NtRp957
(dp958
g62
(dp959
g82
g83
ssg71
g953
sg64
(lp960
S'http_content_length'
p961
asbag57
(g78
g59
NtRp962
(dp963
g62
(dp964
g89
g90
ssg71
g953
sg64
(lp965
S':'
asbag57
(g78
g59
NtRp966
(dp967
g62
(dp968
sg71
g953
sg64
(lp969
g57
(g58
g59
NtRp970
(dp971
g62
(dp972
g70
I4
ssg71
g966
sg64
(lp973
g777
asbasbasbag57
(g73
g59
NtRp974
(dp975
g62
(dp976
sg71
g661
sg64
(lp977
g57
(g78
g59
NtRp978
(dp979
g62
(dp980
g82
g83
ssg71
g974
sg64
(lp981
S'http_content_type'
p982
asbag57
(g78
g59
NtRp983
(dp984
g62
(dp985
g89
g90
ssg71
g974
sg64
(lp986
S':'
asbag57
(g78
g59
NtRp987
(dp988
g62
(dp989
sg71
g974
sg64
(lp990
g57
(g58
g59
NtRp991
(dp992
g62
(dp993
g70
I4
ssg71
g987
sg64
(lp994
g799
asbasbasbag57
(g73
g59
NtRp995
(dp996
g62
(dp997
sg71
g661
sg64
(lp998
g57
(g78
g59
NtRp999
(dp1000
g62
(dp1001
g82
g83
ssg71
g995
sg64
(lp1002
S'http_cookie'
p1003
asbag57
(g78
g59
NtRp1004
(dp1005
g62
(dp1006
g89
g90
ssg71
g995
sg64
(lp1007
S':'
asbag57
(g78
g59
NtRp1008
(dp1009
g62
(dp1010
sg71
g995
sg64
(lp1011
g57
(g58
g59
NtRp1012
(dp1013
g62
(dp1014
g70
I4
ssg71
g1008
sg64
(lp1015
S'session_id_sueldos=127.0.0.1-09a8fa4f-31e4-4480-b892-b6370616c8e4; session_id_admin=127.0.0.1-eb741a17-21d1-4fe5-86a8-1a1ff5faee59'
p1016
asbasbasbag57
(g73
g59
NtRp1017
(dp1018
g62
(dp1019
sg71
g661
sg64
(lp1020
g57
(g78
g59
NtRp1021
(dp1022
g62
(dp1023
g82
g83
ssg71
g1017
sg64
(lp1024
S'http_host'
p1025
asbag57
(g78
g59
NtRp1026
(dp1027
g62
(dp1028
g89
g90
ssg71
g1017
sg64
(lp1029
S':'
asbag57
(g78
g59
NtRp1030
(dp1031
g62
(dp1032
sg71
g1017
sg64
(lp1033
g57
(g58
g59
NtRp1034
(dp1035
g62
(dp1036
g70
I4
ssg71
g1030
sg64
(lp1037
S'127.0.0.1:8000'
p1038
asbasbasbag57
(g73
g59
NtRp1039
(dp1040
g62
(dp1041
sg71
g661
sg64
(lp1042
g57
(g78
g59
NtRp1043
(dp1044
g62
(dp1045
g82
g83
ssg71
g1039
sg64
(lp1046
S'http_referer'
p1047
asbag57
(g78
g59
NtRp1048
(dp1049
g62
(dp1050
g89
g90
ssg71
g1039
sg64
(lp1051
S':'
asbag57
(g78
g59
NtRp1052
(dp1053
g62
(dp1054
sg71
g1039
sg64
(lp1055
g57
(g58
g59
NtRp1056
(dp1057
g62
(dp1058
g70
I4
ssg71
g1052
sg64
(lp1059
S'http://127.0.0.1:8000/sueldos/altas/empleados'
p1060
asbasbasbag57
(g73
g59
NtRp1061
(dp1062
g62
(dp1063
sg71
g661
sg64
(lp1064
g57
(g78
g59
NtRp1065
(dp1066
g62
(dp1067
g82
g83
ssg71
g1061
sg64
(lp1068
S'http_user_agent'
p1069
asbag57
(g78
g59
NtRp1070
(dp1071
g62
(dp1072
g89
g90
ssg71
g1061
sg64
(lp1073
S':'
asbag57
(g78
g59
NtRp1074
(dp1075
g62
(dp1076
sg71
g1061
sg64
(lp1077
g57
(g58
g59
NtRp1078
(dp1079
g62
(dp1080
g70
I4
ssg71
g1074
sg64
(lp1081
S'Mozilla/5.0 (X11; Linux x86_64; rv:17.0) Gecko/20100101 Firefox/17.0 Iceweasel/17.0.1'
p1082
asbasbasbag57
(g73
g59
NtRp1083
(dp1084
g62
(dp1085
sg71
g661
sg64
(lp1086
g57
(g78
g59
NtRp1087
(dp1088
g62
(dp1089
g82
g83
ssg71
g1083
sg64
(lp1090
S'is_jython'
p1091
asbag57
(g78
g59
NtRp1092
(dp1093
g62
(dp1094
g89
g90
ssg71
g1083
sg64
(lp1095
S':'
asbag57
(g78
g59
NtRp1096
(dp1097
g62
(dp1098
sg71
g1083
sg64
(lp1099
g57
(g58
g59
NtRp1100
(dp1101
g62
(dp1102
g70
I4
ssg71
g1096
sg64
(lp1103
g100
asbasbasbag57
(g73
g59
NtRp1104
(dp1105
g62
(dp1106
sg71
g661
sg64
(lp1107
g57
(g78
g59
NtRp1108
(dp1109
g62
(dp1110
g82
g83
ssg71
g1104
sg64
(lp1111
S'is_pypy'
p1112
asbag57
(g78
g59
NtRp1113
(dp1114
g62
(dp1115
g89
g90
ssg71
g1104
sg64
(lp1116
S':'
asbag57
(g78
g59
NtRp1117
(dp1118
g62
(dp1119
sg71
g1104
sg64
(lp1120
g57
(g58
g59
NtRp1121
(dp1122
g62
(dp1123
g70
I4
ssg71
g1117
sg64
(lp1124
g100
asbasbasbag57
(g73
g59
NtRp1125
(dp1126
g62
(dp1127
sg71
g661
sg64
(lp1128
g57
(g78
g59
NtRp1129
(dp1130
g62
(dp1131
g82
g83
ssg71
g1125
sg64
(lp1132
S'local_hosts'
p1133
asbag57
(g78
g59
NtRp1134
(dp1135
g62
(dp1136
g89
g90
ssg71
g1125
sg64
(lp1137
S':'
asbag57
(g78
g59
NtRp1138
(dp1139
g62
(dp1140
sg71
g1125
sg64
(lp1141
g57
(g58
g59
NtRp1142
(dp1143
g62
(dp1144
g70
I4
ssg71
g1138
sg64
(lp1145
g57
(g66
g59
NtRp1146
(dp1147
g62
(dp1148
g70
I3
ssg71
Nsg64
(lp1149
g57
(g73
g59
NtRp1150
(dp1151
g62
(dp1152
sg71
g1146
sg64
(lp1153
g57
(g78
g59
NtRp1154
(dp1155
g62
(dp1156
sg71
g1150
sg64
(lp1157
g57
(g58
g59
NtRp1158
(dp1159
g62
(dp1160
g70
I3
ssg71
g1154
sg64
(lp1161
S'malena'
p1162
asbasbasbag57
(g73
g59
NtRp1163
(dp1164
g62
(dp1165
sg71
g1146
sg64
(lp1166
g57
(g78
g59
NtRp1167
(dp1168
g62
(dp1169
sg71
g1163
sg64
(lp1170
g57
(g58
g59
NtRp1171
(dp1172
g62
(dp1173
g70
I3
ssg71
g1167
sg64
(lp1174
S'::1'
p1175
asbasbasbag57
(g73
g59
NtRp1176
(dp1177
g62
(dp1178
sg71
g1146
sg64
(lp1179
g57
(g78
g59
NtRp1180
(dp1181
g62
(dp1182
sg71
g1176
sg64
(lp1183
g57
(g58
g59
NtRp1184
(dp1185
g62
(dp1186
g70
I3
ssg71
g1180
sg64
(lp1187
S'127.0.1.1'
p1188
asbasbasbag57
(g73
g59
NtRp1189
(dp1190
g62
(dp1191
sg71
g1146
sg64
(lp1192
g57
(g78
g59
NtRp1193
(dp1194
g62
(dp1195
sg71
g1189
sg64
(lp1196
g57
(g58
g59
NtRp1197
(dp1198
g62
(dp1199
g70
I3
ssg71
g1193
sg64
(lp1200
S'::ffff:127.0.0.1'
p1201
asbasbasbag57
(g73
g59
NtRp1202
(dp1203
g62
(dp1204
sg71
g1146
sg64
(lp1205
g57
(g78
g59
NtRp1206
(dp1207
g62
(dp1208
sg71
g1202
sg64
(lp1209
g57
(g58
g59
NtRp1210
(dp1211
g62
(dp1212
g70
I3
ssg71
g1206
sg64
(lp1213
S'127.0.0.1'
p1214
asbasbasbasbasbasbasbag57
(g73
g59
NtRp1215
(dp1216
g62
(dp1217
sg71
g661
sg64
(lp1218
g57
(g78
g59
NtRp1219
(dp1220
g62
(dp1221
g82
g83
ssg71
g1215
sg64
(lp1222
S'path_info'
p1223
asbag57
(g78
g59
NtRp1224
(dp1225
g62
(dp1226
g89
g90
ssg71
g1215
sg64
(lp1227
S':'
asbag57
(g78
g59
NtRp1228
(dp1229
g62
(dp1230
sg71
g1215
sg64
(lp1231
g57
(g58
g59
NtRp1232
(dp1233
g62
(dp1234
g70
I4
ssg71
g1228
sg64
(lp1235
S'/sueldos/altas/empleados'
p1236
asbasbasbag57
(g73
g59
NtRp1237
(dp1238
g62
(dp1239
sg71
g661
sg64
(lp1240
g57
(g78
g59
NtRp1241
(dp1242
g62
(dp1243
g82
g83
ssg71
g1237
sg64
(lp1244
S'query_string'
p1245
asbag57
(g78
g59
NtRp1246
(dp1247
g62
(dp1248
g89
g90
ssg71
g1237
sg64
(lp1249
S':'
asbag57
(g78
g59
NtRp1250
(dp1251
g62
(dp1252
sg71
g1237
sg64
(lp1253
g57
(g58
g59
NtRp1254
(dp1255
g62
(dp1256
g70
I4
ssg71
g1250
sg64
(lp1257
S''
asbasbasbag57
(g73
g59
NtRp1258
(dp1259
g62
(dp1260
sg71
g661
sg64
(lp1261
g57
(g78
g59
NtRp1262
(dp1263
g62
(dp1264
g82
g83
ssg71
g1258
sg64
(lp1265
S'remote_addr'
p1266
asbag57
(g78
g59
NtRp1267
(dp1268
g62
(dp1269
g89
g90
ssg71
g1258
sg64
(lp1270
S':'
asbag57
(g78
g59
NtRp1271
(dp1272
g62
(dp1273
sg71
g1258
sg64
(lp1274
g57
(g58
g59
NtRp1275
(dp1276
g62
(dp1277
g70
I4
ssg71
g1271
sg64
(lp1278
g212
asbasbasbag57
(g73
g59
NtRp1279
(dp1280
g62
(dp1281
sg71
g661
sg64
(lp1282
g57
(g78
g59
NtRp1283
(dp1284
g62
(dp1285
g82
g83
ssg71
g1279
sg64
(lp1286
S'remote_port'
p1287
asbag57
(g78
g59
NtRp1288
(dp1289
g62
(dp1290
g89
g90
ssg71
g1279
sg64
(lp1291
S':'
asbag57
(g78
g59
NtRp1292
(dp1293
g62
(dp1294
sg71
g1279
sg64
(lp1295
g57
(g58
g59
NtRp1296
(dp1297
g62
(dp1298
g70
I4
ssg71
g1292
sg64
(lp1299
S'46629'
p1300
asbasbasbag57
(g73
g59
NtRp1301
(dp1302
g62
(dp1303
sg71
g661
sg64
(lp1304
g57
(g78
g59
NtRp1305
(dp1306
g62
(dp1307
g82
g83
ssg71
g1301
sg64
(lp1308
S'request_method'
p1309
asbag57
(g78
g59
NtRp1310
(dp1311
g62
(dp1312
g89
g90
ssg71
g1301
sg64
(lp1313
S':'
asbag57
(g78
g59
NtRp1314
(dp1315
g62
(dp1316
sg71
g1301
sg64
(lp1317
g57
(g58
g59
NtRp1318
(dp1319
g62
(dp1320
g70
I4
ssg71
g1314
sg64
(lp1321
S'POST'
p1322
asbasbasbag57
(g73
g59
NtRp1323
(dp1324
g62
(dp1325
sg71
g661
sg64
(lp1326
g57
(g78
g59
NtRp1327
(dp1328
g62
(dp1329
g82
g83
ssg71
g1323
sg64
(lp1330
S'request_uri'
p1331
asbag57
(g78
g59
NtRp1332
(dp1333
g62
(dp1334
g89
g90
ssg71
g1323
sg64
(lp1335
S':'
asbag57
(g78
g59
NtRp1336
(dp1337
g62
(dp1338
sg71
g1323
sg64
(lp1339
g57
(g58
g59
NtRp1340
(dp1341
g62
(dp1342
g70
I4
ssg71
g1336
sg64
(lp1343
g1236
asbasbasbag57
(g73
g59
NtRp1344
(dp1345
g62
(dp1346
sg71
g661
sg64
(lp1347
g57
(g78
g59
NtRp1348
(dp1349
g62
(dp1350
g82
g83
ssg71
g1344
sg64
(lp1351
S'script_name'
p1352
asbag57
(g78
g59
NtRp1353
(dp1354
g62
(dp1355
g89
g90
ssg71
g1344
sg64
(lp1356
S':'
asbag57
(g78
g59
NtRp1357
(dp1358
g62
(dp1359
sg71
g1344
sg64
(lp1360
g57
(g58
g59
NtRp1361
(dp1362
g62
(dp1363
g70
I4
ssg71
g1357
sg64
(lp1364
S''
asbasbasbag57
(g73
g59
NtRp1365
(dp1366
g62
(dp1367
sg71
g661
sg64
(lp1368
g57
(g78
g59
NtRp1369
(dp1370
g62
(dp1371
g82
g83
ssg71
g1365
sg64
(lp1372
S'server_name'
p1373
asbag57
(g78
g59
NtRp1374
(dp1375
g62
(dp1376
g89
g90
ssg71
g1365
sg64
(lp1377
S':'
asbag57
(g78
g59
NtRp1378
(dp1379
g62
(dp1380
sg71
g1365
sg64
(lp1381
g57
(g58
g59
NtRp1382
(dp1383
g62
(dp1384
g70
I4
ssg71
g1378
sg64
(lp1385
S'malena'
p1386
asbasbasbag57
(g73
g59
NtRp1387
(dp1388
g62
(dp1389
sg71
g661
sg64
(lp1390
g57
(g78
g59
NtRp1391
(dp1392
g62
(dp1393
g82
g83
ssg71
g1387
sg64
(lp1394
S'server_port'
p1395
asbag57
(g78
g59
NtRp1396
(dp1397
g62
(dp1398
g89
g90
ssg71
g1387
sg64
(lp1399
S':'
asbag57
(g78
g59
NtRp1400
(dp1401
g62
(dp1402
sg71
g1387
sg64
(lp1403
g57
(g58
g59
NtRp1404
(dp1405
g62
(dp1406
g70
I4
ssg71
g1400
sg64
(lp1407
S'8000'
p1408
asbasbasbag57
(g73
g59
NtRp1409
(dp1410
g62
(dp1411
sg71
g661
sg64
(lp1412
g57
(g78
g59
NtRp1413
(dp1414
g62
(dp1415
g82
g83
ssg71
g1409
sg64
(lp1416
S'server_protocol'
p1417
asbag57
(g78
g59
NtRp1418
(dp1419
g62
(dp1420
g89
g90
ssg71
g1409
sg64
(lp1421
S':'
asbag57
(g78
g59
NtRp1422
(dp1423
g62
(dp1424
sg71
g1409
sg64
(lp1425
g57
(g58
g59
NtRp1426
(dp1427
g62
(dp1428
g70
I4
ssg71
g1422
sg64
(lp1429
S'HTTP/1.1'
p1430
asbasbasbag57
(g73
g59
NtRp1431
(dp1432
g62
(dp1433
sg71
g661
sg64
(lp1434
g57
(g78
g59
NtRp1435
(dp1436
g62
(dp1437
g82
g83
ssg71
g1431
sg64
(lp1438
S'server_software'
p1439
asbag57
(g78
g59
NtRp1440
(dp1441
g62
(dp1442
g89
g90
ssg71
g1431
sg64
(lp1443
S':'
asbag57
(g78
g59
NtRp1444
(dp1445
g62
(dp1446
sg71
g1431
sg64
(lp1447
g57
(g58
g59
NtRp1448
(dp1449
g62
(dp1450
g70
I4
ssg71
g1444
sg64
(lp1451
S'Rocket 1.2.6'
p1452
asbasbasbag57
(g73
g59
NtRp1453
(dp1454
g62
(dp1455
sg71
g661
sg64
(lp1456
g57
(g78
g59
NtRp1457
(dp1458
g62
(dp1459
g82
g83
ssg71
g1453
sg64
(lp1460
S'web2py_path'
p1461
asbag57
(g78
g59
NtRp1462
(dp1463
g62
(dp1464
g89
g90
ssg71
g1453
sg64
(lp1465
S':'
asbag57
(g78
g59
NtRp1466
(dp1467
g62
(dp1468
sg71
g1453
sg64
(lp1469
g57
(g58
g59
NtRp1470
(dp1471
g62
(dp1472
g70
I4
ssg71
g1466
sg64
(lp1473
g708
asbasbasbag57
(g73
g59
NtRp1474
(dp1475
g62
(dp1476
sg71
g661
sg64
(lp1477
g57
(g78
g59
NtRp1478
(dp1479
g62
(dp1480
g82
g83
ssg71
g1474
sg64
(lp1481
S'web2py_version'
p1482
asbag57
(g78
g59
NtRp1483
(dp1484
g62
(dp1485
g89
g90
ssg71
g1474
sg64
(lp1486
S':'
asbag57
(g78
g59
NtRp1487
(dp1488
g62
(dp1489
sg71
g1474
sg64
(lp1490
g57
(g58
g59
NtRp1491
(dp1492
g62
(dp1493
g70
I4
ssg71
g1487
sg64
(lp1494
g57
(g66
g59
NtRp1495
(dp1496
g62
(dp1497
g70
I3
ssg71
Nsg64
(lp1498
g57
(g73
g59
NtRp1499
(dp1500
g62
(dp1501
sg71
g1495
sg64
(lp1502
g57
(g78
g59
NtRp1503
(dp1504
g62
(dp1505
sg71
g1499
sg64
(lp1506
g57
(g58
g59
NtRp1507
(dp1508
g62
(dp1509
g70
I3
ssg71
g1503
sg64
(lp1510
S'2'
asbasbasbag57
(g73
g59
NtRp1511
(dp1512
g62
(dp1513
sg71
g1495
sg64
(lp1514
g57
(g78
g59
NtRp1515
(dp1516
g62
(dp1517
sg71
g1511
sg64
(lp1518
g57
(g58
g59
NtRp1519
(dp1520
g62
(dp1521
g70
I3
ssg71
g1515
sg64
(lp1522
S'3'
asbasbasbag57
(g73
g59
NtRp1523
(dp1524
g62
(dp1525
sg71
g1495
sg64
(lp1526
g57
(g78
g59
NtRp1527
(dp1528
g62
(dp1529
sg71
g1523
sg64
(lp1530
g57
(g58
g59
NtRp1531
(dp1532
g62
(dp1533
g70
I3
ssg71
g1527
sg64
(lp1534
S'0'
asbasbasbag57
(g73
g59
NtRp1535
(dp1536
g62
(dp1537
sg71
g1495
sg64
(lp1538
g57
(g78
g59
NtRp1539
(dp1540
g62
(dp1541
sg71
g1535
sg64
(lp1542
g57
(g58
g59
NtRp1543
(dp1544
g62
(dp1545
g70
I3
ssg71
g1539
sg64
(lp1546
S'datetime.datetime(2012, 12, 4, 10, 55, 53)'
p1547
asbasbasbag57
(g73
g59
NtRp1548
(dp1549
g62
(dp1550
sg71
g1495
sg64
(lp1551
g57
(g78
g59
NtRp1552
(dp1553
g62
(dp1554
sg71
g1548
sg64
(lp1555
g57
(g58
g59
NtRp1556
(dp1557
g62
(dp1558
g70
I3
ssg71
g1552
sg64
(lp1559
S'rc'
p1560
asbasbasbasbasbasbasbag57
(g73
g59
NtRp1561
(dp1562
g62
(dp1563
sg71
g661
sg64
(lp1564
g57
(g78
g59
NtRp1565
(dp1566
g62
(dp1567
g82
g83
ssg71
g1561
sg64
(lp1568
S'wsgi_errors'
p1569
asbag57
(g78
g59
NtRp1570
(dp1571
g62
(dp1572
g89
g90
ssg71
g1561
sg64
(lp1573
S':'
asbag57
(g78
g59
NtRp1574
(dp1575
g62
(dp1576
sg71
g1561
sg64
(lp1577
g57
(g58
g59
NtRp1578
(dp1579
g62
(dp1580
g70
I4
ssg71
g1574
sg64
(lp1581
S"<open file '<stderr>', mode 'w' at 0x7f194ac80270>"
p1582
asbasbasbag57
(g73
g59
NtRp1583
(dp1584
g62
(dp1585
sg71
g661
sg64
(lp1586
g57
(g78
g59
NtRp1587
(dp1588
g62
(dp1589
g82
g83
ssg71
g1583
sg64
(lp1590
S'wsgi_file_wrapper'
p1591
asbag57
(g78
g59
NtRp1592
(dp1593
g62
(dp1594
g89
g90
ssg71
g1583
sg64
(lp1595
S':'
asbag57
(g78
g59
NtRp1596
(dp1597
g62
(dp1598
sg71
g1583
sg64
(lp1599
g57
(g58
g59
NtRp1600
(dp1601
g62
(dp1602
g70
I4
ssg71
g1596
sg64
(lp1603
S'<class wsgiref.util.FileWrapper at 0x2fbfc80>'
p1604
asbasbasbag57
(g73
g59
NtRp1605
(dp1606
g62
(dp1607
sg71
g661
sg64
(lp1608
g57
(g78
g59
NtRp1609
(dp1610
g62
(dp1611
g82
g83
ssg71
g1605
sg64
(lp1612
S'wsgi_input'
p1613
asbag57
(g78
g59
NtRp1614
(dp1615
g62
(dp1616
g89
g90
ssg71
g1605
sg64
(lp1617
S':'
asbag57
(g78
g59
NtRp1618
(dp1619
g62
(dp1620
sg71
g1605
sg64
(lp1621
g57
(g58
g59
NtRp1622
(dp1623
g62
(dp1624
g70
I4
ssg71
g1618
sg64
(lp1625
S'<socket._fileobject object at 0x3471ed0>'
p1626
asbasbasbag57
(g73
g59
NtRp1627
(dp1628
g62
(dp1629
sg71
g661
sg64
(lp1630
g57
(g78
g59
NtRp1631
(dp1632
g62
(dp1633
g82
g83
ssg71
g1627
sg64
(lp1634
S'wsgi_multiprocess'
p1635
asbag57
(g78
g59
NtRp1636
(dp1637
g62
(dp1638
g89
g90
ssg71
g1627
sg64
(lp1639
S':'
asbag57
(g78
g59
NtRp1640
(dp1641
g62
(dp1642
sg71
g1627
sg64
(lp1643
g57
(g58
g59
NtRp1644
(dp1645
g62
(dp1646
g70
I4
ssg71
g1640
sg64
(lp1647
g100
asbasbasbag57
(g73
g59
NtRp1648
(dp1649
g62
(dp1650
sg71
g661
sg64
(lp1651
g57
(g78
g59
NtRp1652
(dp1653
g62
(dp1654
g82
g83
ssg71
g1648
sg64
(lp1655
S'wsgi_multithread'
p1656
asbag57
(g78
g59
NtRp1657
(dp1658
g62
(dp1659
g89
g90
ssg71
g1648
sg64
(lp1660
S':'
asbag57
(g78
g59
NtRp1661
(dp1662
g62
(dp1663
sg71
g1648
sg64
(lp1664
g57
(g58
g59
NtRp1665
(dp1666
g62
(dp1667
g70
I4
ssg71
g1661
sg64
(lp1668
S'True'
p1669
asbasbasbag57
(g73
g59
NtRp1670
(dp1671
g62
(dp1672
sg71
g661
sg64
(lp1673
g57
(g78
g59
NtRp1674
(dp1675
g62
(dp1676
g82
g83
ssg71
g1670
sg64
(lp1677
S'wsgi_run_once'
p1678
asbag57
(g78
g59
NtRp1679
(dp1680
g62
(dp1681
g89
g90
ssg71
g1670
sg64
(lp1682
S':'
asbag57
(g78
g59
NtRp1683
(dp1684
g62
(dp1685
sg71
g1670
sg64
(lp1686
g57
(g58
g59
NtRp1687
(dp1688
g62
(dp1689
g70
I4
ssg71
g1683
sg64
(lp1690
g100
asbasbasbag57
(g73
g59
NtRp1691
(dp1692
g62
(dp1693
sg71
g661
sg64
(lp1694
g57
(g78
g59
NtRp1695
(dp1696
g62
(dp1697
g82
g83
ssg71
g1691
sg64
(lp1698
S'wsgi_url_scheme'
p1699
asbag57
(g78
g59
NtRp1700
(dp1701
g62
(dp1702
g89
g90
ssg71
g1691
sg64
(lp1703
S':'
asbag57
(g78
g59
NtRp1704
(dp1705
g62
(dp1706
sg71
g1691
sg64
(lp1707
g57
(g58
g59
NtRp1708
(dp1709
g62
(dp1710
g70
I4
ssg71
g1704
sg64
(lp1711
S'http'
p1712
asbasbasbag57
(g73
g59
NtRp1713
(dp1714
g62
(dp1715
sg71
g661
sg64
(lp1716
g57
(g78
g59
NtRp1717
(dp1718
g62
(dp1719
g82
g83
ssg71
g1713
sg64
(lp1720
S'wsgi_version'
p1721
asbag57
(g78
g59
NtRp1722
(dp1723
g62
(dp1724
g89
g90
ssg71
g1713
sg64
(lp1725
S':'
asbag57
(g78
g59
NtRp1726
(dp1727
g62
(dp1728
sg71
g1713
sg64
(lp1729
g57
(g58
g59
NtRp1730
(dp1731
g62
(dp1732
g70
I4
ssg71
g1726
sg64
(lp1733
g57
(g66
g59
NtRp1734
(dp1735
g62
(dp1736
g70
I3
ssg71
Nsg64
(lp1737
g57
(g73
g59
NtRp1738
(dp1739
g62
(dp1740
sg71
g1734
sg64
(lp1741
g57
(g78
g59
NtRp1742
(dp1743
g62
(dp1744
sg71
g1738
sg64
(lp1745
g57
(g58
g59
NtRp1746
(dp1747
g62
(dp1748
g70
I3
ssg71
g1742
sg64
(lp1749
S'1'
asbasbasbag57
(g73
g59
NtRp1750
(dp1751
g62
(dp1752
sg71
g1734
sg64
(lp1753
g57
(g78
g59
NtRp1754
(dp1755
g62
(dp1756
sg71
g1750
sg64
(lp1757
g57
(g58
g59
NtRp1758
(dp1759
g62
(dp1760
g70
I3
ssg71
g1754
sg64
(lp1761
S'0'
asbasbasbasbasbasbasbasbasbasbasbag57
(g73
g59
NtRp1762
(dp1763
g62
(dp1764
sg71
g67
sg64
(lp1765
g57
(g78
g59
NtRp1766
(dp1767
g62
(dp1768
g82
g83
ssg71
g1762
sg64
(lp1769
S'extension'
p1770
asbag57
(g78
g59
NtRp1771
(dp1772
g62
(dp1773
g89
g90
ssg71
g1762
sg64
(lp1774
S':'
asbag57
(g78
g59
NtRp1775
(dp1776
g62
(dp1777
sg71
g1762
sg64
(lp1778
g57
(g58
g59
NtRp1779
(dp1780
g62
(dp1781
g70
I5
ssg71
g1775
sg64
(lp1782
S'html'
p1783
asbasbasbag57
(g73
g59
NtRp1784
(dp1785
g62
(dp1786
sg71
g67
sg64
(lp1787
g57
(g78
g59
NtRp1788
(dp1789
g62
(dp1790
g82
g83
ssg71
g1784
sg64
(lp1791
S'folder'
p1792
asbag57
(g78
g59
NtRp1793
(dp1794
g62
(dp1795
g89
g90
ssg71
g1784
sg64
(lp1796
S':'
asbag57
(g78
g59
NtRp1797
(dp1798
g62
(dp1799
sg71
g1784
sg64
(lp1800
g57
(g58
g59
NtRp1801
(dp1802
g62
(dp1803
g70
I5
ssg71
g1797
sg64
(lp1804
S'/home/marco/projects/contabilidad/web2py/applications/sueldos/'
p1805
asbasbasbag57
(g73
g59
NtRp1806
(dp1807
g62
(dp1808
sg71
g67
sg64
(lp1809
g57
(g78
g59
NtRp1810
(dp1811
g62
(dp1812
g82
g83
ssg71
g1806
sg64
(lp1813
S'function'
p1814
asbag57
(g78
g59
NtRp1815
(dp1816
g62
(dp1817
g89
g90
ssg71
g1806
sg64
(lp1818
S':'
asbag57
(g78
g59
NtRp1819
(dp1820
g62
(dp1821
sg71
g1806
sg64
(lp1822
g57
(g58
g59
NtRp1823
(dp1824
g62
(dp1825
g70
I5
ssg71
g1819
sg64
(lp1826
S'empleados'
p1827
asbasbasbag57
(g73
g59
NtRp1828
(dp1829
g62
(dp1830
sg71
g67
sg64
(lp1831
g57
(g78
g59
NtRp1832
(dp1833
g62
(dp1834
g82
g83
ssg71
g1828
sg64
(lp1835
S'get_vars'
p1836
asbag57
(g78
g59
NtRp1837
(dp1838
g62
(dp1839
g89
g90
ssg71
g1828
sg64
(lp1840
S':'
asbag57
(g78
g59
NtRp1841
(dp1842
g62
(dp1843
sg71
g1828
sg64
(lp1844
g57
(g58
g59
NtRp1845
(dp1846
g62
(dp1847
g70
I5
ssg71
g1841
sg64
(lp1848
g57
(g66
g59
NtRp1849
(dp1850
g62
(dp1851
g70
I4
ssg71
Nsg64
(lp1852
sbasbasbasbag57
(g73
g59
NtRp1853
(dp1854
g62
(dp1855
sg71
g67
sg64
(lp1856
g57
(g78
g59
NtRp1857
(dp1858
g62
(dp1859
g82
g83
ssg71
g1853
sg64
(lp1860
S'global_settings'
p1861
asbag57
(g78
g59
NtRp1862
(dp1863
g62
(dp1864
g89
g90
ssg71
g1853
sg64
(lp1865
S':'
asbag57
(g78
g59
NtRp1866
(dp1867
g62
(dp1868
sg71
g1853
sg64
(lp1869
g57
(g58
g59
NtRp1870
(dp1871
g62
(dp1872
g70
I5
ssg71
g1866
sg64
(lp1873
g57
(g66
g59
NtRp1874
(dp1875
g62
(dp1876
g70
I4
ssg71
Nsg64
(lp1877
g57
(g73
g59
NtRp1878
(dp1879
g62
(dp1880
sg71
g1874
sg64
(lp1881
g57
(g78
g59
NtRp1882
(dp1883
g62
(dp1884
g82
g83
ssg71
g1878
sg64
(lp1885
g673
asbag57
(g78
g59
NtRp1886
(dp1887
g62
(dp1888
g89
g90
ssg71
g1878
sg64
(lp1889
S':'
asbag57
(g78
g59
NtRp1890
(dp1891
g62
(dp1892
sg71
g1878
sg64
(lp1893
g57
(g58
g59
NtRp1894
(dp1895
g62
(dp1896
g70
I4
ssg71
g1890
sg64
(lp1897
S"set(['/home/marco/projects/contabilidad/web2py/applications/admin/', '/home/marco/projects/contabilidad/web2py/applications/sueldos/'])"
p1898
asbasbasbag57
(g73
g59
NtRp1899
(dp1900
g62
(dp1901
sg71
g1874
sg64
(lp1902
g57
(g78
g59
NtRp1903
(dp1904
g62
(dp1905
g82
g83
ssg71
g1899
sg64
(lp1906
g695
asbag57
(g78
g59
NtRp1907
(dp1908
g62
(dp1909
g89
g90
ssg71
g1899
sg64
(lp1910
S':'
asbag57
(g78
g59
NtRp1911
(dp1912
g62
(dp1913
sg71
g1899
sg64
(lp1914
g57
(g58
g59
NtRp1915
(dp1916
g62
(dp1917
g70
I4
ssg71
g1911
sg64
(lp1918
g708
asbasbasbag57
(g73
g59
NtRp1919
(dp1920
g62
(dp1921
sg71
g1874
sg64
(lp1922
g57
(g78
g59
NtRp1923
(dp1924
g62
(dp1925
g82
g83
ssg71
g1919
sg64
(lp1926
g717
asbag57
(g78
g59
NtRp1927
(dp1928
g62
(dp1929
g89
g90
ssg71
g1919
sg64
(lp1930
S':'
asbag57
(g78
g59
NtRp1931
(dp1932
g62
(dp1933
sg71
g1919
sg64
(lp1934
g57
(g58
g59
NtRp1935
(dp1936
g62
(dp1937
g70
I4
ssg71
g1931
sg64
(lp1938
g57
(g66
g59
NtRp1939
(dp1940
g62
(dp1941
g70
I3
ssg71
Nsg64
(lp1942
sbasbasbasbag57
(g73
g59
NtRp1943
(dp1944
g62
(dp1945
sg71
g1874
sg64
(lp1946
g57
(g78
g59
NtRp1947
(dp1948
g62
(dp1949
g82
g83
ssg71
g1943
sg64
(lp1950
g742
asbag57
(g78
g59
NtRp1951
(dp1952
g62
(dp1953
g89
g90
ssg71
g1943
sg64
(lp1954
S':'
asbag57
(g78
g59
NtRp1955
(dp1956
g62
(dp1957
sg71
g1943
sg64
(lp1958
g57
(g58
g59
NtRp1959
(dp1960
g62
(dp1961
g70
I4
ssg71
g1955
sg64
(lp1962
S"<Values at 0x3062320: {'verbose': False, 'ip': '127.0.0.1', 'with_scheduler': False, 'ips': [], 'shutdown_timeout': 5, 'taskbar': False, 'port': 8000, 'maxthreads': None, 'softcron': False, 'server_name': 'malena', 'bpython': False, 'nogui': False, 'pid_filename': 'httpserver.pid', 'extcron': False, 'runcron': False, 'run_system_tests': False, 'test': None, 'folder': '/home/marco/projects/contabilidad/web2py', 'config': '', 'minthreads': None, 'winservice': '', 'shell': None, 'run': '', 'log_filename': 'httpserver.log', 'debuglevel': 30, 'args': [''], 'socket_timeout': 5, 'ssl_ca_certificate': None, 'scheduler': None, 'profiler_filename': None, 'ssl_private_key': '', 'scheduler_groups': None, 'password': 'asd', 'request_queue_size': 5, 'ssl_certificate': '', 'cronjob': False, 'numthreads': None, 'quiet': False, 'interfaces': None, 'import_models': False, 'timeout': 10, 'plain': False, 'nobanner': False}>"
p1963
asbasbasbag57
(g73
g59
NtRp1964
(dp1965
g62
(dp1966
sg71
g1874
sg64
(lp1967
g57
(g78
g59
NtRp1968
(dp1969
g62
(dp1970
g82
g83
ssg71
g1964
sg64
(lp1971
g808
asbag57
(g78
g59
NtRp1972
(dp1973
g62
(dp1974
g89
g90
ssg71
g1964
sg64
(lp1975
S':'
asbag57
(g78
g59
NtRp1976
(dp1977
g62
(dp1978
sg71
g1964
sg64
(lp1979
g57
(g58
g59
NtRp1980
(dp1981
g62
(dp1982
g70
I4
ssg71
g1976
sg64
(lp1983
S'set([])'
p1984
asbasbasbag57
(g73
g59
NtRp1985
(dp1986
g62
(dp1987
sg71
g1874
sg64
(lp1988
g57
(g78
g59
NtRp1989
(dp1990
g62
(dp1991
g82
g83
ssg71
g1985
sg64
(lp1992
g830
asbag57
(g78
g59
NtRp1993
(dp1994
g62
(dp1995
g89
g90
ssg71
g1985
sg64
(lp1996
S':'
asbag57
(g78
g59
NtRp1997
(dp1998
g62
(dp1999
sg71
g1985
sg64
(lp2000
g57
(g58
g59
NtRp2001
(dp2002
g62
(dp2003
g70
I4
ssg71
g1997
sg64
(lp2004
g100
asbasbasbag57
(g73
g59
NtRp2005
(dp2006
g62
(dp2007
sg71
g1874
sg64
(lp2008
g57
(g78
g59
NtRp2009
(dp2010
g62
(dp2011
g82
g83
ssg71
g2005
sg64
(lp2012
g851
asbag57
(g78
g59
NtRp2013
(dp2014
g62
(dp2015
g89
g90
ssg71
g2005
sg64
(lp2016
S':'
asbag57
(g78
g59
NtRp2017
(dp2018
g62
(dp2019
sg71
g2005
sg64
(lp2020
g57
(g58
g59
NtRp2021
(dp2022
g62
(dp2023
g70
I4
ssg71
g2017
sg64
(lp2024
g864
asbasbasbag57
(g73
g59
NtRp2025
(dp2026
g62
(dp2027
sg71
g1874
sg64
(lp2028
g57
(g78
g59
NtRp2029
(dp2030
g62
(dp2031
g82
g83
ssg71
g2025
sg64
(lp2032
g1091
asbag57
(g78
g59
NtRp2033
(dp2034
g62
(dp2035
g89
g90
ssg71
g2025
sg64
(lp2036
S':'
asbag57
(g78
g59
NtRp2037
(dp2038
g62
(dp2039
sg71
g2025
sg64
(lp2040
g57
(g58
g59
NtRp2041
(dp2042
g62
(dp2043
g70
I4
ssg71
g2037
sg64
(lp2044
g100
asbasbasbag57
(g73
g59
NtRp2045
(dp2046
g62
(dp2047
sg71
g1874
sg64
(lp2048
g57
(g78
g59
NtRp2049
(dp2050
g62
(dp2051
g82
g83
ssg71
g2045
sg64
(lp2052
g1112
asbag57
(g78
g59
NtRp2053
(dp2054
g62
(dp2055
g89
g90
ssg71
g2045
sg64
(lp2056
S':'
asbag57
(g78
g59
NtRp2057
(dp2058
g62
(dp2059
sg71
g2045
sg64
(lp2060
g57
(g58
g59
NtRp2061
(dp2062
g62
(dp2063
g70
I4
ssg71
g2057
sg64
(lp2064
g100
asbasbasbag57
(g73
g59
NtRp2065
(dp2066
g62
(dp2067
sg71
g1874
sg64
(lp2068
g57
(g78
g59
NtRp2069
(dp2070
g62
(dp2071
g82
g83
ssg71
g2065
sg64
(lp2072
g1133
asbag57
(g78
g59
NtRp2073
(dp2074
g62
(dp2075
g89
g90
ssg71
g2065
sg64
(lp2076
S':'
asbag57
(g78
g59
NtRp2077
(dp2078
g62
(dp2079
sg71
g2065
sg64
(lp2080
g57
(g58
g59
NtRp2081
(dp2082
g62
(dp2083
g70
I4
ssg71
g2077
sg64
(lp2084
g57
(g66
g59
NtRp2085
(dp2086
g62
(dp2087
g70
I3
ssg71
Nsg64
(lp2088
g57
(g73
g59
NtRp2089
(dp2090
g62
(dp2091
sg71
g2085
sg64
(lp2092
g57
(g78
g59
NtRp2093
(dp2094
g62
(dp2095
sg71
g2089
sg64
(lp2096
g57
(g58
g59
NtRp2097
(dp2098
g62
(dp2099
g70
I3
ssg71
g2093
sg64
(lp2100
g1162
asbasbasbag57
(g73
g59
NtRp2101
(dp2102
g62
(dp2103
sg71
g2085
sg64
(lp2104
g57
(g78
g59
NtRp2105
(dp2106
g62
(dp2107
sg71
g2101
sg64
(lp2108
g57
(g58
g59
NtRp2109
(dp2110
g62
(dp2111
g70
I3
ssg71
g2105
sg64
(lp2112
g1175
asbasbasbag57
(g73
g59
NtRp2113
(dp2114
g62
(dp2115
sg71
g2085
sg64
(lp2116
g57
(g78
g59
NtRp2117
(dp2118
g62
(dp2119
sg71
g2113
sg64
(lp2120
g57
(g58
g59
NtRp2121
(dp2122
g62
(dp2123
g70
I3
ssg71
g2117
sg64
(lp2124
g1188
asbasbasbag57
(g73
g59
NtRp2125
(dp2126
g62
(dp2127
sg71
g2085
sg64
(lp2128
g57
(g78
g59
NtRp2129
(dp2130
g62
(dp2131
sg71
g2125
sg64
(lp2132
g57
(g58
g59
NtRp2133
(dp2134
g62
(dp2135
g70
I3
ssg71
g2129
sg64
(lp2136
g1201
asbasbasbag57
(g73
g59
NtRp2137
(dp2138
g62
(dp2139
sg71
g2085
sg64
(lp2140
g57
(g78
g59
NtRp2141
(dp2142
g62
(dp2143
sg71
g2137
sg64
(lp2144
g57
(g58
g59
NtRp2145
(dp2146
g62
(dp2147
g70
I3
ssg71
g2141
sg64
(lp2148
g1214
asbasbasbasbasbasbasbag57
(g73
g59
NtRp2149
(dp2150
g62
(dp2151
sg71
g1874
sg64
(lp2152
g57
(g78
g59
NtRp2153
(dp2154
g62
(dp2155
g82
g83
ssg71
g2149
sg64
(lp2156
g1482
asbag57
(g78
g59
NtRp2157
(dp2158
g62
(dp2159
g89
g90
ssg71
g2149
sg64
(lp2160
S':'
asbag57
(g78
g59
NtRp2161
(dp2162
g62
(dp2163
sg71
g2149
sg64
(lp2164
g57
(g58
g59
NtRp2165
(dp2166
g62
(dp2167
g70
I4
ssg71
g2161
sg64
(lp2168
g57
(g66
g59
NtRp2169
(dp2170
g62
(dp2171
g70
I3
ssg71
Nsg64
(lp2172
g57
(g73
g59
NtRp2173
(dp2174
g62
(dp2175
sg71
g2169
sg64
(lp2176
g57
(g78
g59
NtRp2177
(dp2178
g62
(dp2179
sg71
g2173
sg64
(lp2180
g57
(g58
g59
NtRp2181
(dp2182
g62
(dp2183
g70
I3
ssg71
g2177
sg64
(lp2184
S'2'
asbasbasbag57
(g73
g59
NtRp2185
(dp2186
g62
(dp2187
sg71
g2169
sg64
(lp2188
g57
(g78
g59
NtRp2189
(dp2190
g62
(dp2191
sg71
g2185
sg64
(lp2192
g57
(g58
g59
NtRp2193
(dp2194
g62
(dp2195
g70
I3
ssg71
g2189
sg64
(lp2196
S'3'
asbasbasbag57
(g73
g59
NtRp2197
(dp2198
g62
(dp2199
sg71
g2169
sg64
(lp2200
g57
(g78
g59
NtRp2201
(dp2202
g62
(dp2203
sg71
g2197
sg64
(lp2204
g57
(g58
g59
NtRp2205
(dp2206
g62
(dp2207
g70
I3
ssg71
g2201
sg64
(lp2208
S'0'
asbasbasbag57
(g73
g59
NtRp2209
(dp2210
g62
(dp2211
sg71
g2169
sg64
(lp2212
g57
(g78
g59
NtRp2213
(dp2214
g62
(dp2215
sg71
g2209
sg64
(lp2216
g57
(g58
g59
NtRp2217
(dp2218
g62
(dp2219
g70
I3
ssg71
g2213
sg64
(lp2220
S'datetime.datetime(2012, 12, 4, 10, 55, 53)'
p2221
asbasbasbag57
(g73
g59
NtRp2222
(dp2223
g62
(dp2224
sg71
g2169
sg64
(lp2225
g57
(g78
g59
NtRp2226
(dp2227
g62
(dp2228
sg71
g2222
sg64
(lp2229
g57
(g58
g59
NtRp2230
(dp2231
g62
(dp2232
g70
I3
ssg71
g2226
sg64
(lp2233
g1560
asbasbasbasbasbasbasbasbasbasbasbag57
(g73
g59
NtRp2234
(dp2235
g62
(dp2236
sg71
g67
sg64
(lp2237
g57
(g78
g59
NtRp2238
(dp2239
g62
(dp2240
g82
g83
ssg71
g2234
sg64
(lp2241
S'is_https'
p2242
asbag57
(g78
g59
NtRp2243
(dp2244
g62
(dp2245
g89
g90
ssg71
g2234
sg64
(lp2246
S':'
asbag57
(g78
g59
NtRp2247
(dp2248
g62
(dp2249
sg71
g2234
sg64
(lp2250
g57
(g58
g59
NtRp2251
(dp2252
g62
(dp2253
g70
I5
ssg71
g2247
sg64
(lp2254
g100
asbasbasbag57
(g73
g59
NtRp2255
(dp2256
g62
(dp2257
sg71
g67
sg64
(lp2258
g57
(g78
g59
NtRp2259
(dp2260
g62
(dp2261
g82
g83
ssg71
g2255
sg64
(lp2262
S'is_local'
p2263
asbag57
(g78
g59
NtRp2264
(dp2265
g62
(dp2266
g89
g90
ssg71
g2255
sg64
(lp2267
S':'
asbag57
(g78
g59
NtRp2268
(dp2269
g62
(dp2270
sg71
g2255
sg64
(lp2271
g57
(g58
g59
NtRp2272
(dp2273
g62
(dp2274
g70
I5
ssg71
g2268
sg64
(lp2275
g1669
asbasbasbag57
(g73
g59
NtRp2276
(dp2277
g62
(dp2278
sg71
g67
sg64
(lp2279
g57
(g78
g59
NtRp2280
(dp2281
g62
(dp2282
g82
g83
ssg71
g2276
sg64
(lp2283
S'is_restful'
p2284
asbag57
(g78
g59
NtRp2285
(dp2286
g62
(dp2287
g89
g90
ssg71
g2276
sg64
(lp2288
S':'
asbag57
(g78
g59
NtRp2289
(dp2290
g62
(dp2291
sg71
g2276
sg64
(lp2292
g57
(g58
g59
NtRp2293
(dp2294
g62
(dp2295
g70
I5
ssg71
g2289
sg64
(lp2296
g100
asbasbasbag57
(g73
g59
NtRp2297
(dp2298
g62
(dp2299
sg71
g67
sg64
(lp2300
g57
(g78
g59
NtRp2301
(dp2302
g62
(dp2303
g82
g83
ssg71
g2297
sg64
(lp2304
S'now'
p2305
asbag57
(g78
g59
NtRp2306
(dp2307
g62
(dp2308
g89
g90
ssg71
g2297
sg64
(lp2309
S':'
asbag57
(g78
g59
NtRp2310
(dp2311
g62
(dp2312
sg71
g2297
sg64
(lp2313
g57
(g58
g59
NtRp2314
(dp2315
g62
(dp2316
g70
I5
ssg71
g2310
sg64
(lp2317
S'datetime.datetime(2013, 1, 4, 16, 56, 9, 889091)'
p2318
asbasbasbag57
(g73
g59
NtRp2319
(dp2320
g62
(dp2321
sg71
g67
sg64
(lp2322
g57
(g78
g59
NtRp2323
(dp2324
g62
(dp2325
g82
g83
ssg71
g2319
sg64
(lp2326
S'post_vars'
p2327
asbag57
(g78
g59
NtRp2328
(dp2329
g62
(dp2330
g89
g90
ssg71
g2319
sg64
(lp2331
S':'
asbag57
(g78
g59
NtRp2332
(dp2333
g62
(dp2334
sg71
g2319
sg64
(lp2335
g57
(g58
g59
NtRp2336
(dp2337
g62
(dp2338
g70
I5
ssg71
g2332
sg64
(lp2339
g57
(g66
g59
NtRp2340
(dp2341
g62
(dp2342
g70
I4
ssg71
Nsg64
(lp2343
g57
(g73
g59
NtRp2344
(dp2345
g62
(dp2346
sg71
g2340
sg64
(lp2347
g57
(g78
g59
NtRp2348
(dp2349
g62
(dp2350
g82
g83
ssg71
g2344
sg64
(lp2351
S'amaterno'
p2352
asbag57
(g78
g59
NtRp2353
(dp2354
g62
(dp2355
g89
g90
ssg71
g2344
sg64
(lp2356
S':'
asbag57
(g78
g59
NtRp2357
(dp2358
g62
(dp2359
sg71
g2344
sg64
(lp2360
g57
(g58
g59
NtRp2361
(dp2362
g62
(dp2363
g70
I4
ssg71
g2357
sg64
(lp2364
S''
asbasbasbag57
(g73
g59
NtRp2365
(dp2366
g62
(dp2367
sg71
g2340
sg64
(lp2368
g57
(g78
g59
NtRp2369
(dp2370
g62
(dp2371
g82
g83
ssg71
g2365
sg64
(lp2372
S'apaterno'
p2373
asbag57
(g78
g59
NtRp2374
(dp2375
g62
(dp2376
g89
g90
ssg71
g2365
sg64
(lp2377
S':'
asbag57
(g78
g59
NtRp2378
(dp2379
g62
(dp2380
sg71
g2365
sg64
(lp2381
g57
(g58
g59
NtRp2382
(dp2383
g62
(dp2384
g70
I4
ssg71
g2378
sg64
(lp2385
S''
asbasbasbag57
(g73
g59
NtRp2386
(dp2387
g62
(dp2388
sg71
g2340
sg64
(lp2389
g57
(g78
g59
NtRp2390
(dp2391
g62
(dp2392
g82
g83
ssg71
g2386
sg64
(lp2393
S'cahorro'
p2394
asbag57
(g78
g59
NtRp2395
(dp2396
g62
(dp2397
g89
g90
ssg71
g2386
sg64
(lp2398
S':'
asbag57
(g78
g59
NtRp2399
(dp2400
g62
(dp2401
sg71
g2386
sg64
(lp2402
g57
(g58
g59
NtRp2403
(dp2404
g62
(dp2405
g70
I4
ssg71
g2399
sg64
(lp2406
S''
asbasbasbag57
(g73
g59
NtRp2407
(dp2408
g62
(dp2409
sg71
g2340
sg64
(lp2410
g57
(g78
g59
NtRp2411
(dp2412
g62
(dp2413
g82
g83
ssg71
g2407
sg64
(lp2414
S'cuil'
p2415
asbag57
(g78
g59
NtRp2416
(dp2417
g62
(dp2418
g89
g90
ssg71
g2407
sg64
(lp2419
S':'
asbag57
(g78
g59
NtRp2420
(dp2421
g62
(dp2422
sg71
g2407
sg64
(lp2423
g57
(g58
g59
NtRp2424
(dp2425
g62
(dp2426
g70
I4
ssg71
g2420
sg64
(lp2427
S'skmsldmsdlk'
p2428
asbasbasbag57
(g73
g59
NtRp2429
(dp2430
g62
(dp2431
sg71
g2340
sg64
(lp2432
g57
(g78
g59
NtRp2433
(dp2434
g62
(dp2435
g82
g83
ssg71
g2429
sg64
(lp2436
S'domicilio'
p2437
asbag57
(g78
g59
NtRp2438
(dp2439
g62
(dp2440
g89
g90
ssg71
g2429
sg64
(lp2441
S':'
asbag57
(g78
g59
NtRp2442
(dp2443
g62
(dp2444
sg71
g2429
sg64
(lp2445
g57
(g58
g59
NtRp2446
(dp2447
g62
(dp2448
g70
I4
ssg71
g2442
sg64
(lp2449
S''
asbasbasbag57
(g73
g59
NtRp2450
(dp2451
g62
(dp2452
sg71
g2340
sg64
(lp2453
g57
(g78
g59
NtRp2454
(dp2455
g62
(dp2456
g82
g83
ssg71
g2450
sg64
(lp2457
S'ecivil'
p2458
asbag57
(g78
g59
NtRp2459
(dp2460
g62
(dp2461
g89
g90
ssg71
g2450
sg64
(lp2462
S':'
asbag57
(g78
g59
NtRp2463
(dp2464
g62
(dp2465
sg71
g2450
sg64
(lp2466
g57
(g58
g59
NtRp2467
(dp2468
g62
(dp2469
g70
I4
ssg71
g2463
sg64
(lp2470
S''
asbasbasbag57
(g73
g59
NtRp2471
(dp2472
g62
(dp2473
sg71
g2340
sg64
(lp2474
g57
(g78
g59
NtRp2475
(dp2476
g62
(dp2477
g82
g83
ssg71
g2471
sg64
(lp2478
S'fnac'
p2479
asbag57
(g78
g59
NtRp2480
(dp2481
g62
(dp2482
g89
g90
ssg71
g2471
sg64
(lp2483
S':'
asbag57
(g78
g59
NtRp2484
(dp2485
g62
(dp2486
sg71
g2471
sg64
(lp2487
g57
(g58
g59
NtRp2488
(dp2489
g62
(dp2490
g70
I4
ssg71
g2484
sg64
(lp2491
S''
asbasbasbag57
(g73
g59
NtRp2492
(dp2493
g62
(dp2494
sg71
g2340
sg64
(lp2495
g57
(g78
g59
NtRp2496
(dp2497
g62
(dp2498
g82
g83
ssg71
g2492
sg64
(lp2499
S'nacionalidad'
p2500
asbag57
(g78
g59
NtRp2501
(dp2502
g62
(dp2503
g89
g90
ssg71
g2492
sg64
(lp2504
S':'
asbag57
(g78
g59
NtRp2505
(dp2506
g62
(dp2507
sg71
g2492
sg64
(lp2508
g57
(g58
g59
NtRp2509
(dp2510
g62
(dp2511
g70
I4
ssg71
g2505
sg64
(lp2512
S''
asbasbasbag57
(g73
g59
NtRp2513
(dp2514
g62
(dp2515
sg71
g2340
sg64
(lp2516
g57
(g78
g59
NtRp2517
(dp2518
g62
(dp2519
g82
g83
ssg71
g2513
sg64
(lp2520
S'ndoc'
p2521
asbag57
(g78
g59
NtRp2522
(dp2523
g62
(dp2524
g89
g90
ssg71
g2513
sg64
(lp2525
S':'
asbag57
(g78
g59
NtRp2526
(dp2527
g62
(dp2528
sg71
g2513
sg64
(lp2529
g57
(g58
g59
NtRp2530
(dp2531
g62
(dp2532
g70
I4
ssg71
g2526
sg64
(lp2533
S''
asbasbasbag57
(g73
g59
NtRp2534
(dp2535
g62
(dp2536
sg71
g2340
sg64
(lp2537
g57
(g78
g59
NtRp2538
(dp2539
g62
(dp2540
g82
g83
ssg71
g2534
sg64
(lp2541
S'nombre'
p2542
asbag57
(g78
g59
NtRp2543
(dp2544
g62
(dp2545
g89
g90
ssg71
g2534
sg64
(lp2546
S':'
asbag57
(g78
g59
NtRp2547
(dp2548
g62
(dp2549
sg71
g2534
sg64
(lp2550
g57
(g58
g59
NtRp2551
(dp2552
g62
(dp2553
g70
I4
ssg71
g2547
sg64
(lp2554
S''
asbasbasbag57
(g73
g59
NtRp2555
(dp2556
g62
(dp2557
sg71
g2340
sg64
(lp2558
g57
(g78
g59
NtRp2559
(dp2560
g62
(dp2561
g82
g83
ssg71
g2555
sg64
(lp2562
S'tdoc'
p2563
asbag57
(g78
g59
NtRp2564
(dp2565
g62
(dp2566
g89
g90
ssg71
g2555
sg64
(lp2567
S':'
asbag57
(g78
g59
NtRp2568
(dp2569
g62
(dp2570
sg71
g2555
sg64
(lp2571
g57
(g58
g59
NtRp2572
(dp2573
g62
(dp2574
g70
I4
ssg71
g2568
sg64
(lp2575
S''
asbasbasbasbasbasbasbag57
(g73
g59
NtRp2576
(dp2577
g62
(dp2578
sg71
g67
sg64
(lp2579
g57
(g78
g59
NtRp2580
(dp2581
g62
(dp2582
g82
g83
ssg71
g2576
sg64
(lp2583
S'raw_args'
p2584
asbag57
(g78
g59
NtRp2585
(dp2586
g62
(dp2587
g89
g90
ssg71
g2576
sg64
(lp2588
S':'
asbag57
(g78
g59
NtRp2589
(dp2590
g62
(dp2591
sg71
g2576
sg64
(lp2592
g57
(g58
g59
NtRp2593
(dp2594
g62
(dp2595
g70
I5
ssg71
g2589
sg64
(lp2596
S''
asbasbasbag57
(g73
g59
NtRp2597
(dp2598
g62
(dp2599
sg71
g67
sg64
(lp2600
g57
(g78
g59
NtRp2601
(dp2602
g62
(dp2603
g82
g83
ssg71
g2597
sg64
(lp2604
S'raw_extension'
p2605
asbag57
(g78
g59
NtRp2606
(dp2607
g62
(dp2608
g89
g90
ssg71
g2597
sg64
(lp2609
S':'
asbag57
(g78
g59
NtRp2610
(dp2611
g62
(dp2612
sg71
g2597
sg64
(lp2613
g57
(g58
g59
NtRp2614
(dp2615
g62
(dp2616
g70
I5
ssg71
g2610
sg64
(lp2617
S'None'
p2618
asbasbasbag57
(g73
g59
NtRp2619
(dp2620
g62
(dp2621
sg71
g67
sg64
(lp2622
g57
(g78
g59
NtRp2623
(dp2624
g62
(dp2625
g82
g83
ssg71
g2619
sg64
(lp2626
S'url'
p2627
asbag57
(g78
g59
NtRp2628
(dp2629
g62
(dp2630
g89
g90
ssg71
g2619
sg64
(lp2631
S':'
asbag57
(g78
g59
NtRp2632
(dp2633
g62
(dp2634
sg71
g2619
sg64
(lp2635
g57
(g58
g59
NtRp2636
(dp2637
g62
(dp2638
g70
I5
ssg71
g2632
sg64
(lp2639
g1236
asbasbasbag57
(g73
g59
NtRp2640
(dp2641
g62
(dp2642
sg71
g67
sg64
(lp2643
g57
(g78
g59
NtRp2644
(dp2645
g62
(dp2646
g82
g83
ssg71
g2640
sg64
(lp2647
S'utcnow'
p2648
asbag57
(g78
g59
NtRp2649
(dp2650
g62
(dp2651
g89
g90
ssg71
g2640
sg64
(lp2652
S':'
asbag57
(g78
g59
NtRp2653
(dp2654
g62
(dp2655
sg71
g2640
sg64
(lp2656
g57
(g58
g59
NtRp2657
(dp2658
g62
(dp2659
g70
I5
ssg71
g2653
sg64
(lp2660
S'datetime.datetime(2013, 1, 4, 19, 56, 9, 889124)'
p2661
asbasbasbag57
(g73
g59
NtRp2662
(dp2663
g62
(dp2664
sg71
g67
sg64
(lp2665
g57
(g78
g59
NtRp2666
(dp2667
g62
(dp2668
g82
g83
ssg71
g2662
sg64
(lp2669
S'uuid'
p2670
asbag57
(g78
g59
NtRp2671
(dp2672
g62
(dp2673
g89
g90
ssg71
g2662
sg64
(lp2674
S':'
asbag57
(g78
g59
NtRp2675
(dp2676
g62
(dp2677
sg71
g2662
sg64
(lp2678
g57
(g58
g59
NtRp2679
(dp2680
g62
(dp2681
g70
I5
ssg71
g2675
sg64
(lp2682
S'sueldos/127.0.0.1.2013-01-04.16-56-09.66629bca-b0d1-4d99-944d-5924649aaa95'
p2683
asbasbasbag57
(g73
g59
NtRp2684
(dp2685
g62
(dp2686
sg71
g67
sg64
(lp2687
g57
(g78
g59
NtRp2688
(dp2689
g62
(dp2690
g82
g83
ssg71
g2684
sg64
(lp2691
S'vars'
p2692
asbag57
(g78
g59
NtRp2693
(dp2694
g62
(dp2695
g89
g90
ssg71
g2684
sg64
(lp2696
S':'
asbag57
(g78
g59
NtRp2697
(dp2698
g62
(dp2699
sg71
g2684
sg64
(lp2700
g57
(g58
g59
NtRp2701
(dp2702
g62
(dp2703
g70
I5
ssg71
g2697
sg64
(lp2704
g57
(g66
g59
NtRp2705
(dp2706
g62
(dp2707
g70
I4
ssg71
Nsg64
(lp2708
g57
(g73
g59
NtRp2709
(dp2710
g62
(dp2711
sg71
g2705
sg64
(lp2712
g57
(g78
g59
NtRp2713
(dp2714
g62
(dp2715
g82
g83
ssg71
g2709
sg64
(lp2716
g2352
asbag57
(g78
g59
NtRp2717
(dp2718
g62
(dp2719
g89
g90
ssg71
g2709
sg64
(lp2720
S':'
asbag57
(g78
g59
NtRp2721
(dp2722
g62
(dp2723
sg71
g2709
sg64
(lp2724
g57
(g58
g59
NtRp2725
(dp2726
g62
(dp2727
g70
I4
ssg71
g2721
sg64
(lp2728
S''
asbasbasbag57
(g73
g59
NtRp2729
(dp2730
g62
(dp2731
sg71
g2705
sg64
(lp2732
g57
(g78
g59
NtRp2733
(dp2734
g62
(dp2735
g82
g83
ssg71
g2729
sg64
(lp2736
g2373
asbag57
(g78
g59
NtRp2737
(dp2738
g62
(dp2739
g89
g90
ssg71
g2729
sg64
(lp2740
S':'
asbag57
(g78
g59
NtRp2741
(dp2742
g62
(dp2743
sg71
g2729
sg64
(lp2744
g57
(g58
g59
NtRp2745
(dp2746
g62
(dp2747
g70
I4
ssg71
g2741
sg64
(lp2748
S''
asbasbasbag57
(g73
g59
NtRp2749
(dp2750
g62
(dp2751
sg71
g2705
sg64
(lp2752
g57
(g78
g59
NtRp2753
(dp2754
g62
(dp2755
g82
g83
ssg71
g2749
sg64
(lp2756
g2394
asbag57
(g78
g59
NtRp2757
(dp2758
g62
(dp2759
g89
g90
ssg71
g2749
sg64
(lp2760
S':'
asbag57
(g78
g59
NtRp2761
(dp2762
g62
(dp2763
sg71
g2749
sg64
(lp2764
g57
(g58
g59
NtRp2765
(dp2766
g62
(dp2767
g70
I4
ssg71
g2761
sg64
(lp2768
S''
asbasbasbag57
(g73
g59
NtRp2769
(dp2770
g62
(dp2771
sg71
g2705
sg64
(lp2772
g57
(g78
g59
NtRp2773
(dp2774
g62
(dp2775
g82
g83
ssg71
g2769
sg64
(lp2776
g2415
asbag57
(g78
g59
NtRp2777
(dp2778
g62
(dp2779
g89
g90
ssg71
g2769
sg64
(lp2780
S':'
asbag57
(g78
g59
NtRp2781
(dp2782
g62
(dp2783
sg71
g2769
sg64
(lp2784
g57
(g58
g59
NtRp2785
(dp2786
g62
(dp2787
g70
I4
ssg71
g2781
sg64
(lp2788
g2428
asbasbasbag57
(g73
g59
NtRp2789
(dp2790
g62
(dp2791
sg71
g2705
sg64
(lp2792
g57
(g78
g59
NtRp2793
(dp2794
g62
(dp2795
g82
g83
ssg71
g2789
sg64
(lp2796
g2437
asbag57
(g78
g59
NtRp2797
(dp2798
g62
(dp2799
g89
g90
ssg71
g2789
sg64
(lp2800
S':'
asbag57
(g78
g59
NtRp2801
(dp2802
g62
(dp2803
sg71
g2789
sg64
(lp2804
g57
(g58
g59
NtRp2805
(dp2806
g62
(dp2807
g70
I4
ssg71
g2801
sg64
(lp2808
S''
asbasbasbag57
(g73
g59
NtRp2809
(dp2810
g62
(dp2811
sg71
g2705
sg64
(lp2812
g57
(g78
g59
NtRp2813
(dp2814
g62
(dp2815
g82
g83
ssg71
g2809
sg64
(lp2816
g2458
asbag57
(g78
g59
NtRp2817
(dp2818
g62
(dp2819
g89
g90
ssg71
g2809
sg64
(lp2820
S':'
asbag57
(g78
g59
NtRp2821
(dp2822
g62
(dp2823
sg71
g2809
sg64
(lp2824
g57
(g58
g59
NtRp2825
(dp2826
g62
(dp2827
g70
I4
ssg71
g2821
sg64
(lp2828
S''
asbasbasbag57
(g73
g59
NtRp2829
(dp2830
g62
(dp2831
sg71
g2705
sg64
(lp2832
g57
(g78
g59
NtRp2833
(dp2834
g62
(dp2835
g82
g83
ssg71
g2829
sg64
(lp2836
g2479
asbag57
(g78
g59
NtRp2837
(dp2838
g62
(dp2839
g89
g90
ssg71
g2829
sg64
(lp2840
S':'
asbag57
(g78
g59
NtRp2841
(dp2842
g62
(dp2843
sg71
g2829
sg64
(lp2844
g57
(g58
g59
NtRp2845
(dp2846
g62
(dp2847
g70
I4
ssg71
g2841
sg64
(lp2848
S''
asbasbasbag57
(g73
g59
NtRp2849
(dp2850
g62
(dp2851
sg71
g2705
sg64
(lp2852
g57
(g78
g59
NtRp2853
(dp2854
g62
(dp2855
g82
g83
ssg71
g2849
sg64
(lp2856
g2500
asbag57
(g78
g59
NtRp2857
(dp2858
g62
(dp2859
g89
g90
ssg71
g2849
sg64
(lp2860
S':'
asbag57
(g78
g59
NtRp2861
(dp2862
g62
(dp2863
sg71
g2849
sg64
(lp2864
g57
(g58
g59
NtRp2865
(dp2866
g62
(dp2867
g70
I4
ssg71
g2861
sg64
(lp2868
S''
asbasbasbag57
(g73
g59
NtRp2869
(dp2870
g62
(dp2871
sg71
g2705
sg64
(lp2872
g57
(g78
g59
NtRp2873
(dp2874
g62
(dp2875
g82
g83
ssg71
g2869
sg64
(lp2876
g2521
asbag57
(g78
g59
NtRp2877
(dp2878
g62
(dp2879
g89
g90
ssg71
g2869
sg64
(lp2880
S':'
asbag57
(g78
g59
NtRp2881
(dp2882
g62
(dp2883
sg71
g2869
sg64
(lp2884
g57
(g58
g59
NtRp2885
(dp2886
g62
(dp2887
g70
I4
ssg71
g2881
sg64
(lp2888
S''
asbasbasbag57
(g73
g59
NtRp2889
(dp2890
g62
(dp2891
sg71
g2705
sg64
(lp2892
g57
(g78
g59
NtRp2893
(dp2894
g62
(dp2895
g82
g83
ssg71
g2889
sg64
(lp2896
g2542
asbag57
(g78
g59
NtRp2897
(dp2898
g62
(dp2899
g89
g90
ssg71
g2889
sg64
(lp2900
S':'
asbag57
(g78
g59
NtRp2901
(dp2902
g62
(dp2903
sg71
g2889
sg64
(lp2904
g57
(g58
g59
NtRp2905
(dp2906
g62
(dp2907
g70
I4
ssg71
g2901
sg64
(lp2908
S''
asbasbasbag57
(g73
g59
NtRp2909
(dp2910
g62
(dp2911
sg71
g2705
sg64
(lp2912
g57
(g78
g59
NtRp2913
(dp2914
g62
(dp2915
g82
g83
ssg71
g2909
sg64
(lp2916
g2563
asbag57
(g78
g59
NtRp2917
(dp2918
g62
(dp2919
g89
g90
ssg71
g2909
sg64
(lp2920
S':'
asbag57
(g78
g59
NtRp2921
(dp2922
g62
(dp2923
sg71
g2909
sg64
(lp2924
g57
(g58
g59
NtRp2925
(dp2926
g62
(dp2927
g70
I4
ssg71
g2921
sg64
(lp2928
S''
asbasbasbasbasbasbasbag57
(g73
g59
NtRp2929
(dp2930
g62
(dp2931
sg71
g67
sg64
(lp2932
g57
(g78
g59
NtRp2933
(dp2934
g62
(dp2935
g82
g83
ssg71
g2929
sg64
(lp2936
S'wsgi'
p2937
asbag57
(g78
g59
NtRp2938
(dp2939
g62
(dp2940
g89
g90
ssg71
g2929
sg64
(lp2941
S':'
asbag57
(g78
g59
NtRp2942
(dp2943
g62
(dp2944
sg71
g2929
sg64
(lp2945
g57
(g58
g59
NtRp2946
(dp2947
g62
(dp2948
g70
I5
ssg71
g2942
sg64
(lp2949
g57
(g66
g59
NtRp2950
(dp2951
g62
(dp2952
g70
I4
ssg71
Nsg64
(lp2953
g57
(g73
g59
NtRp2954
(dp2955
g62
(dp2956
sg71
g2950
sg64
(lp2957
g57
(g78
g59
NtRp2958
(dp2959
g62
(dp2960
g82
g83
ssg71
g2954
sg64
(lp2961
S'environ'
p2962
asbag57
(g78
g59
NtRp2963
(dp2964
g62
(dp2965
g89
g90
ssg71
g2954
sg64
(lp2966
S':'
asbag57
(g78
g59
NtRp2967
(dp2968
g62
(dp2969
sg71
g2954
sg64
(lp2970
g57
(g58
g59
NtRp2971
(dp2972
g62
(dp2973
g70
I4
ssg71
g2967
sg64
(lp2974
g57
(g66
g59
NtRp2975
(dp2976
g62
(dp2977
g70
I3
ssg71
Nsg64
(lp2978
g57
(g73
g59
NtRp2979
(dp2980
g62
(dp2981
sg71
g2975
sg64
(lp2982
g57
(g78
g59
NtRp2983
(dp2984
g62
(dp2985
g82
g83
ssg71
g2979
sg64
(lp2986
S'CONTENT_LENGTH'
p2987
asbag57
(g78
g59
NtRp2988
(dp2989
g62
(dp2990
g89
g90
ssg71
g2979
sg64
(lp2991
S':'
asbag57
(g78
g59
NtRp2992
(dp2993
g62
(dp2994
sg71
g2979
sg64
(lp2995
g57
(g58
g59
NtRp2996
(dp2997
g62
(dp2998
g70
I3
ssg71
g2992
sg64
(lp2999
g777
asbasbasbag57
(g73
g59
NtRp3000
(dp3001
g62
(dp3002
sg71
g2975
sg64
(lp3003
g57
(g78
g59
NtRp3004
(dp3005
g62
(dp3006
g82
g83
ssg71
g3000
sg64
(lp3007
S'CONTENT_TYPE'
p3008
asbag57
(g78
g59
NtRp3009
(dp3010
g62
(dp3011
g89
g90
ssg71
g3000
sg64
(lp3012
S':'
asbag57
(g78
g59
NtRp3013
(dp3014
g62
(dp3015
sg71
g3000
sg64
(lp3016
g57
(g58
g59
NtRp3017
(dp3018
g62
(dp3019
g70
I3
ssg71
g3013
sg64
(lp3020
g799
asbasbasbag57
(g73
g59
NtRp3021
(dp3022
g62
(dp3023
sg71
g2975
sg64
(lp3024
g57
(g78
g59
NtRp3025
(dp3026
g62
(dp3027
g82
g83
ssg71
g3021
sg64
(lp3028
S'HTTP_ACCEPT'
p3029
asbag57
(g78
g59
NtRp3030
(dp3031
g62
(dp3032
g89
g90
ssg71
g3021
sg64
(lp3033
S':'
asbag57
(g78
g59
NtRp3034
(dp3035
g62
(dp3036
sg71
g3021
sg64
(lp3037
g57
(g58
g59
NtRp3038
(dp3039
g62
(dp3040
g70
I3
ssg71
g3034
sg64
(lp3041
g886
asbasbasbag57
(g73
g59
NtRp3042
(dp3043
g62
(dp3044
sg71
g2975
sg64
(lp3045
g57
(g78
g59
NtRp3046
(dp3047
g62
(dp3048
g82
g83
ssg71
g3042
sg64
(lp3049
S'HTTP_ACCEPT_ENCODING'
p3050
asbag57
(g78
g59
NtRp3051
(dp3052
g62
(dp3053
g89
g90
ssg71
g3042
sg64
(lp3054
S':'
asbag57
(g78
g59
NtRp3055
(dp3056
g62
(dp3057
sg71
g3042
sg64
(lp3058
g57
(g58
g59
NtRp3059
(dp3060
g62
(dp3061
g70
I3
ssg71
g3055
sg64
(lp3062
g908
asbasbasbag57
(g73
g59
NtRp3063
(dp3064
g62
(dp3065
sg71
g2975
sg64
(lp3066
g57
(g78
g59
NtRp3067
(dp3068
g62
(dp3069
g82
g83
ssg71
g3063
sg64
(lp3070
S'HTTP_ACCEPT_LANGUAGE'
p3071
asbag57
(g78
g59
NtRp3072
(dp3073
g62
(dp3074
g89
g90
ssg71
g3063
sg64
(lp3075
S':'
asbag57
(g78
g59
NtRp3076
(dp3077
g62
(dp3078
sg71
g3063
sg64
(lp3079
g57
(g58
g59
NtRp3080
(dp3081
g62
(dp3082
g70
I3
ssg71
g3076
sg64
(lp3083
g930
asbasbasbag57
(g73
g59
NtRp3084
(dp3085
g62
(dp3086
sg71
g2975
sg64
(lp3087
g57
(g78
g59
NtRp3088
(dp3089
g62
(dp3090
g82
g83
ssg71
g3084
sg64
(lp3091
S'HTTP_CONNECTION'
p3092
asbag57
(g78
g59
NtRp3093
(dp3094
g62
(dp3095
g89
g90
ssg71
g3084
sg64
(lp3096
S':'
asbag57
(g78
g59
NtRp3097
(dp3098
g62
(dp3099
sg71
g3084
sg64
(lp3100
g57
(g58
g59
NtRp3101
(dp3102
g62
(dp3103
g70
I3
ssg71
g3097
sg64
(lp3104
g952
asbasbasbag57
(g73
g59
NtRp3105
(dp3106
g62
(dp3107
sg71
g2975
sg64
(lp3108
g57
(g78
g59
NtRp3109
(dp3110
g62
(dp3111
g82
g83
ssg71
g3105
sg64
(lp3112
S'HTTP_CONTENT_LENGTH'
p3113
asbag57
(g78
g59
NtRp3114
(dp3115
g62
(dp3116
g89
g90
ssg71
g3105
sg64
(lp3117
S':'
asbag57
(g78
g59
NtRp3118
(dp3119
g62
(dp3120
sg71
g3105
sg64
(lp3121
g57
(g58
g59
NtRp3122
(dp3123
g62
(dp3124
g70
I3
ssg71
g3118
sg64
(lp3125
g777
asbasbasbag57
(g73
g59
NtRp3126
(dp3127
g62
(dp3128
sg71
g2975
sg64
(lp3129
g57
(g78
g59
NtRp3130
(dp3131
g62
(dp3132
g82
g83
ssg71
g3126
sg64
(lp3133
S'HTTP_CONTENT_TYPE'
p3134
asbag57
(g78
g59
NtRp3135
(dp3136
g62
(dp3137
g89
g90
ssg71
g3126
sg64
(lp3138
S':'
asbag57
(g78
g59
NtRp3139
(dp3140
g62
(dp3141
sg71
g3126
sg64
(lp3142
g57
(g58
g59
NtRp3143
(dp3144
g62
(dp3145
g70
I3
ssg71
g3139
sg64
(lp3146
g799
asbasbasbag57
(g73
g59
NtRp3147
(dp3148
g62
(dp3149
sg71
g2975
sg64
(lp3150
g57
(g78
g59
NtRp3151
(dp3152
g62
(dp3153
g82
g83
ssg71
g3147
sg64
(lp3154
S'HTTP_COOKIE'
p3155
asbag57
(g78
g59
NtRp3156
(dp3157
g62
(dp3158
g89
g90
ssg71
g3147
sg64
(lp3159
S':'
asbag57
(g78
g59
NtRp3160
(dp3161
g62
(dp3162
sg71
g3147
sg64
(lp3163
g57
(g58
g59
NtRp3164
(dp3165
g62
(dp3166
g70
I3
ssg71
g3160
sg64
(lp3167
g1016
asbasbasbag57
(g73
g59
NtRp3168
(dp3169
g62
(dp3170
sg71
g2975
sg64
(lp3171
g57
(g78
g59
NtRp3172
(dp3173
g62
(dp3174
g82
g83
ssg71
g3168
sg64
(lp3175
S'HTTP_HOST'
p3176
asbag57
(g78
g59
NtRp3177
(dp3178
g62
(dp3179
g89
g90
ssg71
g3168
sg64
(lp3180
S':'
asbag57
(g78
g59
NtRp3181
(dp3182
g62
(dp3183
sg71
g3168
sg64
(lp3184
g57
(g58
g59
NtRp3185
(dp3186
g62
(dp3187
g70
I3
ssg71
g3181
sg64
(lp3188
g1038
asbasbasbag57
(g73
g59
NtRp3189
(dp3190
g62
(dp3191
sg71
g2975
sg64
(lp3192
g57
(g78
g59
NtRp3193
(dp3194
g62
(dp3195
g82
g83
ssg71
g3189
sg64
(lp3196
S'HTTP_REFERER'
p3197
asbag57
(g78
g59
NtRp3198
(dp3199
g62
(dp3200
g89
g90
ssg71
g3189
sg64
(lp3201
S':'
asbag57
(g78
g59
NtRp3202
(dp3203
g62
(dp3204
sg71
g3189
sg64
(lp3205
g57
(g58
g59
NtRp3206
(dp3207
g62
(dp3208
g70
I3
ssg71
g3202
sg64
(lp3209
g1060
asbasbasbag57
(g73
g59
NtRp3210
(dp3211
g62
(dp3212
sg71
g2975
sg64
(lp3213
g57
(g78
g59
NtRp3214
(dp3215
g62
(dp3216
g82
g83
ssg71
g3210
sg64
(lp3217
S'HTTP_USER_AGENT'
p3218
asbag57
(g78
g59
NtRp3219
(dp3220
g62
(dp3221
g89
g90
ssg71
g3210
sg64
(lp3222
S':'
asbag57
(g78
g59
NtRp3223
(dp3224
g62
(dp3225
sg71
g3210
sg64
(lp3226
g57
(g58
g59
NtRp3227
(dp3228
g62
(dp3229
g70
I3
ssg71
g3223
sg64
(lp3230
g1082
asbasbasbag57
(g73
g59
NtRp3231
(dp3232
g62
(dp3233
sg71
g2975
sg64
(lp3234
g57
(g78
g59
NtRp3235
(dp3236
g62
(dp3237
g82
g83
ssg71
g3231
sg64
(lp3238
S'PATH_INFO'
p3239
asbag57
(g78
g59
NtRp3240
(dp3241
g62
(dp3242
g89
g90
ssg71
g3231
sg64
(lp3243
S':'
asbag57
(g78
g59
NtRp3244
(dp3245
g62
(dp3246
sg71
g3231
sg64
(lp3247
g57
(g58
g59
NtRp3248
(dp3249
g62
(dp3250
g70
I3
ssg71
g3244
sg64
(lp3251
g1236
asbasbasbag57
(g73
g59
NtRp3252
(dp3253
g62
(dp3254
sg71
g2975
sg64
(lp3255
g57
(g78
g59
NtRp3256
(dp3257
g62
(dp3258
g82
g83
ssg71
g3252
sg64
(lp3259
S'QUERY_STRING'
p3260
asbag57
(g78
g59
NtRp3261
(dp3262
g62
(dp3263
g89
g90
ssg71
g3252
sg64
(lp3264
S':'
asbag57
(g78
g59
NtRp3265
(dp3266
g62
(dp3267
sg71
g3252
sg64
(lp3268
g57
(g58
g59
NtRp3269
(dp3270
g62
(dp3271
g70
I3
ssg71
g3265
sg64
(lp3272
S''
asbasbasbag57
(g73
g59
NtRp3273
(dp3274
g62
(dp3275
sg71
g2975
sg64
(lp3276
g57
(g78
g59
NtRp3277
(dp3278
g62
(dp3279
g82
g83
ssg71
g3273
sg64
(lp3280
S'REMOTE_ADDR'
p3281
asbag57
(g78
g59
NtRp3282
(dp3283
g62
(dp3284
g89
g90
ssg71
g3273
sg64
(lp3285
S':'
asbag57
(g78
g59
NtRp3286
(dp3287
g62
(dp3288
sg71
g3273
sg64
(lp3289
g57
(g58
g59
NtRp3290
(dp3291
g62
(dp3292
g70
I3
ssg71
g3286
sg64
(lp3293
g212
asbasbasbag57
(g73
g59
NtRp3294
(dp3295
g62
(dp3296
sg71
g2975
sg64
(lp3297
g57
(g78
g59
NtRp3298
(dp3299
g62
(dp3300
g82
g83
ssg71
g3294
sg64
(lp3301
S'REMOTE_PORT'
p3302
asbag57
(g78
g59
NtRp3303
(dp3304
g62
(dp3305
g89
g90
ssg71
g3294
sg64
(lp3306
S':'
asbag57
(g78
g59
NtRp3307
(dp3308
g62
(dp3309
sg71
g3294
sg64
(lp3310
g57
(g58
g59
NtRp3311
(dp3312
g62
(dp3313
g70
I3
ssg71
g3307
sg64
(lp3314
g1300
asbasbasbag57
(g73
g59
NtRp3315
(dp3316
g62
(dp3317
sg71
g2975
sg64
(lp3318
g57
(g78
g59
NtRp3319
(dp3320
g62
(dp3321
g82
g83
ssg71
g3315
sg64
(lp3322
S'REQUEST_METHOD'
p3323
asbag57
(g78
g59
NtRp3324
(dp3325
g62
(dp3326
g89
g90
ssg71
g3315
sg64
(lp3327
S':'
asbag57
(g78
g59
NtRp3328
(dp3329
g62
(dp3330
sg71
g3315
sg64
(lp3331
g57
(g58
g59
NtRp3332
(dp3333
g62
(dp3334
g70
I3
ssg71
g3328
sg64
(lp3335
g1322
asbasbasbag57
(g73
g59
NtRp3336
(dp3337
g62
(dp3338
sg71
g2975
sg64
(lp3339
g57
(g78
g59
NtRp3340
(dp3341
g62
(dp3342
g82
g83
ssg71
g3336
sg64
(lp3343
S'REQUEST_URI'
p3344
asbag57
(g78
g59
NtRp3345
(dp3346
g62
(dp3347
g89
g90
ssg71
g3336
sg64
(lp3348
S':'
asbag57
(g78
g59
NtRp3349
(dp3350
g62
(dp3351
sg71
g3336
sg64
(lp3352
g57
(g58
g59
NtRp3353
(dp3354
g62
(dp3355
g70
I3
ssg71
g3349
sg64
(lp3356
g1236
asbasbasbag57
(g73
g59
NtRp3357
(dp3358
g62
(dp3359
sg71
g2975
sg64
(lp3360
g57
(g78
g59
NtRp3361
(dp3362
g62
(dp3363
g82
g83
ssg71
g3357
sg64
(lp3364
S'SCRIPT_NAME'
p3365
asbag57
(g78
g59
NtRp3366
(dp3367
g62
(dp3368
g89
g90
ssg71
g3357
sg64
(lp3369
S':'
asbag57
(g78
g59
NtRp3370
(dp3371
g62
(dp3372
sg71
g3357
sg64
(lp3373
g57
(g58
g59
NtRp3374
(dp3375
g62
(dp3376
g70
I3
ssg71
g3370
sg64
(lp3377
S''
asbasbasbag57
(g73
g59
NtRp3378
(dp3379
g62
(dp3380
sg71
g2975
sg64
(lp3381
g57
(g78
g59
NtRp3382
(dp3383
g62
(dp3384
g82
g83
ssg71
g3378
sg64
(lp3385
S'SERVER_NAME'
p3386
asbag57
(g78
g59
NtRp3387
(dp3388
g62
(dp3389
g89
g90
ssg71
g3378
sg64
(lp3390
S':'
asbag57
(g78
g59
NtRp3391
(dp3392
g62
(dp3393
sg71
g3378
sg64
(lp3394
g57
(g58
g59
NtRp3395
(dp3396
g62
(dp3397
g70
I3
ssg71
g3391
sg64
(lp3398
g1386
asbasbasbag57
(g73
g59
NtRp3399
(dp3400
g62
(dp3401
sg71
g2975
sg64
(lp3402
g57
(g78
g59
NtRp3403
(dp3404
g62
(dp3405
g82
g83
ssg71
g3399
sg64
(lp3406
S'SERVER_PORT'
p3407
asbag57
(g78
g59
NtRp3408
(dp3409
g62
(dp3410
g89
g90
ssg71
g3399
sg64
(lp3411
S':'
asbag57
(g78
g59
NtRp3412
(dp3413
g62
(dp3414
sg71
g3399
sg64
(lp3415
g57
(g58
g59
NtRp3416
(dp3417
g62
(dp3418
g70
I3
ssg71
g3412
sg64
(lp3419
g1408
asbasbasbag57
(g73
g59
NtRp3420
(dp3421
g62
(dp3422
sg71
g2975
sg64
(lp3423
g57
(g78
g59
NtRp3424
(dp3425
g62
(dp3426
g82
g83
ssg71
g3420
sg64
(lp3427
S'SERVER_PROTOCOL'
p3428
asbag57
(g78
g59
NtRp3429
(dp3430
g62
(dp3431
g89
g90
ssg71
g3420
sg64
(lp3432
S':'
asbag57
(g78
g59
NtRp3433
(dp3434
g62
(dp3435
sg71
g3420
sg64
(lp3436
g57
(g58
g59
NtRp3437
(dp3438
g62
(dp3439
g70
I3
ssg71
g3433
sg64
(lp3440
g1430
asbasbasbag57
(g73
g59
NtRp3441
(dp3442
g62
(dp3443
sg71
g2975
sg64
(lp3444
g57
(g78
g59
NtRp3445
(dp3446
g62
(dp3447
g82
g83
ssg71
g3441
sg64
(lp3448
S'SERVER_SOFTWARE'
p3449
asbag57
(g78
g59
NtRp3450
(dp3451
g62
(dp3452
g89
g90
ssg71
g3441
sg64
(lp3453
S':'
asbag57
(g78
g59
NtRp3454
(dp3455
g62
(dp3456
sg71
g3441
sg64
(lp3457
g57
(g58
g59
NtRp3458
(dp3459
g62
(dp3460
g70
I3
ssg71
g3454
sg64
(lp3461
g1452
asbasbasbag57
(g73
g59
NtRp3462
(dp3463
g62
(dp3464
sg71
g2975
sg64
(lp3465
g57
(g78
g59
NtRp3466
(dp3467
g62
(dp3468
g82
g83
ssg71
g3462
sg64
(lp3469
S'wsgi.errors'
p3470
asbag57
(g78
g59
NtRp3471
(dp3472
g62
(dp3473
g89
g90
ssg71
g3462
sg64
(lp3474
S':'
asbag57
(g78
g59
NtRp3475
(dp3476
g62
(dp3477
sg71
g3462
sg64
(lp3478
g57
(g58
g59
NtRp3479
(dp3480
g62
(dp3481
g70
I3
ssg71
g3475
sg64
(lp3482
S"<open file '<stderr>', mode 'w' at 0x7f194ac80270>"
p3483
asbasbasbag57
(g73
g59
NtRp3484
(dp3485
g62
(dp3486
sg71
g2975
sg64
(lp3487
g57
(g78
g59
NtRp3488
(dp3489
g62
(dp3490
g82
g83
ssg71
g3484
sg64
(lp3491
S'wsgi.file_wrapper'
p3492
asbag57
(g78
g59
NtRp3493
(dp3494
g62
(dp3495
g89
g90
ssg71
g3484
sg64
(lp3496
S':'
asbag57
(g78
g59
NtRp3497
(dp3498
g62
(dp3499
sg71
g3484
sg64
(lp3500
g57
(g58
g59
NtRp3501
(dp3502
g62
(dp3503
g70
I3
ssg71
g3497
sg64
(lp3504
S'<class wsgiref.util.FileWrapper at 0x2fbfc80>'
p3505
asbasbasbag57
(g73
g59
NtRp3506
(dp3507
g62
(dp3508
sg71
g2975
sg64
(lp3509
g57
(g78
g59
NtRp3510
(dp3511
g62
(dp3512
g82
g83
ssg71
g3506
sg64
(lp3513
S'wsgi.input'
p3514
asbag57
(g78
g59
NtRp3515
(dp3516
g62
(dp3517
g89
g90
ssg71
g3506
sg64
(lp3518
S':'
asbag57
(g78
g59
NtRp3519
(dp3520
g62
(dp3521
sg71
g3506
sg64
(lp3522
g57
(g58
g59
NtRp3523
(dp3524
g62
(dp3525
g70
I3
ssg71
g3519
sg64
(lp3526
S"<open file '<fdopen>', mode 'w+b' at 0x3a0cae0>"
p3527
asbasbasbag57
(g73
g59
NtRp3528
(dp3529
g62
(dp3530
sg71
g2975
sg64
(lp3531
g57
(g78
g59
NtRp3532
(dp3533
g62
(dp3534
g82
g83
ssg71
g3528
sg64
(lp3535
S'wsgi.multiprocess'
p3536
asbag57
(g78
g59
NtRp3537
(dp3538
g62
(dp3539
g89
g90
ssg71
g3528
sg64
(lp3540
S':'
asbag57
(g78
g59
NtRp3541
(dp3542
g62
(dp3543
sg71
g3528
sg64
(lp3544
g57
(g58
g59
NtRp3545
(dp3546
g62
(dp3547
g70
I3
ssg71
g3541
sg64
(lp3548
g100
asbasbasbag57
(g73
g59
NtRp3549
(dp3550
g62
(dp3551
sg71
g2975
sg64
(lp3552
g57
(g78
g59
NtRp3553
(dp3554
g62
(dp3555
g82
g83
ssg71
g3549
sg64
(lp3556
S'wsgi.multithread'
p3557
asbag57
(g78
g59
NtRp3558
(dp3559
g62
(dp3560
g89
g90
ssg71
g3549
sg64
(lp3561
S':'
asbag57
(g78
g59
NtRp3562
(dp3563
g62
(dp3564
sg71
g3549
sg64
(lp3565
g57
(g58
g59
NtRp3566
(dp3567
g62
(dp3568
g70
I3
ssg71
g3562
sg64
(lp3569
g1669
asbasbasbag57
(g73
g59
NtRp3570
(dp3571
g62
(dp3572
sg71
g2975
sg64
(lp3573
g57
(g78
g59
NtRp3574
(dp3575
g62
(dp3576
g82
g83
ssg71
g3570
sg64
(lp3577
S'wsgi.run_once'
p3578
asbag57
(g78
g59
NtRp3579
(dp3580
g62
(dp3581
g89
g90
ssg71
g3570
sg64
(lp3582
S':'
asbag57
(g78
g59
NtRp3583
(dp3584
g62
(dp3585
sg71
g3570
sg64
(lp3586
g57
(g58
g59
NtRp3587
(dp3588
g62
(dp3589
g70
I3
ssg71
g3583
sg64
(lp3590
g100
asbasbasbag57
(g73
g59
NtRp3591
(dp3592
g62
(dp3593
sg71
g2975
sg64
(lp3594
g57
(g78
g59
NtRp3595
(dp3596
g62
(dp3597
g82
g83
ssg71
g3591
sg64
(lp3598
S'wsgi.url_scheme'
p3599
asbag57
(g78
g59
NtRp3600
(dp3601
g62
(dp3602
g89
g90
ssg71
g3591
sg64
(lp3603
S':'
asbag57
(g78
g59
NtRp3604
(dp3605
g62
(dp3606
sg71
g3591
sg64
(lp3607
g57
(g58
g59
NtRp3608
(dp3609
g62
(dp3610
g70
I3
ssg71
g3604
sg64
(lp3611
g1712
asbasbasbag57
(g73
g59
NtRp3612
(dp3613
g62
(dp3614
sg71
g2975
sg64
(lp3615
g57
(g78
g59
NtRp3616
(dp3617
g62
(dp3618
g82
g83
ssg71
g3612
sg64
(lp3619
S'wsgi.version'
p3620
asbag57
(g78
g59
NtRp3621
(dp3622
g62
(dp3623
g89
g90
ssg71
g3612
sg64
(lp3624
S':'
asbag57
(g78
g59
NtRp3625
(dp3626
g62
(dp3627
sg71
g3612
sg64
(lp3628
g57
(g58
g59
NtRp3629
(dp3630
g62
(dp3631
g70
I3
ssg71
g3625
sg64
(lp3632
S'1'
asbasbasbasbasbasbasbasbasbasbasbasbasbsS'frames'
p3633
(lp3634
(dp3635
S'file'
p3636
S'/home/marco/projects/contabilidad/web2py/gluon/restricted.py'
p3637
sS'dump'
p3638
(dp3639
S'environment'
p3640
S"{'A': <class 'gluon.html.A'>, 'Auth': <class 'gluon.tools.Auth'>, 'B': <class 'gluon.html.B'>, 'BEAUTIFY': <class 'gluon.html.BEAUTIFY'>, 'BODY': <class 'gluon.html.BODY'>, 'BR': <class 'gluon.html.BR'>, 'BUTTON': <class 'gluon.html.BUTTON'>, 'CAT': <class 'gluon.html.CAT'>, 'CENTER': <class 'gluon.html.CENTER'>, 'CLEANUP': <class 'gluon.validators.CLEANUP'>, ...}"
p3641
sS'ccode'
p3642
S'<code object <module> at 0x44eb5b0, file "/home/...plications/sueldos/controllers/altas.py", line 3>'
p3643
ssS'lnum'
p3644
I212
sS'lines'
p3645
(dp3646
I207
S'    try:'
p3647
sI208
S'        if isinstance(code, types.CodeType):'
p3648
sI209
S'            ccode = code'
p3649
sI210
S'        else:'
p3650
sI211
S'            ccode = compile2(code, layer)'
p3651
sI212
S'        exec ccode in environment'
p3652
sI213
S'    except HTTP:'
p3653
sI214
S'        raise'
p3654
sI215
S'    except RestrictedError:'
p3655
sI216
S'        # do not encapsulate (obfuscate) the original RestrictedError'
p3656
ssS'call'
p3657
S"(code='#-*- coding: utf-8 -*-\\n\\ndef empleadores():\\n    f...orm)\\n\\nresponse._vars=response._caller(empleados)\\n', environment={'A': <class 'gluon.html.A'>, 'Auth': <class 'gluon.tools.Auth'>, 'B': <class 'gluon.html.B'>, 'BEAUTIFY': <class 'gluon.html.BEAUTIFY'>, 'BODY': <class 'gluon.html.BODY'>, 'BR': <class 'gluon.html.BR'>, 'BUTTON': <class 'gluon.html.BUTTON'>, 'CAT': <class 'gluon.html.CAT'>, 'CENTER': <class 'gluon.html.CENTER'>, 'CLEANUP': <class 'gluon.validators.CLEANUP'>, ...}, layer='/home/marco/projects/contabilidad/web2py/applications/sueldos/controllers/altas.py')"
p3658
sS'func'
p3659
S'restricted'
p3660
sa(dp3661
g3636
S'/home/marco/projects/contabilidad/web2py/applications/sueldos/controllers/altas.py'
p3662
sg3638
(dp3663
sg3644
I22
sg3645
(dp3664
I11
S'    form = SQLFORM(db.empleados)'
p3665
sI12
S''
sI13
S'    if form.process().accepted:'
p3666
sI14
S"        response.flash='El empleado a sido agregado'"
p3667
sI15
S'    elif form.errors:'
p3668
sI16
S"        response.flash='El formulario tiene errores'"
p3669
sI17
S'    else:'
p3670
sI18
S"        response.flash='Por favor complete los datos del empleado'"
p3671
sI19
S''
sI20
S'    return dict(form=form)'
p3672
ssg3657
S'()'
p3673
sg3659
S'<module>'
p3674
sa(dp3675
g3636
S'/home/marco/projects/contabilidad/web2py/gluon/globals.py'
p3676
sg3638
(dp3677
S'self'
p3678
S'undefined'
p3679
sS'f'
S'<function empleados>'
p3680
ssg3644
I193
sg3645
(dp3681
I192
S'        self._vars = None'
p3682
sI193
S'        self._caller = lambda f: f()'
p3683
sI194
S'        self._view_environment = None'
p3684
sI195
S'        self._custom_commit = None'
p3685
sI196
S'        self._custom_rollback = None'
p3686
sI197
S''
sI188
S'        self.menu = []             # used by the default view layout'
p3687
sI189
S'        self.files = []            # used by web2py_ajax.html'
p3688
sI190
S'        self.generic_patterns = []  # patterns to allow generic views'
p3689
sI191
S"        self.delimiters = ('{{', '}}')"
p3690
ssg3657
S'(f=<function empleados>)'
p3691
sg3659
S'<lambda>'
p3692
sa(dp3693
g3636
S'/home/marco/projects/contabilidad/web2py/applications/sueldos/controllers/altas.py'
p3694
sg3638
(dp3695
S'form.process'
p3696
S'<bound method SQLFORM.process of <gluon.sqlhtml.SQLFORM object>>'
p3697
sS').accepted'
p3698
g3679
sS'form'
p3699
S'<gluon.sqlhtml.SQLFORM object>'
p3700
ssg3644
I13
sg3645
(dp3701
I8
S''
sI9
S'def empleados():'
p3702
sI10
S''
sI11
S'    form = SQLFORM(db.empleados)'
p3703
sI12
S''
sI13
S'    if form.process().accepted:'
p3704
sI14
S"        response.flash='El empleado a sido agregado'"
p3705
sI15
S'    elif form.errors:'
p3706
sI16
S"        response.flash='El formulario tiene errores'"
p3707
sI17
S'    else:'
p3708
ssg3657
S'()'
p3709
sg3659
S'empleados'
p3710
sa(dp3711
g3636
S'/home/marco/projects/contabilidad/web2py/gluon/html.py'
p3712
sg3638
(dp3713
S'self'
p3714
S'<gluon.sqlhtml.SQLFORM object>'
p3715
sS'self.validate'
p3716
S'<bound method SQLFORM.validate of <gluon.sqlhtml.SQLFORM object>>'
p3717
sS'kwargs'
p3718
S"{'dbio': True}"
p3719
ssg3644
I2177
sg3645
(dp3720
I2176
S'                                    # necessary for SQLHTML forms'
p3721
sI2177
S'        self.validate(**kwargs)'
p3722
sI2178
S'        return self'
p3723
sI2179
S''
sI2180
S'    REDIRECT_JS = "window.location=\'%s\';return false"'
p3724
sI2181
S''
sI2172
S'        def action():'
p3725
sI2173
S'            return dict(form=SQLFORM(db.table).process(onsuccess=my_callback)'
p3726
sI2174
S'        """'
p3727
sI2175
S"        kwargs['dbio'] = kwargs.get('dbio', True)"
p3728
ssg3657
S"(self=<gluon.sqlhtml.SQLFORM object>, **kwargs={'dbio': True})"
p3729
sg3659
S'process'
p3730
sa(dp3731
g3636
S'/home/marco/projects/contabilidad/web2py/gluon/html.py'
p3732
sg3638
(dp3733
S'self'
p3734
S'<gluon.sqlhtml.SQLFORM object>'
p3735
sS'self.accepts'
p3736
S'<bound method SQLFORM.accepts of <gluon.sqlhtml.SQLFORM object>>'
p3737
sS'kwargs'
p3738
S"{'dbio': True, 'request_vars': <Storage {'apaterno': '', 'ecivil': '', 'ndoc': ...create', 'domicilio': '', 'cuil': 'skmsldmsdlk'}>, 'session': <Storage {'_user_agent': {'os': {'name': 'Linux'...ssion_hash': '354a7d27dcbeb03ba2a61127e5cb36d7'}>}"
p3739
ssg3644
I2116
sg3645
(dp3740
I2112
S"                    'onfailure', 'next', 'message_onchange', 'onchange'):"
p3741
sI2113
S'            if key in kwargs:'
p3742
sI2114
S'                del kwargs[key]'
p3743
sI2115
S''
sI2116
S'        if self.accepts(**kwargs):'
p3744
sI2117
S"            if onsuccess == 'flash':"
p3745
sI2118
S'                if next:'
p3746
sI2119
S'                    current.session.flash = message_onsuccess'
p3747
sI2120
S'                else:'
p3748
sI2111
S"        for key in ('message_onsuccess', 'message_onfailure', 'onsuccess',"
p3749
ssg3657
S"(self=<gluon.sqlhtml.SQLFORM object>, **kwargs={'dbio': True, 'request_vars': <Storage {'apaterno': '', 'ecivil': '', 'ndoc': ...create', 'domicilio': '', 'cuil': 'skmsldmsdlk'}>, 'session': <Storage {'_user_agent': {'os': {'name': 'Linux'...ssion_hash': '354a7d27dcbeb03ba2a61127e5cb36d7'}>})"
p3750
sg3659
S'validate'
p3751
sa(dp3752
g3636
S'/home/marco/projects/contabilidad/web2py/gluon/sqlhtml.py'
p3753
sg3638
(dp3754
S'kwargs'
p3755
g45
ssg3644
I1286
sg3645
(dp3756
I1281
S'            session,'
p3757
sI1282
S'            formname,'
p3758
sI1283
S'            keepvalues,'
p3759
sI1284
S'            onvalidation,'
p3760
sI1285
S'            hideerror=hideerror,'
p3761
sI1286
S'            **kwargs'
p3762
sI1287
S'        )'
p3763
sI1288
S''
sI1289
S'        self.deleted = \\'
p3764
sI1290
S'            request_vars.get(self.FIELDNAME_REQUEST_DELETE, False)'
p3765
ssg3657
S"(self=<gluon.sqlhtml.SQLFORM object>, request_vars=<Storage {'apaterno': '', 'ecivil': '', 'ndoc': ...create', 'domicilio': '', 'cuil': 'skmsldmsdlk'}>, session=<Storage {'_user_agent': {'os': {'name': 'Linux'...ssion_hash': '354a7d27dcbeb03ba2a61127e5cb36d7'}>, formname='empleados/create', keepvalues=False, onvalidation=None, dbio=True, hideerror=False, detect_record_change=False, **kwargs={})"
p3766
sg3659
S'accepts'
p3767
sa(dp3768
g3636
S'/home/marco/projects/contabilidad/web2py/gluon/html.py'
p3769
sg3638
(dp3770
S'status'
p3771
g1669
sS'self'
p3772
S'<gluon.sqlhtml.SQLFORM object>'
p3773
sS'self._traverse'
p3774
S'<bound method SQLFORM._traverse of <gluon.sqlhtml.SQLFORM object>>'
p3775
sS'hideerror'
p3776
g100
ssg3644
I1999
sg3645
(dp3777
I1994
S'        if status and session:'
p3778
sI1995
S'            # check if editing a record that has been modified by the server'
p3779
sI1996
S"            if hasattr(self, 'record_hash') and self.record_hash != formkey:"
p3780
sI1997
S'                status = False'
p3781
sI1998
S'                self.record_changed = changed = True'
p3782
sI1999
S'        status = self._traverse(status, hideerror)'
p3783
sI2000
S'        status = self.assert_status(status, request_vars)'
p3784
sI2001
S'        if onvalidation:'
p3785
sI2002
S'            if isinstance(onvalidation, dict):'
p3786
sI2003
S"                onsuccess = onvalidation.get('onsuccess', None)"
p3787
ssg3657
S"(self=<gluon.sqlhtml.SQLFORM object>, request_vars=<Storage {'apaterno': '', 'ecivil': '', 'ndoc': ...create', 'domicilio': '', 'cuil': 'skmsldmsdlk'}>, session=<Storage {'_user_agent': {'os': {'name': 'Linux'...ssion_hash': '354a7d27dcbeb03ba2a61127e5cb36d7'}>, formname='empleados/create', keepvalues=False, onvalidation=None, hideerror=False, **kwargs={})"
p3788
sg3659
g3767
sa(dp3789
g3636
S'/home/marco/projects/contabilidad/web2py/gluon/html.py'
p3790
sg3638
(dp3791
S'status'
p3792
g1669
sS'newstatus'
p3793
g1669
sS'c'
S'<gluon.html.TABLE object>'
p3794
sS'hideerror'
p3795
g100
sS'c._traverse'
p3796
S'<bound method TABLE._traverse of <gluon.html.TABLE object>>'
p3797
ssg3644
I847
sg3645
(dp3798
I842
S'                c.session = self.session'
p3799
sI843
S'                c.formname = self.formname'
p3800
sI844
S'                if hideerror and not \\'
p3801
sI845
S"                        self.attributes.get('hideerror', False):"
p3802
sI846
S"                    c['hideerror'] = hideerror"
p3803
sI847
S'                newstatus = c._traverse(status, hideerror) and newstatus'
p3804
sI848
S''
sI849
S'        # for input, textarea, select, option'
p3805
sI850
S"        # deal with 'value' and 'validation'"
p3806
sI851
S''
ssg3657
S'(self=<gluon.sqlhtml.SQLFORM object>, status=True, hideerror=False)'
p3807
sg3659
S'_traverse'
p3808
sa(dp3809
g3636
S'/home/marco/projects/contabilidad/web2py/gluon/html.py'
p3810
sg3638
(dp3811
S'status'
p3812
g1669
sS'newstatus'
p3813
g1669
sS'c'
S'<gluon.html.TR object>'
p3814
sS'hideerror'
p3815
g100
sS'c._traverse'
p3816
S'<bound method TR._traverse of <gluon.html.TR object>>'
p3817
ssg3644
I847
sg3645
(dp3818
I842
S'                c.session = self.session'
p3819
sI843
S'                c.formname = self.formname'
p3820
sI844
S'                if hideerror and not \\'
p3821
sI845
S"                        self.attributes.get('hideerror', False):"
p3822
sI846
S"                    c['hideerror'] = hideerror"
p3823
sI847
S'                newstatus = c._traverse(status, hideerror) and newstatus'
p3824
sI848
S''
sI849
S'        # for input, textarea, select, option'
p3825
sI850
S"        # deal with 'value' and 'validation'"
p3826
sI851
S''
ssg3657
S'(self=<gluon.html.TABLE object>, status=True, hideerror=False)'
p3827
sg3659
g3808
sa(dp3828
g3636
S'/home/marco/projects/contabilidad/web2py/gluon/html.py'
p3829
sg3638
(dp3830
S'status'
p3831
g1669
sS'newstatus'
p3832
g1669
sS'c'
S'<gluon.html.TD object>'
p3833
sS'hideerror'
p3834
g100
sS'c._traverse'
p3835
S'<bound method TD._traverse of <gluon.html.TD object>>'
p3836
ssg3644
I847
sg3645
(dp3837
I842
S'                c.session = self.session'
p3838
sI843
S'                c.formname = self.formname'
p3839
sI844
S'                if hideerror and not \\'
p3840
sI845
S"                        self.attributes.get('hideerror', False):"
p3841
sI846
S"                    c['hideerror'] = hideerror"
p3842
sI847
S'                newstatus = c._traverse(status, hideerror) and newstatus'
p3843
sI848
S''
sI849
S'        # for input, textarea, select, option'
p3844
sI850
S"        # deal with 'value' and 'validation'"
p3845
sI851
S''
ssg3657
S'(self=<gluon.html.TR object>, status=True, hideerror=False)'
p3846
sg3659
g3808
sa(dp3847
g3636
S'/home/marco/projects/contabilidad/web2py/gluon/html.py'
p3848
sg3638
(dp3849
S'status'
p3850
g1669
sS'newstatus'
p3851
g1669
sS'c'
S'<gluon.html.INPUT object>'
p3852
sS'hideerror'
p3853
g100
sS'c._traverse'
p3854
S'<bound method INPUT._traverse of <gluon.html.INPUT object>>'
p3855
ssg3644
I847
sg3645
(dp3856
I842
S'                c.session = self.session'
p3857
sI843
S'                c.formname = self.formname'
p3858
sI844
S'                if hideerror and not \\'
p3859
sI845
S"                        self.attributes.get('hideerror', False):"
p3860
sI846
S"                    c['hideerror'] = hideerror"
p3861
sI847
S'                newstatus = c._traverse(status, hideerror) and newstatus'
p3862
sI848
S''
sI849
S'        # for input, textarea, select, option'
p3863
sI850
S"        # deal with 'value' and 'validation'"
p3864
sI851
S''
ssg3657
S'(self=<gluon.html.TD object>, status=True, hideerror=False)'
p3865
sg3659
g3808
sa(dp3866
g3636
S'/home/marco/projects/contabilidad/web2py/gluon/html.py'
p3867
sg3638
(dp3868
S'newstatus'
p3869
g1669
sS'self'
p3870
S'<gluon.html.INPUT object>'
p3871
sS'self._validate'
p3872
S'<bound method INPUT._validate of <gluon.html.INPUT object>>'
p3873
ssg3644
I854
sg3645
(dp3874
I849
S'        # for input, textarea, select, option'
p3875
sI850
S"        # deal with 'value' and 'validation'"
p3876
sI851
S''
sI852
S"        name = self['_name']"
p3877
sI853
S'        if newstatus:'
p3878
sI854
S'            newstatus = self._validate()'
p3879
sI855
S'            self._postprocessing()'
p3880
sI856
S"        elif 'old_value' in self.attributes:"
p3881
sI857
S"            self['value'] = self['old_value']"
p3882
sI858
S'            self._postprocessing()'
p3883
ssg3657
S'(self=<gluon.html.INPUT object>, status=True, hideerror=False)'
p3884
sg3659
g3808
sa(dp3885
g3636
S'/home/marco/projects/contabilidad/web2py/gluon/html.py'
p3886
sg3638
(dp3887
S'errors'
p3888
g3679
sS'value'
p3889
S"'skmsldmsdlk'"
p3890
sS'validator'
p3891
S'<__restricted__.IS_CUIS object>'
p3892
ssg3644
I1750
sg3645
(dp3893
I1745
S"        requires = self['requires']"
p3894
sI1746
S'        if requires:'
p3895
sI1747
S'            if not isinstance(requires, (list, tuple)):'
p3896
sI1748
S'                requires = [requires]'
p3897
sI1749
S'            for validator in requires:'
p3898
sI1750
S'                (value, errors) = validator(value)'
p3899
sI1751
S'                if not errors is None:'
p3900
sI1752
S'                    self.vars[name] = value'
p3901
sI1753
S'                    self.errors[name] = errors'
p3902
sI1754
S'                    break'
p3903
ssg3657
S'(self=<gluon.html.INPUT object>)'
p3904
sg3659
S'_validate'
p3905
sa(dp3906
g3636
S'/home/marco/projects/contabilidad/web2py/applications/sueldos/models/db_empleados.py'
p3907
sg3638
(dp3908
S'aux'
p3909
g3679
sS'parametros'
p3910
S"['skmsldmsdlk']"
p3911
ssg3644
I12
sg3645
(dp3912
I7
S'    def __call__(self, value):'
p3913
sI8
S'        CONSTANTES=[5,4,3,2,7,6,5,4,3,2]'
p3914
sI9
S''
sI10
S"        parametros=value.split('-')"
p3915
sI11
S'        print parametros'
p3916
sI12
S'        aux=parametros[0]+parametros[1]'
p3917
sI13
S'        print aux'
p3918
sI14
S'        valor1=0'
p3919
sI15
S'        x=0'
p3920
sI16
S'        for i in aux:'
p3921
ssg3657
S"(self=<__restricted__.IS_CUIS object>, value='skmsldmsdlk')"
p3922
sg3659
S'__call__'
p3923
sasS'pyver'
p3924
S'Python 2.7.3: /usr/bin/python'
p3925
sS'session'
p3926
g57
(g58
g59
NtRp3927
(dp3928
g62
(dp3929
sg64
(lp3930
g57
(g66
g59
NtRp3931
(dp3932
g62
(dp3933
g70
I5
ssg71
Nsg64
(lp3934
sbasbsS'etype'
p3935
S"<type 'exceptions.IndexError'>"
p3936
sS'date'
p3937
S'Fri Jan  4 16:56:09 2013'
p3938
sS'response'
p3939
g57
(g58
g59
NtRp3940
(dp3941
g62
(dp3942
sg64
(lp3943
g57
(g66
g59
NtRp3944
(dp3945
g62
(dp3946
g70
I5
ssg71
Nsg64
(lp3947
g57
(g73
g59
NtRp3948
(dp3949
g62
(dp3950
sg71
g3944
sg64
(lp3951
g57
(g78
g59
NtRp3952
(dp3953
g62
(dp3954
g82
g83
ssg71
g3948
sg64
(lp3955
g155
asbag57
(g78
g59
NtRp3956
(dp3957
g62
(dp3958
g89
g90
ssg71
g3948
sg64
(lp3959
S':'
asbag57
(g78
g59
NtRp3960
(dp3961
g62
(dp3962
sg71
g3948
sg64
(lp3963
g57
(g58
g59
NtRp3964
(dp3965
g62
(dp3966
g70
I5
ssg71
g3960
sg64
(lp3967
S'<cStringIO.StringO object at 0x3b44378>'
p3968
asbasbasbag57
(g73
g59
NtRp3969
(dp3970
g62
(dp3971
sg71
g3944
sg64
(lp3972
g57
(g78
g59
NtRp3973
(dp3974
g62
(dp3975
g82
g83
ssg71
g3969
sg64
(lp3976
g243
asbag57
(g78
g59
NtRp3977
(dp3978
g62
(dp3979
g89
g90
ssg71
g3969
sg64
(lp3980
S':'
asbag57
(g78
g59
NtRp3981
(dp3982
g62
(dp3983
sg71
g3969
sg64
(lp3984
g57
(g58
g59
NtRp3985
(dp3986
g62
(dp3987
g70
I5
ssg71
g3981
sg64
(lp3988
g57
(g66
g59
NtRp3989
(dp3990
g62
(dp3991
g70
I4
ssg71
Nsg64
(lp3992
g57
(g73
g59
NtRp3993
(dp3994
g62
(dp3995
sg71
g3989
sg64
(lp3996
g57
(g78
g59
NtRp3997
(dp3998
g62
(dp3999
g82
g83
ssg71
g3993
sg64
(lp4000
S'session_id_sueldos'
p4001
asbag57
(g78
g59
NtRp4002
(dp4003
g62
(dp4004
g89
g90
ssg71
g3993
sg64
(lp4005
S':'
asbag57
(g78
g59
NtRp4006
(dp4007
g62
(dp4008
sg71
g3993
sg64
(lp4009
g57
(g58
g59
NtRp4010
(dp4011
g62
(dp4012
g70
I4
ssg71
g4006
sg64
(lp4013
g475
ag57
(g66
g59
NtRp4014
(dp4015
g62
(dp4016
g70
I3
ssg71
Nsg64
(lp4017
g57
(g73
g59
NtRp4018
(dp4019
g62
(dp4020
sg71
g4014
sg64
(lp4021
g57
(g78
g59
NtRp4022
(dp4023
g62
(dp4024
g82
g83
ssg71
g4018
sg64
(lp4025
g294
asbag57
(g78
g59
NtRp4026
(dp4027
g62
(dp4028
g89
g90
ssg71
g4018
sg64
(lp4029
S':'
asbag57
(g78
g59
NtRp4030
(dp4031
g62
(dp4032
sg71
g4018
sg64
(lp4033
g57
(g58
g59
NtRp4034
(dp4035
g62
(dp4036
g70
I3
ssg71
g4030
sg64
(lp4037
S''
asbasbasbag57
(g73
g59
NtRp4038
(dp4039
g62
(dp4040
sg71
g4014
sg64
(lp4041
g57
(g78
g59
NtRp4042
(dp4043
g62
(dp4044
g82
g83
ssg71
g4038
sg64
(lp4045
g315
asbag57
(g78
g59
NtRp4046
(dp4047
g62
(dp4048
g89
g90
ssg71
g4038
sg64
(lp4049
S':'
asbag57
(g78
g59
NtRp4050
(dp4051
g62
(dp4052
sg71
g4038
sg64
(lp4053
g57
(g58
g59
NtRp4054
(dp4055
g62
(dp4056
g70
I3
ssg71
g4050
sg64
(lp4057
S''
asbasbasbag57
(g73
g59
NtRp4058
(dp4059
g62
(dp4060
sg71
g4014
sg64
(lp4061
g57
(g78
g59
NtRp4062
(dp4063
g62
(dp4064
g82
g83
ssg71
g4058
sg64
(lp4065
g336
asbag57
(g78
g59
NtRp4066
(dp4067
g62
(dp4068
g89
g90
ssg71
g4058
sg64
(lp4069
S':'
asbag57
(g78
g59
NtRp4070
(dp4071
g62
(dp4072
sg71
g4058
sg64
(lp4073
g57
(g58
g59
NtRp4074
(dp4075
g62
(dp4076
g70
I3
ssg71
g4070
sg64
(lp4077
S''
asbasbasbag57
(g73
g59
NtRp4078
(dp4079
g62
(dp4080
sg71
g4014
sg64
(lp4081
g57
(g78
g59
NtRp4082
(dp4083
g62
(dp4084
g82
g83
ssg71
g4078
sg64
(lp4085
g357
asbag57
(g78
g59
NtRp4086
(dp4087
g62
(dp4088
g89
g90
ssg71
g4078
sg64
(lp4089
S':'
asbag57
(g78
g59
NtRp4090
(dp4091
g62
(dp4092
sg71
g4078
sg64
(lp4093
g57
(g58
g59
NtRp4094
(dp4095
g62
(dp4096
g70
I3
ssg71
g4090
sg64
(lp4097
S''
asbasbasbag57
(g73
g59
NtRp4098
(dp4099
g62
(dp4100
sg71
g4014
sg64
(lp4101
g57
(g78
g59
NtRp4102
(dp4103
g62
(dp4104
g82
g83
ssg71
g4098
sg64
(lp4105
g378
asbag57
(g78
g59
NtRp4106
(dp4107
g62
(dp4108
g89
g90
ssg71
g4098
sg64
(lp4109
S':'
asbag57
(g78
g59
NtRp4110
(dp4111
g62
(dp4112
sg71
g4098
sg64
(lp4113
g57
(g58
g59
NtRp4114
(dp4115
g62
(dp4116
g70
I3
ssg71
g4110
sg64
(lp4117
S''
asbasbasbag57
(g73
g59
NtRp4118
(dp4119
g62
(dp4120
sg71
g4014
sg64
(lp4121
g57
(g78
g59
NtRp4122
(dp4123
g62
(dp4124
g82
g83
ssg71
g4118
sg64
(lp4125
g399
asbag57
(g78
g59
NtRp4126
(dp4127
g62
(dp4128
g89
g90
ssg71
g4118
sg64
(lp4129
S':'
asbag57
(g78
g59
NtRp4130
(dp4131
g62
(dp4132
sg71
g4118
sg64
(lp4133
g57
(g58
g59
NtRp4134
(dp4135
g62
(dp4136
g70
I3
ssg71
g4130
sg64
(lp4137
S'/'
asbasbasbag57
(g73
g59
NtRp4138
(dp4139
g62
(dp4140
sg71
g4014
sg64
(lp4141
g57
(g78
g59
NtRp4142
(dp4143
g62
(dp4144
g82
g83
ssg71
g4138
sg64
(lp4145
g420
asbag57
(g78
g59
NtRp4146
(dp4147
g62
(dp4148
g89
g90
ssg71
g4138
sg64
(lp4149
S':'
asbag57
(g78
g59
NtRp4150
(dp4151
g62
(dp4152
sg71
g4138
sg64
(lp4153
g57
(g58
g59
NtRp4154
(dp4155
g62
(dp4156
g70
I3
ssg71
g4150
sg64
(lp4157
S''
asbasbasbag57
(g73
g59
NtRp4158
(dp4159
g62
(dp4160
sg71
g4014
sg64
(lp4161
g57
(g78
g59
NtRp4162
(dp4163
g62
(dp4164
g82
g83
ssg71
g4158
sg64
(lp4165
g441
asbag57
(g78
g59
NtRp4166
(dp4167
g62
(dp4168
g89
g90
ssg71
g4158
sg64
(lp4169
S':'
asbag57
(g78
g59
NtRp4170
(dp4171
g62
(dp4172
sg71
g4158
sg64
(lp4173
g57
(g58
g59
NtRp4174
(dp4175
g62
(dp4176
g70
I3
ssg71
g4170
sg64
(lp4177
S''
asbasbasbasbasbasbasbasbasbasbasbag57
(g73
g59
NtRp4178
(dp4179
g62
(dp4180
sg71
g3944
sg64
(lp4181
g57
(g78
g59
NtRp4182
(dp4183
g62
(dp4184
g82
g83
ssg71
g4178
sg64
(lp4185
S'delimiters'
p4186
asbag57
(g78
g59
NtRp4187
(dp4188
g62
(dp4189
g89
g90
ssg71
g4178
sg64
(lp4190
S':'
asbag57
(g78
g59
NtRp4191
(dp4192
g62
(dp4193
sg71
g4178
sg64
(lp4194
g57
(g58
g59
NtRp4195
(dp4196
g62
(dp4197
g70
I5
ssg71
g4191
sg64
(lp4198
g57
(g66
g59
NtRp4199
(dp4200
g62
(dp4201
g70
I4
ssg71
Nsg64
(lp4202
g57
(g73
g59
NtRp4203
(dp4204
g62
(dp4205
sg71
g4199
sg64
(lp4206
g57
(g78
g59
NtRp4207
(dp4208
g62
(dp4209
sg71
g4203
sg64
(lp4210
g57
(g58
g59
NtRp4211
(dp4212
g62
(dp4213
g70
I4
ssg71
g4207
sg64
(lp4214
S'{{'
p4215
asbasbasbag57
(g73
g59
NtRp4216
(dp4217
g62
(dp4218
sg71
g4199
sg64
(lp4219
g57
(g78
g59
NtRp4220
(dp4221
g62
(dp4222
sg71
g4216
sg64
(lp4223
g57
(g58
g59
NtRp4224
(dp4225
g62
(dp4226
g70
I4
ssg71
g4220
sg64
(lp4227
S'}}'
p4228
asbasbasbasbasbasbasbag57
(g73
g59
NtRp4229
(dp4230
g62
(dp4231
sg71
g3944
sg64
(lp4232
g57
(g78
g59
NtRp4233
(dp4234
g62
(dp4235
g82
g83
ssg71
g4229
sg64
(lp4236
S'files'
p4237
asbag57
(g78
g59
NtRp4238
(dp4239
g62
(dp4240
g89
g90
ssg71
g4229
sg64
(lp4241
S':'
asbag57
(g78
g59
NtRp4242
(dp4243
g62
(dp4244
sg71
g4229
sg64
(lp4245
g57
(g58
g59
NtRp4246
(dp4247
g62
(dp4248
g70
I5
ssg71
g4242
sg64
(lp4249
g57
(g66
g59
NtRp4250
(dp4251
g62
(dp4252
g70
I4
ssg71
Nsg64
(lp4253
sbasbasbasbag57
(g73
g59
NtRp4254
(dp4255
g62
(dp4256
sg71
g3944
sg64
(lp4257
g57
(g78
g59
NtRp4258
(dp4259
g62
(dp4260
g82
g83
ssg71
g4254
sg64
(lp4261
S'flash'
p4262
asbag57
(g78
g59
NtRp4263
(dp4264
g62
(dp4265
g89
g90
ssg71
g4254
sg64
(lp4266
S':'
asbag57
(g78
g59
NtRp4267
(dp4268
g62
(dp4269
sg71
g4254
sg64
(lp4270
g57
(g58
g59
NtRp4271
(dp4272
g62
(dp4273
g70
I5
ssg71
g4267
sg64
(lp4274
S''
asbasbasbag57
(g73
g59
NtRp4275
(dp4276
g62
(dp4277
sg71
g3944
sg64
(lp4278
g57
(g78
g59
NtRp4279
(dp4280
g62
(dp4281
g82
g83
ssg71
g4275
sg64
(lp4282
S'generic_patterns'
p4283
asbag57
(g78
g59
NtRp4284
(dp4285
g62
(dp4286
g89
g90
ssg71
g4275
sg64
(lp4287
S':'
asbag57
(g78
g59
NtRp4288
(dp4289
g62
(dp4290
sg71
g4275
sg64
(lp4291
g57
(g58
g59
NtRp4292
(dp4293
g62
(dp4294
g70
I5
ssg71
g4288
sg64
(lp4295
g57
(g66
g59
NtRp4296
(dp4297
g62
(dp4298
g70
I4
ssg71
Nsg64
(lp4299
g57
(g73
g59
NtRp4300
(dp4301
g62
(dp4302
sg71
g4296
sg64
(lp4303
g57
(g78
g59
NtRp4304
(dp4305
g62
(dp4306
sg71
g4300
sg64
(lp4307
g57
(g58
g59
NtRp4308
(dp4309
g62
(dp4310
g70
I4
ssg71
g4304
sg64
(lp4311
S'*'
asbasbasbasbasbasbasbag57
(g73
g59
NtRp4312
(dp4313
g62
(dp4314
sg71
g3944
sg64
(lp4315
g57
(g78
g59
NtRp4316
(dp4317
g62
(dp4318
g82
g83
ssg71
g4312
sg64
(lp4319
S'google_analytics_id'
p4320
asbag57
(g78
g59
NtRp4321
(dp4322
g62
(dp4323
g89
g90
ssg71
g4312
sg64
(lp4324
S':'
asbag57
(g78
g59
NtRp4325
(dp4326
g62
(dp4327
sg71
g4312
sg64
(lp4328
g57
(g58
g59
NtRp4329
(dp4330
g62
(dp4331
g70
I5
ssg71
g4325
sg64
(lp4332
S'None'
p4333
asbasbasbag57
(g73
g59
NtRp4334
(dp4335
g62
(dp4336
sg71
g3944
sg64
(lp4337
g57
(g78
g59
NtRp4338
(dp4339
g62
(dp4340
g82
g83
ssg71
g4334
sg64
(lp4341
S'headers'
p4342
asbag57
(g78
g59
NtRp4343
(dp4344
g62
(dp4345
g89
g90
ssg71
g4334
sg64
(lp4346
S':'
asbag57
(g78
g59
NtRp4347
(dp4348
g62
(dp4349
sg71
g4334
sg64
(lp4350
g57
(g58
g59
NtRp4351
(dp4352
g62
(dp4353
g70
I5
ssg71
g4347
sg64
(lp4354
g57
(g66
g59
NtRp4355
(dp4356
g62
(dp4357
g70
I4
ssg71
Nsg64
(lp4358
g57
(g73
g59
NtRp4359
(dp4360
g62
(dp4361
sg71
g4355
sg64
(lp4362
g57
(g78
g59
NtRp4363
(dp4364
g62
(dp4365
g82
g83
ssg71
g4359
sg64
(lp4366
S'X-Powered-By'
p4367
asbag57
(g78
g59
NtRp4368
(dp4369
g62
(dp4370
g89
g90
ssg71
g4359
sg64
(lp4371
S':'
asbag57
(g78
g59
NtRp4372
(dp4373
g62
(dp4374
sg71
g4359
sg64
(lp4375
g57
(g58
g59
NtRp4376
(dp4377
g62
(dp4378
g70
I4
ssg71
g4372
sg64
(lp4379
S'web2py'
p4380
asbasbasbasbasbasbasbag57
(g73
g59
NtRp4381
(dp4382
g62
(dp4383
sg71
g3944
sg64
(lp4384
g57
(g78
g59
NtRp4385
(dp4386
g62
(dp4387
g82
g83
ssg71
g4381
sg64
(lp4388
S'menu'
p4389
asbag57
(g78
g59
NtRp4390
(dp4391
g62
(dp4392
g89
g90
ssg71
g4381
sg64
(lp4393
S':'
asbag57
(g78
g59
NtRp4394
(dp4395
g62
(dp4396
sg71
g4381
sg64
(lp4397
g57
(g58
g59
NtRp4398
(dp4399
g62
(dp4400
g70
I5
ssg71
g4394
sg64
(lp4401
g57
(g66
g59
NtRp4402
(dp4403
g62
(dp4404
g70
I4
ssg71
Nsg64
(lp4405
g57
(g73
g59
NtRp4406
(dp4407
g62
(dp4408
sg71
g4402
sg64
(lp4409
g57
(g78
g59
NtRp4410
(dp4411
g62
(dp4412
sg71
g4406
sg64
(lp4413
g57
(g58
g59
NtRp4414
(dp4415
g62
(dp4416
g70
I4
ssg71
g4410
sg64
(lp4417
g57
(g66
g59
NtRp4418
(dp4419
g62
(dp4420
g70
I3
ssg71
Nsg64
(lp4421
g57
(g73
g59
NtRp4422
(dp4423
g62
(dp4424
sg71
g4418
sg64
(lp4425
g57
(g78
g59
NtRp4426
(dp4427
g62
(dp4428
sg71
g4422
sg64
(lp4429
g57
(g58
g59
NtRp4430
(dp4431
g62
(dp4432
g70
I3
ssg71
g4426
sg64
(lp4433
cgluon.languages
lazyT_unpickle
p4434
(S's\x04\x00\x00\x00Home'
tRp4435
asbasbasbag57
(g73
g59
NtRp4436
(dp4437
g62
(dp4438
sg71
g4418
sg64
(lp4439
g57
(g78
g59
NtRp4440
(dp4441
g62
(dp4442
sg71
g4436
sg64
(lp4443
g57
(g58
g59
NtRp4444
(dp4445
g62
(dp4446
g70
I3
ssg71
g4440
sg64
(lp4447
g100
asbasbasbag57
(g73
g59
NtRp4448
(dp4449
g62
(dp4450
sg71
g4418
sg64
(lp4451
g57
(g78
g59
NtRp4452
(dp4453
g62
(dp4454
sg71
g4448
sg64
(lp4455
g57
(g58
g59
NtRp4456
(dp4457
g62
(dp4458
g70
I3
ssg71
g4452
sg64
(lp4459
S'/sueldos/default/index'
p4460
asbasbasbag57
(g73
g59
NtRp4461
(dp4462
g62
(dp4463
sg71
g4418
sg64
(lp4464
g57
(g78
g59
NtRp4465
(dp4466
g62
(dp4467
sg71
g4461
sg64
(lp4468
g57
(g58
g59
NtRp4469
(dp4470
g62
(dp4471
g70
I3
ssg71
g4465
sg64
(lp4472
g57
(g66
g59
NtRp4473
(dp4474
g62
(dp4475
g70
I2
ssg71
Nsg64
(lp4476
sbasbasbasbasbasbasbasbag57
(g73
g59
NtRp4477
(dp4478
g62
(dp4479
sg71
g4402
sg64
(lp4480
g57
(g78
g59
NtRp4481
(dp4482
g62
(dp4483
sg71
g4477
sg64
(lp4484
g57
(g58
g59
NtRp4485
(dp4486
g62
(dp4487
g70
I4
ssg71
g4481
sg64
(lp4488
g57
(g66
g59
NtRp4489
(dp4490
g62
(dp4491
g70
I3
ssg71
Nsg64
(lp4492
g57
(g73
g59
NtRp4493
(dp4494
g62
(dp4495
sg71
g4489
sg64
(lp4496
g57
(g78
g59
NtRp4497
(dp4498
g62
(dp4499
sg71
g4493
sg64
(lp4500
g57
(g58
g59
NtRp4501
(dp4502
g62
(dp4503
g70
I3
ssg71
g4497
sg64
(lp4504
g57
(cgluon.html
SPAN
p4505
g59
NtRp4506
(dp4507
g62
(dp4508
S'_class'
p4509
S'highlighted'
p4510
ssg71
Nsg64
(lp4511
g4380
asbasbasbasbag57
(g73
g59
NtRp4512
(dp4513
g62
(dp4514
sg71
g4489
sg64
(lp4515
g57
(g78
g59
NtRp4516
(dp4517
g62
(dp4518
sg71
g4512
sg64
(lp4519
g57
(g58
g59
NtRp4520
(dp4521
g62
(dp4522
g70
I3
ssg71
g4516
sg64
(lp4523
g100
asbasbasbag57
(g73
g59
NtRp4524
(dp4525
g62
(dp4526
sg71
g4489
sg64
(lp4527
g57
(g78
g59
NtRp4528
(dp4529
g62
(dp4530
sg71
g4524
sg64
(lp4531
g57
(g58
g59
NtRp4532
(dp4533
g62
(dp4534
g70
I3
ssg71
g4528
sg64
(lp4535
S'http://web2py.com'
p4536
asbasbasbag57
(g73
g59
NtRp4537
(dp4538
g62
(dp4539
sg71
g4489
sg64
(lp4540
g57
(g78
g59
NtRp4541
(dp4542
g62
(dp4543
sg71
g4537
sg64
(lp4544
g57
(g58
g59
NtRp4545
(dp4546
g62
(dp4547
g70
I3
ssg71
g4541
sg64
(lp4548
g57
(g66
g59
NtRp4549
(dp4550
g62
(dp4551
g70
I2
ssg71
Nsg64
(lp4552
g57
(g73
g59
NtRp4553
(dp4554
g62
(dp4555
sg71
g4549
sg64
(lp4556
g57
(g78
g59
NtRp4557
(dp4558
g62
(dp4559
sg71
g4553
sg64
(lp4560
g57
(g58
g59
NtRp4561
(dp4562
g62
(dp4563
g70
I2
ssg71
g4557
sg64
(lp4564
g57
(g66
g59
NtRp4565
(dp4566
g62
(dp4567
g70
I1
ssg71
Nsg64
(lp4568
g57
(g73
g59
NtRp4569
(dp4570
g62
(dp4571
sg71
g4565
sg64
(lp4572
g57
(g78
g59
NtRp4573
(dp4574
g62
(dp4575
sg71
g4569
sg64
(lp4576
g57
(g58
g59
NtRp4577
(dp4578
g62
(dp4579
g70
I1
ssg71
g4573
sg64
(lp4580
g4434
(S's\x08\x00\x00\x00My Sites'
tRp4581
asbasbasbag57
(g73
g59
NtRp4582
(dp4583
g62
(dp4584
sg71
g4565
sg64
(lp4585
g57
(g78
g59
NtRp4586
(dp4587
g62
(dp4588
sg71
g4582
sg64
(lp4589
g57
(g58
g59
NtRp4590
(dp4591
g62
(dp4592
g70
I1
ssg71
g4586
sg64
(lp4593
I00
asbasbasbag57
(g73
g59
NtRp4594
(dp4595
g62
(dp4596
sg71
g4565
sg64
(lp4597
g57
(g78
g59
NtRp4598
(dp4599
g62
(dp4600
sg71
g4594
sg64
(lp4601
g57
(g58
g59
NtRp4602
(dp4603
g62
(dp4604
g70
I1
ssg71
g4598
sg64
(lp4605
S'/admin/default/site'
p4606
asbasbasbasbasbasbasbag57
(g73
g59
NtRp4607
(dp4608
g62
(dp4609
sg71
g4549
sg64
(lp4610
g57
(g78
g59
NtRp4611
(dp4612
g62
(dp4613
sg71
g4607
sg64
(lp4614
g57
(g58
g59
NtRp4615
(dp4616
g62
(dp4617
g70
I2
ssg71
g4611
sg64
(lp4618
g57
(g66
g59
NtRp4619
(dp4620
g62
(dp4621
g70
I1
ssg71
Nsg64
(lp4622
g57
(g73
g59
NtRp4623
(dp4624
g62
(dp4625
sg71
g4619
sg64
(lp4626
g57
(g78
g59
NtRp4627
(dp4628
g62
(dp4629
sg71
g4623
sg64
(lp4630
g57
(g58
g59
NtRp4631
(dp4632
g62
(dp4633
g70
I1
ssg71
g4627
sg64
(lp4634
g4434
(S's\x08\x00\x00\x00This App'
tRp4635
asbasbasbag57
(g73
g59
NtRp4636
(dp4637
g62
(dp4638
sg71
g4619
sg64
(lp4639
g57
(g78
g59
NtRp4640
(dp4641
g62
(dp4642
sg71
g4636
sg64
(lp4643
g57
(g58
g59
NtRp4644
(dp4645
g62
(dp4646
g70
I1
ssg71
g4640
sg64
(lp4647
I00
asbasbasbag57
(g73
g59
NtRp4648
(dp4649
g62
(dp4650
sg71
g4619
sg64
(lp4651
g57
(g78
g59
NtRp4652
(dp4653
g62
(dp4654
sg71
g4648
sg64
(lp4655
g57
(g58
g59
NtRp4656
(dp4657
g62
(dp4658
g70
I1
ssg71
g4652
sg64
(lp4659
S'/admin/default/design/sueldos'
p4660
asbasbasbag57
(g73
g59
NtRp4661
(dp4662
g62
(dp4663
sg71
g4619
sg64
(lp4664
g57
(g78
g59
NtRp4665
(dp4666
g62
(dp4667
sg71
g4661
sg64
(lp4668
g57
(g58
g59
NtRp4669
(dp4670
g62
(dp4671
g70
I1
ssg71
g4665
sg64
(lp4672
(lp4673
(g4434
(S's\n\x00\x00\x00Controller'
tRp4674
I00
S'/admin/default/edit/sueldos/controllers/altas.py'
tp4675
a(g4434
(S's\x04\x00\x00\x00View'
tRp4676
I00
S'/admin/default/edit/sueldos/views/altas/empleados.html'
tp4677
a(g4434
(S's\x06\x00\x00\x00Layout'
tRp4678
I00
S'/admin/default/edit/sueldos/views/layout.html'
tp4679
a(g4434
(S's\n\x00\x00\x00Stylesheet'
tRp4680
I00
S'/admin/default/edit/sueldos/static/css/web2py.css'
tp4681
a(g4434
(S's\x08\x00\x00\x00DB Model'
tRp4682
I00
S'/admin/default/edit/sueldos/models/db.py'
tp4683
a(g4434
(S's\n\x00\x00\x00Menu Model'
tRp4684
I00
S'/admin/default/edit/sueldos/models/menu.py'
tp4685
a(g4434
(S's\x08\x00\x00\x00Database'
tRp4686
I00
S'/sueldos/appadmin/index'
tp4687
a(g4434
(S's\x06\x00\x00\x00Errors'
tRp4688
I00
S'/admin/default/errors/sueldos'
tp4689
a(g4434
(S's\x05\x00\x00\x00About'
tRp4690
I00
S'/admin/default/about/sueldos'
tp4691
aasbasbasbasbasbasbasbag57
(g73
g59
NtRp4692
(dp4693
g62
(dp4694
sg71
g4549
sg64
(lp4695
g57
(g78
g59
NtRp4696
(dp4697
g62
(dp4698
sg71
g4692
sg64
(lp4699
g57
(g58
g59
NtRp4700
(dp4701
g62
(dp4702
g70
I2
ssg71
g4696
sg64
(lp4703
g57
(g66
g59
NtRp4704
(dp4705
g62
(dp4706
g70
I1
ssg71
Nsg64
(lp4707
g57
(g73
g59
NtRp4708
(dp4709
g62
(dp4710
sg71
g4704
sg64
(lp4711
g57
(g78
g59
NtRp4712
(dp4713
g62
(dp4714
sg71
g4708
sg64
(lp4715
g57
(g58
g59
NtRp4716
(dp4717
g62
(dp4718
g70
I1
ssg71
g4712
sg64
(lp4719
S'web2py.com'
p4720
asbasbasbag57
(g73
g59
NtRp4721
(dp4722
g62
(dp4723
sg71
g4704
sg64
(lp4724
g57
(g78
g59
NtRp4725
(dp4726
g62
(dp4727
sg71
g4721
sg64
(lp4728
g57
(g58
g59
NtRp4729
(dp4730
g62
(dp4731
g70
I1
ssg71
g4725
sg64
(lp4732
I00
asbasbasbag57
(g73
g59
NtRp4733
(dp4734
g62
(dp4735
sg71
g4704
sg64
(lp4736
g57
(g78
g59
NtRp4737
(dp4738
g62
(dp4739
sg71
g4733
sg64
(lp4740
g57
(g58
g59
NtRp4741
(dp4742
g62
(dp4743
g70
I1
ssg71
g4737
sg64
(lp4744
S'http://www.web2py.com'
p4745
asbasbasbag57
(g73
g59
NtRp4746
(dp4747
g62
(dp4748
sg71
g4704
sg64
(lp4749
g57
(g78
g59
NtRp4750
(dp4751
g62
(dp4752
sg71
g4746
sg64
(lp4753
g57
(g58
g59
NtRp4754
(dp4755
g62
(dp4756
g70
I1
ssg71
g4750
sg64
(lp4757
(lp4758
(g4434
(S's\x08\x00\x00\x00Download'
tRp4759
I00
S'http://www.web2py.com/examples/default/download'
p4760
tp4761
a(g4434
(S's\x07\x00\x00\x00Support'
tRp4762
I00
S'http://www.web2py.com/examples/default/support'
p4763
tp4764
a(g4434
(S's\x04\x00\x00\x00Demo'
tRp4765
I00
S'http://web2py.com/demo_admin'
p4766
tp4767
a(g4434
(S's\x0e\x00\x00\x00Quick Examples'
tRp4768
I00
S'http://web2py.com/examples/default/examples'
p4769
tp4770
a(g4434
(S's\x03\x00\x00\x00FAQ'
tRp4771
I00
S'http://web2py.com/AlterEgo'
p4772
tp4773
a(g4434
(S's\x06\x00\x00\x00Videos'
tRp4774
I00
S'http://www.web2py.com/examples/default/videos/'
p4775
tp4776
a(g4434
(S's\x11\x00\x00\x00Free Applications'
tRp4777
I00
S'http://web2py.com/appliances'
p4778
tp4779
a(g4434
(S's\x07\x00\x00\x00Plugins'
tRp4780
I00
S'http://web2py.com/plugins'
p4781
tp4782
a(g4434
(S's\x07\x00\x00\x00Layouts'
tRp4783
I00
S'http://web2py.com/layouts'
p4784
tp4785
a(g4434
(S's\x07\x00\x00\x00Recipes'
tRp4786
I00
S'http://web2pyslices.com/'
p4787
tp4788
a(g4434
(S's\x08\x00\x00\x00Semantic'
tRp4789
I00
S'http://web2py.com/semantic'
p4790
tp4791
aasbasbasbasbasbasbasbag57
(g73
g59
NtRp4792
(dp4793
g62
(dp4794
sg71
g4549
sg64
(lp4795
g57
(g78
g59
NtRp4796
(dp4797
g62
(dp4798
sg71
g4792
sg64
(lp4799
g57
(g58
g59
NtRp4800
(dp4801
g62
(dp4802
g70
I2
ssg71
g4796
sg64
(lp4803
g57
(g66
g59
NtRp4804
(dp4805
g62
(dp4806
g70
I1
ssg71
Nsg64
(lp4807
g57
(g73
g59
NtRp4808
(dp4809
g62
(dp4810
sg71
g4804
sg64
(lp4811
g57
(g78
g59
NtRp4812
(dp4813
g62
(dp4814
sg71
g4808
sg64
(lp4815
g57
(g58
g59
NtRp4816
(dp4817
g62
(dp4818
g70
I1
ssg71
g4812
sg64
(lp4819
g4434
(S's\r\x00\x00\x00Documentation'
tRp4820
asbasbasbag57
(g73
g59
NtRp4821
(dp4822
g62
(dp4823
sg71
g4804
sg64
(lp4824
g57
(g78
g59
NtRp4825
(dp4826
g62
(dp4827
sg71
g4821
sg64
(lp4828
g57
(g58
g59
NtRp4829
(dp4830
g62
(dp4831
g70
I1
ssg71
g4825
sg64
(lp4832
I00
asbasbasbag57
(g73
g59
NtRp4833
(dp4834
g62
(dp4835
sg71
g4804
sg64
(lp4836
g57
(g78
g59
NtRp4837
(dp4838
g62
(dp4839
sg71
g4833
sg64
(lp4840
g57
(g58
g59
NtRp4841
(dp4842
g62
(dp4843
g70
I1
ssg71
g4837
sg64
(lp4844
S'http://www.web2py.com/book'
p4845
asbasbasbag57
(g73
g59
NtRp4846
(dp4847
g62
(dp4848
sg71
g4804
sg64
(lp4849
g57
(g78
g59
NtRp4850
(dp4851
g62
(dp4852
sg71
g4846
sg64
(lp4853
g57
(g58
g59
NtRp4854
(dp4855
g62
(dp4856
g70
I1
ssg71
g4850
sg64
(lp4857
(lp4858
(g4434
(S's\x07\x00\x00\x00Preface'
tRp4859
I00
S'http://www.web2py.com/book/default/chapter/00'
p4860
tp4861
a(g4434
(S's\x0c\x00\x00\x00Introduction'
tRp4862
I00
S'http://www.web2py.com/book/default/chapter/01'
p4863
tp4864
a(g4434
(S's\x06\x00\x00\x00Python'
tRp4865
I00
S'http://www.web2py.com/book/default/chapter/02'
p4866
tp4867
a(g4434
(S's\x08\x00\x00\x00Overview'
tRp4868
I00
S'http://www.web2py.com/book/default/chapter/03'
p4869
tp4870
a(g4434
(S's\x08\x00\x00\x00The Core'
tRp4871
I00
S'http://www.web2py.com/book/default/chapter/04'
p4872
tp4873
a(g4434
(S's\t\x00\x00\x00The Views'
tRp4874
I00
S'http://www.web2py.com/book/default/chapter/05'
p4875
tp4876
a(g4434
(S's\x08\x00\x00\x00Database'
tRp4877
I00
S'http://www.web2py.com/book/default/chapter/06'
p4878
tp4879
a(g4434
(S's\x14\x00\x00\x00Forms and Validators'
tRp4880
I00
S'http://www.web2py.com/book/default/chapter/07'
p4881
tp4882
a(g4434
(S's\r\x00\x00\x00Email and SMS'
tRp4883
I00
S'http://www.web2py.com/book/default/chapter/08'
p4884
tp4885
a(g4434
(S's\x0e\x00\x00\x00Access Control'
tRp4886
I00
S'http://www.web2py.com/book/default/chapter/09'
p4887
tp4888
a(g4434
(S's\x08\x00\x00\x00Services'
tRp4889
I00
S'http://www.web2py.com/book/default/chapter/10'
p4890
tp4891
a(g4434
(S's\x0c\x00\x00\x00Ajax Recipes'
tRp4892
I00
S'http://www.web2py.com/book/default/chapter/11'
p4893
tp4894
a(g4434
(S's\x16\x00\x00\x00Components and Plugins'
tRp4895
I00
S'http://www.web2py.com/book/default/chapter/12'
p4896
tp4897
a(g4434
(S's\x12\x00\x00\x00Deployment Recipes'
tRp4898
I00
S'http://www.web2py.com/book/default/chapter/13'
p4899
tp4900
a(g4434
(S's\r\x00\x00\x00Other Recipes'
tRp4901
I00
S'http://www.web2py.com/book/default/chapter/14'
p4902
tp4903
a(g4434
(S's\r\x00\x00\x00Buy this book'
tRp4904
I00
S'http://stores.lulu.com/web2py'
p4905
tp4906
aasbasbasbasbasbasbasbag57
(g73
g59
NtRp4907
(dp4908
g62
(dp4909
sg71
g4549
sg64
(lp4910
g57
(g78
g59
NtRp4911
(dp4912
g62
(dp4913
sg71
g4907
sg64
(lp4914
g57
(g58
g59
NtRp4915
(dp4916
g62
(dp4917
g70
I2
ssg71
g4911
sg64
(lp4918
g57
(g66
g59
NtRp4919
(dp4920
g62
(dp4921
g70
I1
ssg71
Nsg64
(lp4922
g57
(g73
g59
NtRp4923
(dp4924
g62
(dp4925
sg71
g4919
sg64
(lp4926
g57
(g78
g59
NtRp4927
(dp4928
g62
(dp4929
sg71
g4923
sg64
(lp4930
g57
(g58
g59
NtRp4931
(dp4932
g62
(dp4933
g70
I1
ssg71
g4927
sg64
(lp4934
g4434
(S's\t\x00\x00\x00Community'
tRp4935
asbasbasbag57
(g73
g59
NtRp4936
(dp4937
g62
(dp4938
sg71
g4919
sg64
(lp4939
g57
(g78
g59
NtRp4940
(dp4941
g62
(dp4942
sg71
g4936
sg64
(lp4943
g57
(g58
g59
NtRp4944
(dp4945
g62
(dp4946
g70
I1
ssg71
g4940
sg64
(lp4947
I00
asbasbasbag57
(g73
g59
NtRp4948
(dp4949
g62
(dp4950
sg71
g4919
sg64
(lp4951
g57
(g78
g59
NtRp4952
(dp4953
g62
(dp4954
sg71
g4948
sg64
(lp4955
g57
(g58
g59
NtRp4956
(dp4957
g62
(dp4958
g70
I1
ssg71
g4952
sg64
(lp4959
Nasbasbasbag57
(g73
g59
NtRp4960
(dp4961
g62
(dp4962
sg71
g4919
sg64
(lp4963
g57
(g78
g59
NtRp4964
(dp4965
g62
(dp4966
sg71
g4960
sg64
(lp4967
g57
(g58
g59
NtRp4968
(dp4969
g62
(dp4970
g70
I1
ssg71
g4964
sg64
(lp4971
(lp4972
(g4434
(S's\x06\x00\x00\x00Groups'
tRp4973
I00
S'http://www.web2py.com/examples/default/usergroups'
p4974
tp4975
a(g4434
(S's\x07\x00\x00\x00Twitter'
tRp4976
I00
S'http://twitter.com/web2py'
p4977
tp4978
a(g4434
(S's\t\x00\x00\x00Live Chat'
tRp4979
I00
S'http://webchat.freenode.net/?channels=web2py'
p4980
tp4981
aasbasbasbasbasbasbasbag57
(g73
g59
NtRp4982
(dp4983
g62
(dp4984
sg71
g4549
sg64
(lp4985
g57
(g78
g59
NtRp4986
(dp4987
g62
(dp4988
sg71
g4982
sg64
(lp4989
g57
(g58
g59
NtRp4990
(dp4991
g62
(dp4992
g70
I2
ssg71
g4986
sg64
(lp4993
g57
(g66
g59
NtRp4994
(dp4995
g62
(dp4996
g70
I1
ssg71
Nsg64
(lp4997
g57
(g73
g59
NtRp4998
(dp4999
g62
(dp5000
sg71
g4994
sg64
(lp5001
g57
(g78
g59
NtRp5002
(dp5003
g62
(dp5004
sg71
g4998
sg64
(lp5005
g57
(g58
g59
NtRp5006
(dp5007
g62
(dp5008
g70
I1
ssg71
g5002
sg64
(lp5009
g4434
(S's\x07\x00\x00\x00Plugins'
tRp5010
asbasbasbag57
(g73
g59
NtRp5011
(dp5012
g62
(dp5013
sg71
g4994
sg64
(lp5014
g57
(g78
g59
NtRp5015
(dp5016
g62
(dp5017
sg71
g5011
sg64
(lp5018
g57
(g58
g59
NtRp5019
(dp5020
g62
(dp5021
g70
I1
ssg71
g5015
sg64
(lp5022
I00
asbasbasbag57
(g73
g59
NtRp5023
(dp5024
g62
(dp5025
sg71
g4994
sg64
(lp5026
g57
(g78
g59
NtRp5027
(dp5028
g62
(dp5029
sg71
g5023
sg64
(lp5030
g57
(g58
g59
NtRp5031
(dp5032
g62
(dp5033
g70
I1
ssg71
g5027
sg64
(lp5034
Nasbasbasbag57
(g73
g59
NtRp5035
(dp5036
g62
(dp5037
sg71
g4994
sg64
(lp5038
g57
(g78
g59
NtRp5039
(dp5040
g62
(dp5041
sg71
g5035
sg64
(lp5042
g57
(g58
g59
NtRp5043
(dp5044
g62
(dp5045
g70
I1
ssg71
g5039
sg64
(lp5046
(lp5047
(S'plugin_wiki'
p5048
I00
S'http://web2py.com/examples/default/download'
p5049
tp5050
a(g4434
(S's\r\x00\x00\x00Other Plugins'
tRp5051
I00
g4781
tp5052
a(g4434
(S's\x0e\x00\x00\x00Layout Plugins'
tRp5053
I00
g4784
tp5054
aasbasbasbasbasbasbasbasbasbasbasbasbasbasbasbasbasbasbasbag57
(g73
g59
NtRp5055
(dp5056
g62
(dp5057
sg71
g3944
sg64
(lp5058
g57
(g78
g59
NtRp5059
(dp5060
g62
(dp5061
g82
g83
ssg71
g5055
sg64
(lp5062
S'meta'
p5063
asbag57
(g78
g59
NtRp5064
(dp5065
g62
(dp5066
g89
g90
ssg71
g5055
sg64
(lp5067
S':'
asbag57
(g78
g59
NtRp5068
(dp5069
g62
(dp5070
sg71
g5055
sg64
(lp5071
g57
(g58
g59
NtRp5072
(dp5073
g62
(dp5074
g70
I5
ssg71
g5068
sg64
(lp5075
g57
(g66
g59
NtRp5076
(dp5077
g62
(dp5078
g70
I4
ssg71
Nsg64
(lp5079
g57
(g73
g59
NtRp5080
(dp5081
g62
(dp5082
sg71
g5076
sg64
(lp5083
g57
(g78
g59
NtRp5084
(dp5085
g62
(dp5086
g82
g83
ssg71
g5080
sg64
(lp5087
S'author'
p5088
asbag57
(g78
g59
NtRp5089
(dp5090
g62
(dp5091
g89
g90
ssg71
g5080
sg64
(lp5092
S':'
asbag57
(g78
g59
NtRp5093
(dp5094
g62
(dp5095
sg71
g5080
sg64
(lp5096
g57
(g58
g59
NtRp5097
(dp5098
g62
(dp5099
g70
I4
ssg71
g5093
sg64
(lp5100
S'Your Name <you@example.com>'
p5101
asbasbasbag57
(g73
g59
NtRp5102
(dp5103
g62
(dp5104
sg71
g5076
sg64
(lp5105
g57
(g78
g59
NtRp5106
(dp5107
g62
(dp5108
g82
g83
ssg71
g5102
sg64
(lp5109
S'description'
p5110
asbag57
(g78
g59
NtRp5111
(dp5112
g62
(dp5113
g89
g90
ssg71
g5102
sg64
(lp5114
S':'
asbag57
(g78
g59
NtRp5115
(dp5116
g62
(dp5117
sg71
g5102
sg64
(lp5118
g57
(g58
g59
NtRp5119
(dp5120
g62
(dp5121
g70
I4
ssg71
g5115
sg64
(lp5122
S'a cool new app'
p5123
asbasbasbag57
(g73
g59
NtRp5124
(dp5125
g62
(dp5126
sg71
g5076
sg64
(lp5127
g57
(g78
g59
NtRp5128
(dp5129
g62
(dp5130
g82
g83
ssg71
g5124
sg64
(lp5131
S'generator'
p5132
asbag57
(g78
g59
NtRp5133
(dp5134
g62
(dp5135
g89
g90
ssg71
g5124
sg64
(lp5136
S':'
asbag57
(g78
g59
NtRp5137
(dp5138
g62
(dp5139
sg71
g5124
sg64
(lp5140
g57
(g58
g59
NtRp5141
(dp5142
g62
(dp5143
g70
I4
ssg71
g5137
sg64
(lp5144
S'Web2py Web Framework'
p5145
asbasbasbag57
(g73
g59
NtRp5146
(dp5147
g62
(dp5148
sg71
g5076
sg64
(lp5149
g57
(g78
g59
NtRp5150
(dp5151
g62
(dp5152
g82
g83
ssg71
g5146
sg64
(lp5153
S'keywords'
p5154
asbag57
(g78
g59
NtRp5155
(dp5156
g62
(dp5157
g89
g90
ssg71
g5146
sg64
(lp5158
S':'
asbag57
(g78
g59
NtRp5159
(dp5160
g62
(dp5161
sg71
g5146
sg64
(lp5162
g57
(g58
g59
NtRp5163
(dp5164
g62
(dp5165
g70
I4
ssg71
g5159
sg64
(lp5166
S'web2py, python, framework'
p5167
asbasbasbasbasbasbasbag57
(g73
g59
NtRp5168
(dp5169
g62
(dp5170
sg71
g3944
sg64
(lp5171
g57
(g78
g59
NtRp5172
(dp5173
g62
(dp5174
g82
g83
ssg71
g5168
sg64
(lp5175
S'models_to_run'
p5176
asbag57
(g78
g59
NtRp5177
(dp5178
g62
(dp5179
g89
g90
ssg71
g5168
sg64
(lp5180
S':'
asbag57
(g78
g59
NtRp5181
(dp5182
g62
(dp5183
sg71
g5168
sg64
(lp5184
g57
(g58
g59
NtRp5185
(dp5186
g62
(dp5187
g70
I5
ssg71
g5181
sg64
(lp5188
g57
(g66
g59
NtRp5189
(dp5190
g62
(dp5191
g70
I4
ssg71
Nsg64
(lp5192
g57
(g73
g59
NtRp5193
(dp5194
g62
(dp5195
sg71
g5189
sg64
(lp5196
g57
(g78
g59
NtRp5197
(dp5198
g62
(dp5199
sg71
g5193
sg64
(lp5200
g57
(g58
g59
NtRp5201
(dp5202
g62
(dp5203
g70
I4
ssg71
g5197
sg64
(lp5204
S'^\\w+\\.py$'
p5205
asbasbasbag57
(g73
g59
NtRp5206
(dp5207
g62
(dp5208
sg71
g5189
sg64
(lp5209
g57
(g78
g59
NtRp5210
(dp5211
g62
(dp5212
sg71
g5206
sg64
(lp5213
g57
(g58
g59
NtRp5214
(dp5215
g62
(dp5216
g70
I4
ssg71
g5210
sg64
(lp5217
S'^altas/\\w+\\.py$'
p5218
asbasbasbag57
(g73
g59
NtRp5219
(dp5220
g62
(dp5221
sg71
g5189
sg64
(lp5222
g57
(g78
g59
NtRp5223
(dp5224
g62
(dp5225
sg71
g5219
sg64
(lp5226
g57
(g58
g59
NtRp5227
(dp5228
g62
(dp5229
g70
I4
ssg71
g5223
sg64
(lp5230
S'^altas/empleados/\\w+\\.py$'
p5231
asbasbasbasbasbasbasbag57
(g73
g59
NtRp5232
(dp5233
g62
(dp5234
sg71
g3944
sg64
(lp5235
g57
(g78
g59
NtRp5236
(dp5237
g62
(dp5238
g82
g83
ssg71
g5232
sg64
(lp5239
S'postprocessing'
p5240
asbag57
(g78
g59
NtRp5241
(dp5242
g62
(dp5243
g89
g90
ssg71
g5232
sg64
(lp5244
S':'
asbag57
(g78
g59
NtRp5245
(dp5246
g62
(dp5247
sg71
g5232
sg64
(lp5248
g57
(g58
g59
NtRp5249
(dp5250
g62
(dp5251
g70
I5
ssg71
g5245
sg64
(lp5252
g57
(g66
g59
NtRp5253
(dp5254
g62
(dp5255
g70
I4
ssg71
Nsg64
(lp5256
sbasbasbasbag57
(g73
g59
NtRp5257
(dp5258
g62
(dp5259
sg71
g3944
sg64
(lp5260
g57
(g78
g59
NtRp5261
(dp5262
g62
(dp5263
g82
g83
ssg71
g5257
sg64
(lp5264
S'session_cookie_expires'
p5265
asbag57
(g78
g59
NtRp5266
(dp5267
g62
(dp5268
g89
g90
ssg71
g5257
sg64
(lp5269
S':'
asbag57
(g78
g59
NtRp5270
(dp5271
g62
(dp5272
sg71
g5257
sg64
(lp5273
g57
(g58
g59
NtRp5274
(dp5275
g62
(dp5276
g70
I5
ssg71
g5270
sg64
(lp5277
S'None'
p5278
asbasbasbag57
(g73
g59
NtRp5279
(dp5280
g62
(dp5281
sg71
g3944
sg64
(lp5282
g57
(g78
g59
NtRp5283
(dp5284
g62
(dp5285
g82
g83
ssg71
g5279
sg64
(lp5286
S'session_data_name'
p5287
asbag57
(g78
g59
NtRp5288
(dp5289
g62
(dp5290
g89
g90
ssg71
g5279
sg64
(lp5291
S':'
asbag57
(g78
g59
NtRp5292
(dp5293
g62
(dp5294
sg71
g5279
sg64
(lp5295
g57
(g58
g59
NtRp5296
(dp5297
g62
(dp5298
g70
I5
ssg71
g5292
sg64
(lp5299
S'session_data_sueldos'
p5300
asbasbasbag57
(g73
g59
NtRp5301
(dp5302
g62
(dp5303
sg71
g3944
sg64
(lp5304
g57
(g78
g59
NtRp5305
(dp5306
g62
(dp5307
g82
g83
ssg71
g5301
sg64
(lp5308
S'session_file'
p5309
asbag57
(g78
g59
NtRp5310
(dp5311
g62
(dp5312
g89
g90
ssg71
g5301
sg64
(lp5313
S':'
asbag57
(g78
g59
NtRp5314
(dp5315
g62
(dp5316
sg71
g5301
sg64
(lp5317
g57
(g58
g59
NtRp5318
(dp5319
g62
(dp5320
g70
I5
ssg71
g5314
sg64
(lp5321
S"<open file '/home/marco/projects/contabilidad/web2py/applications/sueldos/sessions/127.0.0.1-09a8fa4f-31e4-4480-b892-b6370616c8e4', mode 'rb+' at 0x3a0c8a0>"
p5322
asbasbasbag57
(g73
g59
NtRp5323
(dp5324
g62
(dp5325
sg71
g3944
sg64
(lp5326
g57
(g78
g59
NtRp5327
(dp5328
g62
(dp5329
g82
g83
ssg71
g5323
sg64
(lp5330
S'session_filename'
p5331
asbag57
(g78
g59
NtRp5332
(dp5333
g62
(dp5334
g89
g90
ssg71
g5323
sg64
(lp5335
S':'
asbag57
(g78
g59
NtRp5336
(dp5337
g62
(dp5338
sg71
g5323
sg64
(lp5339
g57
(g58
g59
NtRp5340
(dp5341
g62
(dp5342
g70
I5
ssg71
g5336
sg64
(lp5343
S'/home/marco/projects/contabilidad/web2py/applications/sueldos/sessions/127.0.0.1-09a8fa4f-31e4-4480-b892-b6370616c8e4'
p5344
asbasbasbag57
(g73
g59
NtRp5345
(dp5346
g62
(dp5347
sg71
g3944
sg64
(lp5348
g57
(g78
g59
NtRp5349
(dp5350
g62
(dp5351
g82
g83
ssg71
g5345
sg64
(lp5352
S'session_id'
p5353
asbag57
(g78
g59
NtRp5354
(dp5355
g62
(dp5356
g89
g90
ssg71
g5345
sg64
(lp5357
S':'
asbag57
(g78
g59
NtRp5358
(dp5359
g62
(dp5360
sg71
g5345
sg64
(lp5361
g57
(g58
g59
NtRp5362
(dp5363
g62
(dp5364
g70
I5
ssg71
g5358
sg64
(lp5365
g475
asbasbasbag57
(g73
g59
NtRp5366
(dp5367
g62
(dp5368
sg71
g3944
sg64
(lp5369
g57
(g78
g59
NtRp5370
(dp5371
g62
(dp5372
g82
g83
ssg71
g5366
sg64
(lp5373
S'session_id_name'
p5374
asbag57
(g78
g59
NtRp5375
(dp5376
g62
(dp5377
g89
g90
ssg71
g5366
sg64
(lp5378
S':'
asbag57
(g78
g59
NtRp5379
(dp5380
g62
(dp5381
sg71
g5366
sg64
(lp5382
g57
(g58
g59
NtRp5383
(dp5384
g62
(dp5385
g70
I5
ssg71
g5379
sg64
(lp5386
g4001
asbasbasbag57
(g73
g59
NtRp5387
(dp5388
g62
(dp5389
sg71
g3944
sg64
(lp5390
g57
(g78
g59
NtRp5391
(dp5392
g62
(dp5393
g82
g83
ssg71
g5387
sg64
(lp5394
S'session_locked'
p5395
asbag57
(g78
g59
NtRp5396
(dp5397
g62
(dp5398
g89
g90
ssg71
g5387
sg64
(lp5399
S':'
asbag57
(g78
g59
NtRp5400
(dp5401
g62
(dp5402
sg71
g5387
sg64
(lp5403
g57
(g58
g59
NtRp5404
(dp5405
g62
(dp5406
g70
I5
ssg71
g5400
sg64
(lp5407
g1669
asbasbasbag57
(g73
g59
NtRp5408
(dp5409
g62
(dp5410
sg71
g3944
sg64
(lp5411
g57
(g78
g59
NtRp5412
(dp5413
g62
(dp5414
g82
g83
ssg71
g5408
sg64
(lp5415
S'session_new'
p5416
asbag57
(g78
g59
NtRp5417
(dp5418
g62
(dp5419
g89
g90
ssg71
g5408
sg64
(lp5420
S':'
asbag57
(g78
g59
NtRp5421
(dp5422
g62
(dp5423
sg71
g5408
sg64
(lp5424
g57
(g58
g59
NtRp5425
(dp5426
g62
(dp5427
g70
I5
ssg71
g5421
sg64
(lp5428
g100
asbasbasbag57
(g73
g59
NtRp5429
(dp5430
g62
(dp5431
sg71
g3944
sg64
(lp5432
g57
(g78
g59
NtRp5433
(dp5434
g62
(dp5435
g82
g83
ssg71
g5429
sg64
(lp5436
S'session_storage_type'
p5437
asbag57
(g78
g59
NtRp5438
(dp5439
g62
(dp5440
g89
g90
ssg71
g5429
sg64
(lp5441
S':'
asbag57
(g78
g59
NtRp5442
(dp5443
g62
(dp5444
sg71
g5429
sg64
(lp5445
g57
(g58
g59
NtRp5446
(dp5447
g62
(dp5448
g70
I5
ssg71
g5442
sg64
(lp5449
g3636
asbasbasbag57
(g73
g59
NtRp5450
(dp5451
g62
(dp5452
sg71
g3944
sg64
(lp5453
g57
(g78
g59
NtRp5454
(dp5455
g62
(dp5456
g82
g83
ssg71
g5450
sg64
(lp5457
S'status'
p5458
asbag57
(g78
g59
NtRp5459
(dp5460
g62
(dp5461
g89
g90
ssg71
g5450
sg64
(lp5462
S':'
asbag57
(g78
g59
NtRp5463
(dp5464
g62
(dp5465
sg71
g5450
sg64
(lp5466
g57
(g58
g59
NtRp5467
(dp5468
g62
(dp5469
g70
I5
ssg71
g5463
sg64
(lp5470
S'200'
p5471
asbasbasbag57
(g73
g59
NtRp5472
(dp5473
g62
(dp5474
sg71
g3944
sg64
(lp5475
g57
(g78
g59
NtRp5476
(dp5477
g62
(dp5478
g82
g83
ssg71
g5472
sg64
(lp5479
S'subtitle'
p5480
asbag57
(g78
g59
NtRp5481
(dp5482
g62
(dp5483
g89
g90
ssg71
g5472
sg64
(lp5484
S':'
asbag57
(g78
g59
NtRp5485
(dp5486
g62
(dp5487
sg71
g5472
sg64
(lp5488
g57
(g58
g59
NtRp5489
(dp5490
g62
(dp5491
g70
I5
ssg71
g5485
sg64
(lp5492
g4434
(S's\r\x00\x00\x00customize me!'
tRp5493
asbasbasbag57
(g73
g59
NtRp5494
(dp5495
g62
(dp5496
sg71
g3944
sg64
(lp5497
g57
(g78
g59
NtRp5498
(dp5499
g62
(dp5500
g82
g83
ssg71
g5494
sg64
(lp5501
S'title'
p5502
asbag57
(g78
g59
NtRp5503
(dp5504
g62
(dp5505
g89
g90
ssg71
g5494
sg64
(lp5506
S':'
asbag57
(g78
g59
NtRp5507
(dp5508
g62
(dp5509
sg71
g5494
sg64
(lp5510
g57
(g58
g59
NtRp5511
(dp5512
g62
(dp5513
g70
I5
ssg71
g5507
sg64
(lp5514
S'Sueldos'
p5515
asbasbasbag57
(g73
g59
NtRp5516
(dp5517
g62
(dp5518
sg71
g3944
sg64
(lp5519
g57
(g78
g59
NtRp5520
(dp5521
g62
(dp5522
g82
g83
ssg71
g5516
sg64
(lp5523
S'view'
p5524
asbag57
(g78
g59
NtRp5525
(dp5526
g62
(dp5527
g89
g90
ssg71
g5516
sg64
(lp5528
S':'
asbag57
(g78
g59
NtRp5529
(dp5530
g62
(dp5531
sg71
g5516
sg64
(lp5532
g57
(g58
g59
NtRp5533
(dp5534
g62
(dp5535
g70
I5
ssg71
g5529
sg64
(lp5536
S'altas/empleados.html'
p5537
asbasbasbasbasbsS'locals'
p5538
(dp5539
S'parametros'
p5540
S"['skmsldmsdlk']"
p5541
sS'CONSTANTES'
p5542
S'[5, 4, 3, 2, 7, 6, 5, 4, 3, 2]'
p5543
sS'value'
p5544
S"'skmsldmsdlk'"
p5545
sS'self'
p5546
S'<__restricted__.IS_CUIS object>'
p5547
sssS'traceback'
p5548
S'Traceback (most recent call last):\n  File "/home/marco/projects/contabilidad/web2py/gluon/restricted.py", line 212, in restricted\n    exec ccode in environment\n  File "/home/marco/projects/contabilidad/web2py/applications/sueldos/controllers/altas.py", line 22, in <module>\n  File "/home/marco/projects/contabilidad/web2py/gluon/globals.py", line 193, in <lambda>\n    self._caller = lambda f: f()\n  File "/home/marco/projects/contabilidad/web2py/applications/sueldos/controllers/altas.py", line 13, in empleados\n    if form.process().accepted:\n  File "/home/marco/projects/contabilidad/web2py/gluon/html.py", line 2177, in process\n    self.validate(**kwargs)\n  File "/home/marco/projects/contabilidad/web2py/gluon/html.py", line 2116, in validate\n    if self.accepts(**kwargs):\n  File "/home/marco/projects/contabilidad/web2py/gluon/sqlhtml.py", line 1286, in accepts\n    **kwargs\n  File "/home/marco/projects/contabilidad/web2py/gluon/html.py", line 1999, in accepts\n    status = self._traverse(status, hideerror)\n  File "/home/marco/projects/contabilidad/web2py/gluon/html.py", line 847, in _traverse\n    newstatus = c._traverse(status, hideerror) and newstatus\n  File "/home/marco/projects/contabilidad/web2py/gluon/html.py", line 847, in _traverse\n    newstatus = c._traverse(status, hideerror) and newstatus\n  File "/home/marco/projects/contabilidad/web2py/gluon/html.py", line 847, in _traverse\n    newstatus = c._traverse(status, hideerror) and newstatus\n  File "/home/marco/projects/contabilidad/web2py/gluon/html.py", line 847, in _traverse\n    newstatus = c._traverse(status, hideerror) and newstatus\n  File "/home/marco/projects/contabilidad/web2py/gluon/html.py", line 854, in _traverse\n    newstatus = self._validate()\n  File "/home/marco/projects/contabilidad/web2py/gluon/html.py", line 1750, in _validate\n    (value, errors) = validator(value)\n  File "/home/marco/projects/contabilidad/web2py/applications/sueldos/models/db_empleados.py", line 12, in __call__\n    aux=parametros[0]+parametros[1]\nIndexError: list index out of range\n'
p5549
s.