(dp1
S'output'
p2
S"<type 'exceptions.TypeError'> reload() argument must be module"
p3
sS'layer'
p4
S'/home/marco/projects/contabilidad/web2py/applications/sueldos/controllers/vistas.py'
p5
sS'code'
p6
S"# -*- coding: utf-8 -*-\n\ndef personal():\n    form = SQLFORM.grid(db.empleados, ui='jquery-ui', user_signature=False)\n    return dict(form=form)\n\ndef escalas():\n    # if request.vars.gremio:\n    #     lista=db(db.categorias.gremio==int(param)).select()\n    # else:\n    lista=request.vars.gremio\n    # nueva=crud.create(db.categorias, next=URL('vistas','escalas', vars=dict(gremio=request.vars.gremio, sindicato=request.vars.sindicato)))\n\n    # if nueva.process().accepted:\n    #     session.flash='La categoria ha sido agregada'\n    # elif nueva.errors:\n    #     response.flash='El formulario tiene errores'\n        \n    return dict(lista=lista)\n\ndef importes():\n    lista=db(db.valores.gremio==request.vars.id).select()\n\n    nuevo=crud.create(db.valores, onaccept=reload('self.importes'))\n\n    if nuevo.process().accepted:\n        session.flash='El importe ha sido agregado'\n        \n    elif nuevo.errors:\n        response.flash='El formulario tiene errores'\n    return dict(listado=lista, nuevo=nuevo)\n\nresponse._vars=response._caller(importes)\n"
p7
sS'snapshot'
p8
(dp9
S'exception'
p10
(dp11
S'__hash__'
p12
S"<method-wrapper '__hash__' of exceptions.TypeError object>"
p13
sS'__setattr__'
p14
S"<method-wrapper '__setattr__' of exceptions.TypeError object>"
p15
sS'__reduce_ex__'
p16
S'<built-in method __reduce_ex__ of exceptions.TypeError object>'
p17
sS'__getslice__'
p18
S"<method-wrapper '__getslice__' of exceptions.TypeError object>"
p19
sS'__getitem__'
p20
S"<method-wrapper '__getitem__' of exceptions.TypeError object>"
p21
sS'__setstate__'
p22
S'<built-in method __setstate__ of exceptions.TypeError object>'
p23
sS'args'
p24
S"('reload() argument must be module',)"
p25
sS'__reduce__'
p26
S'<built-in method __reduce__ of exceptions.TypeError object>'
p27
sS'__str__'
p28
S"<method-wrapper '__str__' of exceptions.TypeError object>"
p29
sS'__format__'
p30
S'<built-in method __format__ of exceptions.TypeError object>'
p31
sS'__getattribute__'
p32
S"<method-wrapper '__getattribute__' of exceptions.TypeError object>"
p33
sS'__class__'
p34
S"<type 'exceptions.TypeError'>"
p35
sS'__unicode__'
p36
S'<built-in method __unicode__ of exceptions.TypeError object>'
p37
sS'__delattr__'
p38
S"<method-wrapper '__delattr__' of exceptions.TypeError object>"
p39
sS'__subclasshook__'
p40
S'<built-in method __subclasshook__ of type object>'
p41
sS'__repr__'
p42
S"<method-wrapper '__repr__' of exceptions.TypeError object>"
p43
sS'__dict__'
p44
S'{}'
p45
sS'__sizeof__'
p46
S'<built-in method __sizeof__ of exceptions.TypeError object>'
p47
sS'__doc__'
p48
S"'Inappropriate argument type.'"
p49
sS'__init__'
p50
S"<method-wrapper '__init__' of exceptions.TypeError object>"
p51
sS'__new__'
p52
S'<built-in method __new__ of type object>'
p53
ssS'evalue'
p54
S'reload() argument must be module'
p55
sS'request'
p56
ccopy_reg
_reconstructor
p57
(cgluon.html
BEAUTIFY
p58
c__builtin__
object
p59
NtRp60
(dp61
S'attributes'
p62
(dp63
sS'components'
p64
(lp65
g57
(cgluon.html
TABLE
p66
g59
NtRp67
(dp68
g62
(dp69
S'level'
p70
I5
ssS'parent'
p71
Nsg64
(lp72
g57
(cgluon.html
TR
p73
g59
NtRp74
(dp75
g62
(dp76
sg71
g67
sg64
(lp77
g57
(cgluon.html
TD
p78
g59
NtRp79
(dp80
g62
(dp81
S'_style'
p82
S'font-weight:bold;vertical-align:top'
p83
ssg71
g74
sg64
(lp84
S'ajax'
p85
asbag57
(g78
g59
NtRp86
(dp87
g62
(dp88
S'_valign'
p89
S'top'
p90
ssg71
g74
sg64
(lp91
S':'
asbag57
(g78
g59
NtRp92
(dp93
g62
(dp94
sg71
g74
sg64
(lp95
g57
(g58
g59
NtRp96
(dp97
g62
(dp98
g70
I5
ssg71
g92
sg64
(lp99
S'False'
p100
asbasbasbag57
(g73
g59
NtRp101
(dp102
g62
(dp103
sg71
g67
sg64
(lp104
g57
(g78
g59
NtRp105
(dp106
g62
(dp107
g82
g83
ssg71
g101
sg64
(lp108
S'application'
p109
asbag57
(g78
g59
NtRp110
(dp111
g62
(dp112
g89
g90
ssg71
g101
sg64
(lp113
S':'
asbag57
(g78
g59
NtRp114
(dp115
g62
(dp116
sg71
g101
sg64
(lp117
g57
(g58
g59
NtRp118
(dp119
g62
(dp120
g70
I5
ssg71
g114
sg64
(lp121
S'sueldos'
p122
asbasbasbag57
(g73
g59
NtRp123
(dp124
g62
(dp125
sg71
g67
sg64
(lp126
g57
(g78
g59
NtRp127
(dp128
g62
(dp129
g82
g83
ssg71
g123
sg64
(lp130
g24
asbag57
(g78
g59
NtRp131
(dp132
g62
(dp133
g89
g90
ssg71
g123
sg64
(lp134
S':'
asbag57
(g78
g59
NtRp135
(dp136
g62
(dp137
sg71
g123
sg64
(lp138
g57
(g58
g59
NtRp139
(dp140
g62
(dp141
g70
I5
ssg71
g135
sg64
(lp142
g57
(g66
g59
NtRp143
(dp144
g62
(dp145
g70
I4
ssg71
Nsg64
(lp146
sbasbasbasbag57
(g73
g59
NtRp147
(dp148
g62
(dp149
sg71
g67
sg64
(lp150
g57
(g78
g59
NtRp151
(dp152
g62
(dp153
g82
g83
ssg71
g147
sg64
(lp154
S'body'
p155
asbag57
(g78
g59
NtRp156
(dp157
g62
(dp158
g89
g90
ssg71
g147
sg64
(lp159
S':'
asbag57
(g78
g59
NtRp160
(dp161
g62
(dp162
sg71
g147
sg64
(lp163
g57
(g58
g59
NtRp164
(dp165
g62
(dp166
g70
I5
ssg71
g160
sg64
(lp167
S"<open file '<fdopen>', mode 'w+b' at 0x4614c90>"
p168
asbasbasbag57
(g73
g59
NtRp169
(dp170
g62
(dp171
sg71
g67
sg64
(lp172
g57
(g78
g59
NtRp173
(dp174
g62
(dp175
g82
g83
ssg71
g169
sg64
(lp176
S'cid'
p177
asbag57
(g78
g59
NtRp178
(dp179
g62
(dp180
g89
g90
ssg71
g169
sg64
(lp181
S':'
asbag57
(g78
g59
NtRp182
(dp183
g62
(dp184
sg71
g169
sg64
(lp185
g57
(g58
g59
NtRp186
(dp187
g62
(dp188
g70
I5
ssg71
g182
sg64
(lp189
S'None'
p190
asbasbasbag57
(g73
g59
NtRp191
(dp192
g62
(dp193
sg71
g67
sg64
(lp194
g57
(g78
g59
NtRp195
(dp196
g62
(dp197
g82
g83
ssg71
g191
sg64
(lp198
S'client'
p199
asbag57
(g78
g59
NtRp200
(dp201
g62
(dp202
g89
g90
ssg71
g191
sg64
(lp203
S':'
asbag57
(g78
g59
NtRp204
(dp205
g62
(dp206
sg71
g191
sg64
(lp207
g57
(g58
g59
NtRp208
(dp209
g62
(dp210
g70
I5
ssg71
g204
sg64
(lp211
S'127.0.0.1'
p212
asbasbasbag57
(g73
g59
NtRp213
(dp214
g62
(dp215
sg71
g67
sg64
(lp216
g57
(g78
g59
NtRp217
(dp218
g62
(dp219
g82
g83
ssg71
g213
sg64
(lp220
S'controller'
p221
asbag57
(g78
g59
NtRp222
(dp223
g62
(dp224
g89
g90
ssg71
g213
sg64
(lp225
S':'
asbag57
(g78
g59
NtRp226
(dp227
g62
(dp228
sg71
g213
sg64
(lp229
g57
(g58
g59
NtRp230
(dp231
g62
(dp232
g70
I5
ssg71
g226
sg64
(lp233
S'vistas'
p234
asbasbasbag57
(g73
g59
NtRp235
(dp236
g62
(dp237
sg71
g67
sg64
(lp238
g57
(g78
g59
NtRp239
(dp240
g62
(dp241
g82
g83
ssg71
g235
sg64
(lp242
S'cookies'
p243
asbag57
(g78
g59
NtRp244
(dp245
g62
(dp246
g89
g90
ssg71
g235
sg64
(lp247
S':'
asbag57
(g78
g59
NtRp248
(dp249
g62
(dp250
sg71
g235
sg64
(lp251
g57
(g58
g59
NtRp252
(dp253
g62
(dp254
g70
I5
ssg71
g248
sg64
(lp255
g57
(g66
g59
NtRp256
(dp257
g62
(dp258
g70
I4
ssg71
Nsg64
(lp259
g57
(g73
g59
NtRp260
(dp261
g62
(dp262
sg71
g256
sg64
(lp263
g57
(g78
g59
NtRp264
(dp265
g62
(dp266
g82
g83
ssg71
g260
sg64
(lp267
S'session_id_admin'
p268
asbag57
(g78
g59
NtRp269
(dp270
g62
(dp271
g89
g90
ssg71
g260
sg64
(lp272
S':'
asbag57
(g78
g59
NtRp273
(dp274
g62
(dp275
sg71
g260
sg64
(lp276
g57
(g58
g59
NtRp277
(dp278
g62
(dp279
g70
I4
ssg71
g273
sg64
(lp280
S'127.0.0.1-02abd043-fc6c-40a0-be95-723d18a22c5d'
p281
ag57
(g66
g59
NtRp282
(dp283
g62
(dp284
g70
I3
ssg71
Nsg64
(lp285
g57
(g73
g59
NtRp286
(dp287
g62
(dp288
sg71
g282
sg64
(lp289
g57
(g78
g59
NtRp290
(dp291
g62
(dp292
g82
g83
ssg71
g286
sg64
(lp293
S'comment'
p294
asbag57
(g78
g59
NtRp295
(dp296
g62
(dp297
g89
g90
ssg71
g286
sg64
(lp298
S':'
asbag57
(g78
g59
NtRp299
(dp300
g62
(dp301
sg71
g286
sg64
(lp302
g57
(g58
g59
NtRp303
(dp304
g62
(dp305
g70
I3
ssg71
g299
sg64
(lp306
S''
asbasbasbag57
(g73
g59
NtRp307
(dp308
g62
(dp309
sg71
g282
sg64
(lp310
g57
(g78
g59
NtRp311
(dp312
g62
(dp313
g82
g83
ssg71
g307
sg64
(lp314
S'domain'
p315
asbag57
(g78
g59
NtRp316
(dp317
g62
(dp318
g89
g90
ssg71
g307
sg64
(lp319
S':'
asbag57
(g78
g59
NtRp320
(dp321
g62
(dp322
sg71
g307
sg64
(lp323
g57
(g58
g59
NtRp324
(dp325
g62
(dp326
g70
I3
ssg71
g320
sg64
(lp327
S''
asbasbasbag57
(g73
g59
NtRp328
(dp329
g62
(dp330
sg71
g282
sg64
(lp331
g57
(g78
g59
NtRp332
(dp333
g62
(dp334
g82
g83
ssg71
g328
sg64
(lp335
S'expires'
p336
asbag57
(g78
g59
NtRp337
(dp338
g62
(dp339
g89
g90
ssg71
g328
sg64
(lp340
S':'
asbag57
(g78
g59
NtRp341
(dp342
g62
(dp343
sg71
g328
sg64
(lp344
g57
(g58
g59
NtRp345
(dp346
g62
(dp347
g70
I3
ssg71
g341
sg64
(lp348
S''
asbasbasbag57
(g73
g59
NtRp349
(dp350
g62
(dp351
sg71
g282
sg64
(lp352
g57
(g78
g59
NtRp353
(dp354
g62
(dp355
g82
g83
ssg71
g349
sg64
(lp356
S'httponly'
p357
asbag57
(g78
g59
NtRp358
(dp359
g62
(dp360
g89
g90
ssg71
g349
sg64
(lp361
S':'
asbag57
(g78
g59
NtRp362
(dp363
g62
(dp364
sg71
g349
sg64
(lp365
g57
(g58
g59
NtRp366
(dp367
g62
(dp368
g70
I3
ssg71
g362
sg64
(lp369
S''
asbasbasbag57
(g73
g59
NtRp370
(dp371
g62
(dp372
sg71
g282
sg64
(lp373
g57
(g78
g59
NtRp374
(dp375
g62
(dp376
g82
g83
ssg71
g370
sg64
(lp377
S'max-age'
p378
asbag57
(g78
g59
NtRp379
(dp380
g62
(dp381
g89
g90
ssg71
g370
sg64
(lp382
S':'
asbag57
(g78
g59
NtRp383
(dp384
g62
(dp385
sg71
g370
sg64
(lp386
g57
(g58
g59
NtRp387
(dp388
g62
(dp389
g70
I3
ssg71
g383
sg64
(lp390
S''
asbasbasbag57
(g73
g59
NtRp391
(dp392
g62
(dp393
sg71
g282
sg64
(lp394
g57
(g78
g59
NtRp395
(dp396
g62
(dp397
g82
g83
ssg71
g391
sg64
(lp398
S'path'
p399
asbag57
(g78
g59
NtRp400
(dp401
g62
(dp402
g89
g90
ssg71
g391
sg64
(lp403
S':'
asbag57
(g78
g59
NtRp404
(dp405
g62
(dp406
sg71
g391
sg64
(lp407
g57
(g58
g59
NtRp408
(dp409
g62
(dp410
g70
I3
ssg71
g404
sg64
(lp411
S''
asbasbasbag57
(g73
g59
NtRp412
(dp413
g62
(dp414
sg71
g282
sg64
(lp415
g57
(g78
g59
NtRp416
(dp417
g62
(dp418
g82
g83
ssg71
g412
sg64
(lp419
S'secure'
p420
asbag57
(g78
g59
NtRp421
(dp422
g62
(dp423
g89
g90
ssg71
g412
sg64
(lp424
S':'
asbag57
(g78
g59
NtRp425
(dp426
g62
(dp427
sg71
g412
sg64
(lp428
g57
(g58
g59
NtRp429
(dp430
g62
(dp431
g70
I3
ssg71
g425
sg64
(lp432
S''
asbasbasbag57
(g73
g59
NtRp433
(dp434
g62
(dp435
sg71
g282
sg64
(lp436
g57
(g78
g59
NtRp437
(dp438
g62
(dp439
g82
g83
ssg71
g433
sg64
(lp440
S'version'
p441
asbag57
(g78
g59
NtRp442
(dp443
g62
(dp444
g89
g90
ssg71
g433
sg64
(lp445
S':'
asbag57
(g78
g59
NtRp446
(dp447
g62
(dp448
sg71
g433
sg64
(lp449
g57
(g58
g59
NtRp450
(dp451
g62
(dp452
g70
I3
ssg71
g446
sg64
(lp453
S''
asbasbasbasbasbasbasbag57
(g73
g59
NtRp454
(dp455
g62
(dp456
sg71
g256
sg64
(lp457
g57
(g78
g59
NtRp458
(dp459
g62
(dp460
g82
g83
ssg71
g454
sg64
(lp461
S'session_id_sueldos'
p462
asbag57
(g78
g59
NtRp463
(dp464
g62
(dp465
g89
g90
ssg71
g454
sg64
(lp466
S':'
asbag57
(g78
g59
NtRp467
(dp468
g62
(dp469
sg71
g454
sg64
(lp470
g57
(g58
g59
NtRp471
(dp472
g62
(dp473
g70
I4
ssg71
g467
sg64
(lp474
S'127.0.0.1-05ce4365-dc54-4394-bd3e-60890d75bc96'
p475
ag57
(g66
g59
NtRp476
(dp477
g62
(dp478
g70
I3
ssg71
Nsg64
(lp479
g57
(g73
g59
NtRp480
(dp481
g62
(dp482
sg71
g476
sg64
(lp483
g57
(g78
g59
NtRp484
(dp485
g62
(dp486
g82
g83
ssg71
g480
sg64
(lp487
g294
asbag57
(g78
g59
NtRp488
(dp489
g62
(dp490
g89
g90
ssg71
g480
sg64
(lp491
S':'
asbag57
(g78
g59
NtRp492
(dp493
g62
(dp494
sg71
g480
sg64
(lp495
g57
(g58
g59
NtRp496
(dp497
g62
(dp498
g70
I3
ssg71
g492
sg64
(lp499
S''
asbasbasbag57
(g73
g59
NtRp500
(dp501
g62
(dp502
sg71
g476
sg64
(lp503
g57
(g78
g59
NtRp504
(dp505
g62
(dp506
g82
g83
ssg71
g500
sg64
(lp507
g315
asbag57
(g78
g59
NtRp508
(dp509
g62
(dp510
g89
g90
ssg71
g500
sg64
(lp511
S':'
asbag57
(g78
g59
NtRp512
(dp513
g62
(dp514
sg71
g500
sg64
(lp515
g57
(g58
g59
NtRp516
(dp517
g62
(dp518
g70
I3
ssg71
g512
sg64
(lp519
S''
asbasbasbag57
(g73
g59
NtRp520
(dp521
g62
(dp522
sg71
g476
sg64
(lp523
g57
(g78
g59
NtRp524
(dp525
g62
(dp526
g82
g83
ssg71
g520
sg64
(lp527
g336
asbag57
(g78
g59
NtRp528
(dp529
g62
(dp530
g89
g90
ssg71
g520
sg64
(lp531
S':'
asbag57
(g78
g59
NtRp532
(dp533
g62
(dp534
sg71
g520
sg64
(lp535
g57
(g58
g59
NtRp536
(dp537
g62
(dp538
g70
I3
ssg71
g532
sg64
(lp539
S''
asbasbasbag57
(g73
g59
NtRp540
(dp541
g62
(dp542
sg71
g476
sg64
(lp543
g57
(g78
g59
NtRp544
(dp545
g62
(dp546
g82
g83
ssg71
g540
sg64
(lp547
g357
asbag57
(g78
g59
NtRp548
(dp549
g62
(dp550
g89
g90
ssg71
g540
sg64
(lp551
S':'
asbag57
(g78
g59
NtRp552
(dp553
g62
(dp554
sg71
g540
sg64
(lp555
g57
(g58
g59
NtRp556
(dp557
g62
(dp558
g70
I3
ssg71
g552
sg64
(lp559
S''
asbasbasbag57
(g73
g59
NtRp560
(dp561
g62
(dp562
sg71
g476
sg64
(lp563
g57
(g78
g59
NtRp564
(dp565
g62
(dp566
g82
g83
ssg71
g560
sg64
(lp567
g378
asbag57
(g78
g59
NtRp568
(dp569
g62
(dp570
g89
g90
ssg71
g560
sg64
(lp571
S':'
asbag57
(g78
g59
NtRp572
(dp573
g62
(dp574
sg71
g560
sg64
(lp575
g57
(g58
g59
NtRp576
(dp577
g62
(dp578
g70
I3
ssg71
g572
sg64
(lp579
S''
asbasbasbag57
(g73
g59
NtRp580
(dp581
g62
(dp582
sg71
g476
sg64
(lp583
g57
(g78
g59
NtRp584
(dp585
g62
(dp586
g82
g83
ssg71
g580
sg64
(lp587
g399
asbag57
(g78
g59
NtRp588
(dp589
g62
(dp590
g89
g90
ssg71
g580
sg64
(lp591
S':'
asbag57
(g78
g59
NtRp592
(dp593
g62
(dp594
sg71
g580
sg64
(lp595
g57
(g58
g59
NtRp596
(dp597
g62
(dp598
g70
I3
ssg71
g592
sg64
(lp599
S''
asbasbasbag57
(g73
g59
NtRp600
(dp601
g62
(dp602
sg71
g476
sg64
(lp603
g57
(g78
g59
NtRp604
(dp605
g62
(dp606
g82
g83
ssg71
g600
sg64
(lp607
g420
asbag57
(g78
g59
NtRp608
(dp609
g62
(dp610
g89
g90
ssg71
g600
sg64
(lp611
S':'
asbag57
(g78
g59
NtRp612
(dp613
g62
(dp614
sg71
g600
sg64
(lp615
g57
(g58
g59
NtRp616
(dp617
g62
(dp618
g70
I3
ssg71
g612
sg64
(lp619
S''
asbasbasbag57
(g73
g59
NtRp620
(dp621
g62
(dp622
sg71
g476
sg64
(lp623
g57
(g78
g59
NtRp624
(dp625
g62
(dp626
g82
g83
ssg71
g620
sg64
(lp627
g441
asbag57
(g78
g59
NtRp628
(dp629
g62
(dp630
g89
g90
ssg71
g620
sg64
(lp631
S':'
asbag57
(g78
g59
NtRp632
(dp633
g62
(dp634
sg71
g620
sg64
(lp635
g57
(g58
g59
NtRp636
(dp637
g62
(dp638
g70
I3
ssg71
g632
sg64
(lp639
S''
asbasbasbasbasbasbasbasbasbasbasbag57
(g73
g59
NtRp640
(dp641
g62
(dp642
sg71
g67
sg64
(lp643
g57
(g78
g59
NtRp644
(dp645
g62
(dp646
g82
g83
ssg71
g640
sg64
(lp647
S'env'
p648
asbag57
(g78
g59
NtRp649
(dp650
g62
(dp651
g89
g90
ssg71
g640
sg64
(lp652
S':'
asbag57
(g78
g59
NtRp653
(dp654
g62
(dp655
sg71
g640
sg64
(lp656
g57
(g58
g59
NtRp657
(dp658
g62
(dp659
g70
I5
ssg71
g653
sg64
(lp660
g57
(g66
g59
NtRp661
(dp662
g62
(dp663
g70
I4
ssg71
Nsg64
(lp664
g57
(g73
g59
NtRp665
(dp666
g62
(dp667
sg71
g661
sg64
(lp668
g57
(g78
g59
NtRp669
(dp670
g62
(dp671
g82
g83
ssg71
g665
sg64
(lp672
S'app_folders'
p673
asbag57
(g78
g59
NtRp674
(dp675
g62
(dp676
g89
g90
ssg71
g665
sg64
(lp677
S':'
asbag57
(g78
g59
NtRp678
(dp679
g62
(dp680
sg71
g665
sg64
(lp681
g57
(g58
g59
NtRp682
(dp683
g62
(dp684
g70
I4
ssg71
g678
sg64
(lp685
S"set(['/home/marco/projects/contabilidad/web2py/applications/admin/', '/home/marco/projects/contabilidad/web2py/applications/sueldos/'])"
p686
asbasbasbag57
(g73
g59
NtRp687
(dp688
g62
(dp689
sg71
g661
sg64
(lp690
g57
(g78
g59
NtRp691
(dp692
g62
(dp693
g82
g83
ssg71
g687
sg64
(lp694
S'applications_parent'
p695
asbag57
(g78
g59
NtRp696
(dp697
g62
(dp698
g89
g90
ssg71
g687
sg64
(lp699
S':'
asbag57
(g78
g59
NtRp700
(dp701
g62
(dp702
sg71
g687
sg64
(lp703
g57
(g58
g59
NtRp704
(dp705
g62
(dp706
g70
I4
ssg71
g700
sg64
(lp707
S'/home/marco/projects/contabilidad/web2py'
p708
asbasbasbag57
(g73
g59
NtRp709
(dp710
g62
(dp711
sg71
g661
sg64
(lp712
g57
(g78
g59
NtRp713
(dp714
g62
(dp715
g82
g83
ssg71
g709
sg64
(lp716
S'cmd_args'
p717
asbag57
(g78
g59
NtRp718
(dp719
g62
(dp720
g89
g90
ssg71
g709
sg64
(lp721
S':'
asbag57
(g78
g59
NtRp722
(dp723
g62
(dp724
sg71
g709
sg64
(lp725
g57
(g58
g59
NtRp726
(dp727
g62
(dp728
g70
I4
ssg71
g722
sg64
(lp729
g57
(g66
g59
NtRp730
(dp731
g62
(dp732
g70
I3
ssg71
Nsg64
(lp733
sbasbasbasbag57
(g73
g59
NtRp734
(dp735
g62
(dp736
sg71
g661
sg64
(lp737
g57
(g78
g59
NtRp738
(dp739
g62
(dp740
g82
g83
ssg71
g734
sg64
(lp741
S'cmd_options'
p742
asbag57
(g78
g59
NtRp743
(dp744
g62
(dp745
g89
g90
ssg71
g734
sg64
(lp746
S':'
asbag57
(g78
g59
NtRp747
(dp748
g62
(dp749
sg71
g734
sg64
(lp750
g57
(g58
g59
NtRp751
(dp752
g62
(dp753
g70
I4
ssg71
g747
sg64
(lp754
S"<Values at 0x2e6b5a8: {'verbose': False, 'ip': '127.0.0.1', 'with_scheduler': False, 'ips': [], 'shutdown_timeout': 5, 'taskbar': False, 'port': 8000, 'maxthreads': None, 'softcron': False, 'server_name': 'malena', 'bpython': False, 'nogui': False, 'pid_filename': 'httpserver.pid', 'extcron': False, 'runcron': False, 'run_system_tests': False, 'test': None, 'folder': '/home/marco/projects/contabilidad/web2py', 'config': '', 'minthreads': None, 'winservice': '', 'shell': None, 'run': '', 'log_filename': 'httpserver.log', 'debuglevel': 30, 'args': [''], 'socket_timeout': 5, 'ssl_ca_certificate': None, 'scheduler': None, 'profiler_filename': None, 'ssl_private_key': '', 'scheduler_groups': None, 'password': 'asd', 'request_queue_size': 5, 'ssl_certificate': '', 'cronjob': False, 'numthreads': None, 'quiet': False, 'interfaces': None, 'import_models': False, 'timeout': 10, 'plain': False, 'nobanner': False}>"
p755
asbasbasbag57
(g73
g59
NtRp756
(dp757
g62
(dp758
sg71
g661
sg64
(lp759
g57
(g78
g59
NtRp760
(dp761
g62
(dp762
g82
g83
ssg71
g756
sg64
(lp763
S'content_length'
p764
asbag57
(g78
g59
NtRp765
(dp766
g62
(dp767
g89
g90
ssg71
g756
sg64
(lp768
S':'
asbag57
(g78
g59
NtRp769
(dp770
g62
(dp771
sg71
g756
sg64
(lp772
g57
(g58
g59
NtRp773
(dp774
g62
(dp775
g70
I4
ssg71
g769
sg64
(lp776
S'1141'
p777
asbasbasbag57
(g73
g59
NtRp778
(dp779
g62
(dp780
sg71
g661
sg64
(lp781
g57
(g78
g59
NtRp782
(dp783
g62
(dp784
g82
g83
ssg71
g778
sg64
(lp785
S'content_type'
p786
asbag57
(g78
g59
NtRp787
(dp788
g62
(dp789
g89
g90
ssg71
g778
sg64
(lp790
S':'
asbag57
(g78
g59
NtRp791
(dp792
g62
(dp793
sg71
g778
sg64
(lp794
g57
(g58
g59
NtRp795
(dp796
g62
(dp797
g70
I4
ssg71
g791
sg64
(lp798
S'multipart/form-data; boundary=---------------------------2842940152014371466842152927'
p799
asbasbasbag57
(g73
g59
NtRp800
(dp801
g62
(dp802
sg71
g661
sg64
(lp803
g57
(g78
g59
NtRp804
(dp805
g62
(dp806
g82
g83
ssg71
g800
sg64
(lp807
S'db_sessions'
p808
asbag57
(g78
g59
NtRp809
(dp810
g62
(dp811
g89
g90
ssg71
g800
sg64
(lp812
S':'
asbag57
(g78
g59
NtRp813
(dp814
g62
(dp815
sg71
g800
sg64
(lp816
g57
(g58
g59
NtRp817
(dp818
g62
(dp819
g70
I4
ssg71
g813
sg64
(lp820
S'set([])'
p821
asbasbasbag57
(g73
g59
NtRp822
(dp823
g62
(dp824
sg71
g661
sg64
(lp825
g57
(g78
g59
NtRp826
(dp827
g62
(dp828
g82
g83
ssg71
g822
sg64
(lp829
S'debugging'
p830
asbag57
(g78
g59
NtRp831
(dp832
g62
(dp833
g89
g90
ssg71
g822
sg64
(lp834
S':'
asbag57
(g78
g59
NtRp835
(dp836
g62
(dp837
sg71
g822
sg64
(lp838
g57
(g58
g59
NtRp839
(dp840
g62
(dp841
g70
I4
ssg71
g835
sg64
(lp842
g100
asbasbasbag57
(g73
g59
NtRp843
(dp844
g62
(dp845
sg71
g661
sg64
(lp846
g57
(g78
g59
NtRp847
(dp848
g62
(dp849
g82
g83
ssg71
g843
sg64
(lp850
S'gluon_parent'
p851
asbag57
(g78
g59
NtRp852
(dp853
g62
(dp854
g89
g90
ssg71
g843
sg64
(lp855
S':'
asbag57
(g78
g59
NtRp856
(dp857
g62
(dp858
sg71
g843
sg64
(lp859
g57
(g58
g59
NtRp860
(dp861
g62
(dp862
g70
I4
ssg71
g856
sg64
(lp863
S'/home/marco/projects/contabilidad/web2py'
p864
asbasbasbag57
(g73
g59
NtRp865
(dp866
g62
(dp867
sg71
g661
sg64
(lp868
g57
(g78
g59
NtRp869
(dp870
g62
(dp871
g82
g83
ssg71
g865
sg64
(lp872
S'http_accept'
p873
asbag57
(g78
g59
NtRp874
(dp875
g62
(dp876
g89
g90
ssg71
g865
sg64
(lp877
S':'
asbag57
(g78
g59
NtRp878
(dp879
g62
(dp880
sg71
g865
sg64
(lp881
g57
(g58
g59
NtRp882
(dp883
g62
(dp884
g70
I4
ssg71
g878
sg64
(lp885
S'text/html,application/xhtml+xml,application/xml;q=0.9,*/*;q=0.8'
p886
asbasbasbag57
(g73
g59
NtRp887
(dp888
g62
(dp889
sg71
g661
sg64
(lp890
g57
(g78
g59
NtRp891
(dp892
g62
(dp893
g82
g83
ssg71
g887
sg64
(lp894
S'http_accept_encoding'
p895
asbag57
(g78
g59
NtRp896
(dp897
g62
(dp898
g89
g90
ssg71
g887
sg64
(lp899
S':'
asbag57
(g78
g59
NtRp900
(dp901
g62
(dp902
sg71
g887
sg64
(lp903
g57
(g58
g59
NtRp904
(dp905
g62
(dp906
g70
I4
ssg71
g900
sg64
(lp907
S'gzip, deflate'
p908
asbasbasbag57
(g73
g59
NtRp909
(dp910
g62
(dp911
sg71
g661
sg64
(lp912
g57
(g78
g59
NtRp913
(dp914
g62
(dp915
g82
g83
ssg71
g909
sg64
(lp916
S'http_accept_language'
p917
asbag57
(g78
g59
NtRp918
(dp919
g62
(dp920
g89
g90
ssg71
g909
sg64
(lp921
S':'
asbag57
(g78
g59
NtRp922
(dp923
g62
(dp924
sg71
g909
sg64
(lp925
g57
(g58
g59
NtRp926
(dp927
g62
(dp928
g70
I4
ssg71
g922
sg64
(lp929
S'en-US,en;q=0.5'
p930
asbasbasbag57
(g73
g59
NtRp931
(dp932
g62
(dp933
sg71
g661
sg64
(lp934
g57
(g78
g59
NtRp935
(dp936
g62
(dp937
g82
g83
ssg71
g931
sg64
(lp938
S'http_cache_control'
p939
asbag57
(g78
g59
NtRp940
(dp941
g62
(dp942
g89
g90
ssg71
g931
sg64
(lp943
S':'
asbag57
(g78
g59
NtRp944
(dp945
g62
(dp946
sg71
g931
sg64
(lp947
g57
(g58
g59
NtRp948
(dp949
g62
(dp950
g70
I4
ssg71
g944
sg64
(lp951
S'max-age=0'
p952
asbasbasbag57
(g73
g59
NtRp953
(dp954
g62
(dp955
sg71
g661
sg64
(lp956
g57
(g78
g59
NtRp957
(dp958
g62
(dp959
g82
g83
ssg71
g953
sg64
(lp960
S'http_connection'
p961
asbag57
(g78
g59
NtRp962
(dp963
g62
(dp964
g89
g90
ssg71
g953
sg64
(lp965
S':'
asbag57
(g78
g59
NtRp966
(dp967
g62
(dp968
sg71
g953
sg64
(lp969
g57
(g58
g59
NtRp970
(dp971
g62
(dp972
g70
I4
ssg71
g966
sg64
(lp973
S'keep-alive'
p974
asbasbasbag57
(g73
g59
NtRp975
(dp976
g62
(dp977
sg71
g661
sg64
(lp978
g57
(g78
g59
NtRp979
(dp980
g62
(dp981
g82
g83
ssg71
g975
sg64
(lp982
S'http_content_length'
p983
asbag57
(g78
g59
NtRp984
(dp985
g62
(dp986
g89
g90
ssg71
g975
sg64
(lp987
S':'
asbag57
(g78
g59
NtRp988
(dp989
g62
(dp990
sg71
g975
sg64
(lp991
g57
(g58
g59
NtRp992
(dp993
g62
(dp994
g70
I4
ssg71
g988
sg64
(lp995
g777
asbasbasbag57
(g73
g59
NtRp996
(dp997
g62
(dp998
sg71
g661
sg64
(lp999
g57
(g78
g59
NtRp1000
(dp1001
g62
(dp1002
g82
g83
ssg71
g996
sg64
(lp1003
S'http_content_type'
p1004
asbag57
(g78
g59
NtRp1005
(dp1006
g62
(dp1007
g89
g90
ssg71
g996
sg64
(lp1008
S':'
asbag57
(g78
g59
NtRp1009
(dp1010
g62
(dp1011
sg71
g996
sg64
(lp1012
g57
(g58
g59
NtRp1013
(dp1014
g62
(dp1015
g70
I4
ssg71
g1009
sg64
(lp1016
g799
asbasbasbag57
(g73
g59
NtRp1017
(dp1018
g62
(dp1019
sg71
g661
sg64
(lp1020
g57
(g78
g59
NtRp1021
(dp1022
g62
(dp1023
g82
g83
ssg71
g1017
sg64
(lp1024
S'http_cookie'
p1025
asbag57
(g78
g59
NtRp1026
(dp1027
g62
(dp1028
g89
g90
ssg71
g1017
sg64
(lp1029
S':'
asbag57
(g78
g59
NtRp1030
(dp1031
g62
(dp1032
sg71
g1017
sg64
(lp1033
g57
(g58
g59
NtRp1034
(dp1035
g62
(dp1036
g70
I4
ssg71
g1030
sg64
(lp1037
S'session_id_sueldos=127.0.0.1-05ce4365-dc54-4394-bd3e-60890d75bc96; session_id_admin=127.0.0.1-02abd043-fc6c-40a0-be95-723d18a22c5d'
p1038
asbasbasbag57
(g73
g59
NtRp1039
(dp1040
g62
(dp1041
sg71
g661
sg64
(lp1042
g57
(g78
g59
NtRp1043
(dp1044
g62
(dp1045
g82
g83
ssg71
g1039
sg64
(lp1046
S'http_host'
p1047
asbag57
(g78
g59
NtRp1048
(dp1049
g62
(dp1050
g89
g90
ssg71
g1039
sg64
(lp1051
S':'
asbag57
(g78
g59
NtRp1052
(dp1053
g62
(dp1054
sg71
g1039
sg64
(lp1055
g57
(g58
g59
NtRp1056
(dp1057
g62
(dp1058
g70
I4
ssg71
g1052
sg64
(lp1059
S'127.0.0.1:8000'
p1060
asbasbasbag57
(g73
g59
NtRp1061
(dp1062
g62
(dp1063
sg71
g661
sg64
(lp1064
g57
(g78
g59
NtRp1065
(dp1066
g62
(dp1067
g82
g83
ssg71
g1061
sg64
(lp1068
S'http_referer'
p1069
asbag57
(g78
g59
NtRp1070
(dp1071
g62
(dp1072
g89
g90
ssg71
g1061
sg64
(lp1073
S':'
asbag57
(g78
g59
NtRp1074
(dp1075
g62
(dp1076
sg71
g1061
sg64
(lp1077
g57
(g58
g59
NtRp1078
(dp1079
g62
(dp1080
g70
I4
ssg71
g1074
sg64
(lp1081
S'http://127.0.0.1:8000/sueldos/vistas/importes?id=1&sindicato=ALIMENTACI%C3%93N'
p1082
asbasbasbag57
(g73
g59
NtRp1083
(dp1084
g62
(dp1085
sg71
g661
sg64
(lp1086
g57
(g78
g59
NtRp1087
(dp1088
g62
(dp1089
g82
g83
ssg71
g1083
sg64
(lp1090
S'http_user_agent'
p1091
asbag57
(g78
g59
NtRp1092
(dp1093
g62
(dp1094
g89
g90
ssg71
g1083
sg64
(lp1095
S':'
asbag57
(g78
g59
NtRp1096
(dp1097
g62
(dp1098
sg71
g1083
sg64
(lp1099
g57
(g58
g59
NtRp1100
(dp1101
g62
(dp1102
g70
I4
ssg71
g1096
sg64
(lp1103
S'Mozilla/5.0 (X11; Linux x86_64; rv:18.0) Gecko/20100101 Firefox/18.0 Iceweasel/18.0'
p1104
asbasbasbag57
(g73
g59
NtRp1105
(dp1106
g62
(dp1107
sg71
g661
sg64
(lp1108
g57
(g78
g59
NtRp1109
(dp1110
g62
(dp1111
g82
g83
ssg71
g1105
sg64
(lp1112
S'is_jython'
p1113
asbag57
(g78
g59
NtRp1114
(dp1115
g62
(dp1116
g89
g90
ssg71
g1105
sg64
(lp1117
S':'
asbag57
(g78
g59
NtRp1118
(dp1119
g62
(dp1120
sg71
g1105
sg64
(lp1121
g57
(g58
g59
NtRp1122
(dp1123
g62
(dp1124
g70
I4
ssg71
g1118
sg64
(lp1125
g100
asbasbasbag57
(g73
g59
NtRp1126
(dp1127
g62
(dp1128
sg71
g661
sg64
(lp1129
g57
(g78
g59
NtRp1130
(dp1131
g62
(dp1132
g82
g83
ssg71
g1126
sg64
(lp1133
S'is_pypy'
p1134
asbag57
(g78
g59
NtRp1135
(dp1136
g62
(dp1137
g89
g90
ssg71
g1126
sg64
(lp1138
S':'
asbag57
(g78
g59
NtRp1139
(dp1140
g62
(dp1141
sg71
g1126
sg64
(lp1142
g57
(g58
g59
NtRp1143
(dp1144
g62
(dp1145
g70
I4
ssg71
g1139
sg64
(lp1146
g100
asbasbasbag57
(g73
g59
NtRp1147
(dp1148
g62
(dp1149
sg71
g661
sg64
(lp1150
g57
(g78
g59
NtRp1151
(dp1152
g62
(dp1153
g82
g83
ssg71
g1147
sg64
(lp1154
S'local_hosts'
p1155
asbag57
(g78
g59
NtRp1156
(dp1157
g62
(dp1158
g89
g90
ssg71
g1147
sg64
(lp1159
S':'
asbag57
(g78
g59
NtRp1160
(dp1161
g62
(dp1162
sg71
g1147
sg64
(lp1163
g57
(g58
g59
NtRp1164
(dp1165
g62
(dp1166
g70
I4
ssg71
g1160
sg64
(lp1167
g57
(g66
g59
NtRp1168
(dp1169
g62
(dp1170
g70
I3
ssg71
Nsg64
(lp1171
g57
(g73
g59
NtRp1172
(dp1173
g62
(dp1174
sg71
g1168
sg64
(lp1175
g57
(g78
g59
NtRp1176
(dp1177
g62
(dp1178
sg71
g1172
sg64
(lp1179
g57
(g58
g59
NtRp1180
(dp1181
g62
(dp1182
g70
I3
ssg71
g1176
sg64
(lp1183
S'malena'
p1184
asbasbasbag57
(g73
g59
NtRp1185
(dp1186
g62
(dp1187
sg71
g1168
sg64
(lp1188
g57
(g78
g59
NtRp1189
(dp1190
g62
(dp1191
sg71
g1185
sg64
(lp1192
g57
(g58
g59
NtRp1193
(dp1194
g62
(dp1195
g70
I3
ssg71
g1189
sg64
(lp1196
S'::1'
p1197
asbasbasbag57
(g73
g59
NtRp1198
(dp1199
g62
(dp1200
sg71
g1168
sg64
(lp1201
g57
(g78
g59
NtRp1202
(dp1203
g62
(dp1204
sg71
g1198
sg64
(lp1205
g57
(g58
g59
NtRp1206
(dp1207
g62
(dp1208
g70
I3
ssg71
g1202
sg64
(lp1209
S'127.0.1.1'
p1210
asbasbasbag57
(g73
g59
NtRp1211
(dp1212
g62
(dp1213
sg71
g1168
sg64
(lp1214
g57
(g78
g59
NtRp1215
(dp1216
g62
(dp1217
sg71
g1211
sg64
(lp1218
g57
(g58
g59
NtRp1219
(dp1220
g62
(dp1221
g70
I3
ssg71
g1215
sg64
(lp1222
S'::ffff:127.0.0.1'
p1223
asbasbasbag57
(g73
g59
NtRp1224
(dp1225
g62
(dp1226
sg71
g1168
sg64
(lp1227
g57
(g78
g59
NtRp1228
(dp1229
g62
(dp1230
sg71
g1224
sg64
(lp1231
g57
(g58
g59
NtRp1232
(dp1233
g62
(dp1234
g70
I3
ssg71
g1228
sg64
(lp1235
S'127.0.0.1'
p1236
asbasbasbasbasbasbasbag57
(g73
g59
NtRp1237
(dp1238
g62
(dp1239
sg71
g661
sg64
(lp1240
g57
(g78
g59
NtRp1241
(dp1242
g62
(dp1243
g82
g83
ssg71
g1237
sg64
(lp1244
S'path_info'
p1245
asbag57
(g78
g59
NtRp1246
(dp1247
g62
(dp1248
g89
g90
ssg71
g1237
sg64
(lp1249
S':'
asbag57
(g78
g59
NtRp1250
(dp1251
g62
(dp1252
sg71
g1237
sg64
(lp1253
g57
(g58
g59
NtRp1254
(dp1255
g62
(dp1256
g70
I4
ssg71
g1250
sg64
(lp1257
S'/sueldos/vistas/importes'
p1258
asbasbasbag57
(g73
g59
NtRp1259
(dp1260
g62
(dp1261
sg71
g661
sg64
(lp1262
g57
(g78
g59
NtRp1263
(dp1264
g62
(dp1265
g82
g83
ssg71
g1259
sg64
(lp1266
S'query_string'
p1267
asbag57
(g78
g59
NtRp1268
(dp1269
g62
(dp1270
g89
g90
ssg71
g1259
sg64
(lp1271
S':'
asbag57
(g78
g59
NtRp1272
(dp1273
g62
(dp1274
sg71
g1259
sg64
(lp1275
g57
(g58
g59
NtRp1276
(dp1277
g62
(dp1278
g70
I4
ssg71
g1272
sg64
(lp1279
S'id=1&sindicato=ALIMENTACI%C3%93N'
p1280
asbasbasbag57
(g73
g59
NtRp1281
(dp1282
g62
(dp1283
sg71
g661
sg64
(lp1284
g57
(g78
g59
NtRp1285
(dp1286
g62
(dp1287
g82
g83
ssg71
g1281
sg64
(lp1288
S'remote_addr'
p1289
asbag57
(g78
g59
NtRp1290
(dp1291
g62
(dp1292
g89
g90
ssg71
g1281
sg64
(lp1293
S':'
asbag57
(g78
g59
NtRp1294
(dp1295
g62
(dp1296
sg71
g1281
sg64
(lp1297
g57
(g58
g59
NtRp1298
(dp1299
g62
(dp1300
g70
I4
ssg71
g1294
sg64
(lp1301
g212
asbasbasbag57
(g73
g59
NtRp1302
(dp1303
g62
(dp1304
sg71
g661
sg64
(lp1305
g57
(g78
g59
NtRp1306
(dp1307
g62
(dp1308
g82
g83
ssg71
g1302
sg64
(lp1309
S'remote_port'
p1310
asbag57
(g78
g59
NtRp1311
(dp1312
g62
(dp1313
g89
g90
ssg71
g1302
sg64
(lp1314
S':'
asbag57
(g78
g59
NtRp1315
(dp1316
g62
(dp1317
sg71
g1302
sg64
(lp1318
g57
(g58
g59
NtRp1319
(dp1320
g62
(dp1321
g70
I4
ssg71
g1315
sg64
(lp1322
S'52798'
p1323
asbasbasbag57
(g73
g59
NtRp1324
(dp1325
g62
(dp1326
sg71
g661
sg64
(lp1327
g57
(g78
g59
NtRp1328
(dp1329
g62
(dp1330
g82
g83
ssg71
g1324
sg64
(lp1331
S'request_method'
p1332
asbag57
(g78
g59
NtRp1333
(dp1334
g62
(dp1335
g89
g90
ssg71
g1324
sg64
(lp1336
S':'
asbag57
(g78
g59
NtRp1337
(dp1338
g62
(dp1339
sg71
g1324
sg64
(lp1340
g57
(g58
g59
NtRp1341
(dp1342
g62
(dp1343
g70
I4
ssg71
g1337
sg64
(lp1344
S'POST'
p1345
asbasbasbag57
(g73
g59
NtRp1346
(dp1347
g62
(dp1348
sg71
g661
sg64
(lp1349
g57
(g78
g59
NtRp1350
(dp1351
g62
(dp1352
g82
g83
ssg71
g1346
sg64
(lp1353
S'request_uri'
p1354
asbag57
(g78
g59
NtRp1355
(dp1356
g62
(dp1357
g89
g90
ssg71
g1346
sg64
(lp1358
S':'
asbag57
(g78
g59
NtRp1359
(dp1360
g62
(dp1361
sg71
g1346
sg64
(lp1362
g57
(g58
g59
NtRp1363
(dp1364
g62
(dp1365
g70
I4
ssg71
g1359
sg64
(lp1366
S'/sueldos/vistas/importes?id=1&sindicato=ALIMENTACI%C3%93N'
p1367
asbasbasbag57
(g73
g59
NtRp1368
(dp1369
g62
(dp1370
sg71
g661
sg64
(lp1371
g57
(g78
g59
NtRp1372
(dp1373
g62
(dp1374
g82
g83
ssg71
g1368
sg64
(lp1375
S'script_name'
p1376
asbag57
(g78
g59
NtRp1377
(dp1378
g62
(dp1379
g89
g90
ssg71
g1368
sg64
(lp1380
S':'
asbag57
(g78
g59
NtRp1381
(dp1382
g62
(dp1383
sg71
g1368
sg64
(lp1384
g57
(g58
g59
NtRp1385
(dp1386
g62
(dp1387
g70
I4
ssg71
g1381
sg64
(lp1388
S''
asbasbasbag57
(g73
g59
NtRp1389
(dp1390
g62
(dp1391
sg71
g661
sg64
(lp1392
g57
(g78
g59
NtRp1393
(dp1394
g62
(dp1395
g82
g83
ssg71
g1389
sg64
(lp1396
S'server_name'
p1397
asbag57
(g78
g59
NtRp1398
(dp1399
g62
(dp1400
g89
g90
ssg71
g1389
sg64
(lp1401
S':'
asbag57
(g78
g59
NtRp1402
(dp1403
g62
(dp1404
sg71
g1389
sg64
(lp1405
g57
(g58
g59
NtRp1406
(dp1407
g62
(dp1408
g70
I4
ssg71
g1402
sg64
(lp1409
S'malena'
p1410
asbasbasbag57
(g73
g59
NtRp1411
(dp1412
g62
(dp1413
sg71
g661
sg64
(lp1414
g57
(g78
g59
NtRp1415
(dp1416
g62
(dp1417
g82
g83
ssg71
g1411
sg64
(lp1418
S'server_port'
p1419
asbag57
(g78
g59
NtRp1420
(dp1421
g62
(dp1422
g89
g90
ssg71
g1411
sg64
(lp1423
S':'
asbag57
(g78
g59
NtRp1424
(dp1425
g62
(dp1426
sg71
g1411
sg64
(lp1427
g57
(g58
g59
NtRp1428
(dp1429
g62
(dp1430
g70
I4
ssg71
g1424
sg64
(lp1431
S'8000'
p1432
asbasbasbag57
(g73
g59
NtRp1433
(dp1434
g62
(dp1435
sg71
g661
sg64
(lp1436
g57
(g78
g59
NtRp1437
(dp1438
g62
(dp1439
g82
g83
ssg71
g1433
sg64
(lp1440
S'server_protocol'
p1441
asbag57
(g78
g59
NtRp1442
(dp1443
g62
(dp1444
g89
g90
ssg71
g1433
sg64
(lp1445
S':'
asbag57
(g78
g59
NtRp1446
(dp1447
g62
(dp1448
sg71
g1433
sg64
(lp1449
g57
(g58
g59
NtRp1450
(dp1451
g62
(dp1452
g70
I4
ssg71
g1446
sg64
(lp1453
S'HTTP/1.1'
p1454
asbasbasbag57
(g73
g59
NtRp1455
(dp1456
g62
(dp1457
sg71
g661
sg64
(lp1458
g57
(g78
g59
NtRp1459
(dp1460
g62
(dp1461
g82
g83
ssg71
g1455
sg64
(lp1462
S'server_software'
p1463
asbag57
(g78
g59
NtRp1464
(dp1465
g62
(dp1466
g89
g90
ssg71
g1455
sg64
(lp1467
S':'
asbag57
(g78
g59
NtRp1468
(dp1469
g62
(dp1470
sg71
g1455
sg64
(lp1471
g57
(g58
g59
NtRp1472
(dp1473
g62
(dp1474
g70
I4
ssg71
g1468
sg64
(lp1475
S'Rocket 1.2.6'
p1476
asbasbasbag57
(g73
g59
NtRp1477
(dp1478
g62
(dp1479
sg71
g661
sg64
(lp1480
g57
(g78
g59
NtRp1481
(dp1482
g62
(dp1483
g82
g83
ssg71
g1477
sg64
(lp1484
S'web2py_path'
p1485
asbag57
(g78
g59
NtRp1486
(dp1487
g62
(dp1488
g89
g90
ssg71
g1477
sg64
(lp1489
S':'
asbag57
(g78
g59
NtRp1490
(dp1491
g62
(dp1492
sg71
g1477
sg64
(lp1493
g57
(g58
g59
NtRp1494
(dp1495
g62
(dp1496
g70
I4
ssg71
g1490
sg64
(lp1497
g708
asbasbasbag57
(g73
g59
NtRp1498
(dp1499
g62
(dp1500
sg71
g661
sg64
(lp1501
g57
(g78
g59
NtRp1502
(dp1503
g62
(dp1504
g82
g83
ssg71
g1498
sg64
(lp1505
S'web2py_version'
p1506
asbag57
(g78
g59
NtRp1507
(dp1508
g62
(dp1509
g89
g90
ssg71
g1498
sg64
(lp1510
S':'
asbag57
(g78
g59
NtRp1511
(dp1512
g62
(dp1513
sg71
g1498
sg64
(lp1514
g57
(g58
g59
NtRp1515
(dp1516
g62
(dp1517
g70
I4
ssg71
g1511
sg64
(lp1518
g57
(g66
g59
NtRp1519
(dp1520
g62
(dp1521
g70
I3
ssg71
Nsg64
(lp1522
g57
(g73
g59
NtRp1523
(dp1524
g62
(dp1525
sg71
g1519
sg64
(lp1526
g57
(g78
g59
NtRp1527
(dp1528
g62
(dp1529
sg71
g1523
sg64
(lp1530
g57
(g58
g59
NtRp1531
(dp1532
g62
(dp1533
g70
I3
ssg71
g1527
sg64
(lp1534
S'2'
asbasbasbag57
(g73
g59
NtRp1535
(dp1536
g62
(dp1537
sg71
g1519
sg64
(lp1538
g57
(g78
g59
NtRp1539
(dp1540
g62
(dp1541
sg71
g1535
sg64
(lp1542
g57
(g58
g59
NtRp1543
(dp1544
g62
(dp1545
g70
I3
ssg71
g1539
sg64
(lp1546
S'4'
asbasbasbag57
(g73
g59
NtRp1547
(dp1548
g62
(dp1549
sg71
g1519
sg64
(lp1550
g57
(g78
g59
NtRp1551
(dp1552
g62
(dp1553
sg71
g1547
sg64
(lp1554
g57
(g58
g59
NtRp1555
(dp1556
g62
(dp1557
g70
I3
ssg71
g1551
sg64
(lp1558
S'1'
asbasbasbag57
(g73
g59
NtRp1559
(dp1560
g62
(dp1561
sg71
g1519
sg64
(lp1562
g57
(g78
g59
NtRp1563
(dp1564
g62
(dp1565
sg71
g1559
sg64
(lp1566
g57
(g58
g59
NtRp1567
(dp1568
g62
(dp1569
g70
I3
ssg71
g1563
sg64
(lp1570
S'alpha.2'
p1571
asbasbasbag57
(g73
g59
NtRp1572
(dp1573
g62
(dp1574
sg71
g1519
sg64
(lp1575
g57
(g78
g59
NtRp1576
(dp1577
g62
(dp1578
sg71
g1572
sg64
(lp1579
g57
(g58
g59
NtRp1580
(dp1581
g62
(dp1582
g70
I3
ssg71
g1576
sg64
(lp1583
S'datetime.datetime(2013, 1, 10, 21, 26, 18)'
p1584
asbasbasbasbasbasbasbag57
(g73
g59
NtRp1585
(dp1586
g62
(dp1587
sg71
g661
sg64
(lp1588
g57
(g78
g59
NtRp1589
(dp1590
g62
(dp1591
g82
g83
ssg71
g1585
sg64
(lp1592
S'wsgi_errors'
p1593
asbag57
(g78
g59
NtRp1594
(dp1595
g62
(dp1596
g89
g90
ssg71
g1585
sg64
(lp1597
S':'
asbag57
(g78
g59
NtRp1598
(dp1599
g62
(dp1600
sg71
g1585
sg64
(lp1601
g57
(g58
g59
NtRp1602
(dp1603
g62
(dp1604
g70
I4
ssg71
g1598
sg64
(lp1605
S"<open file '<stderr>', mode 'w' at 0x7fa88a0fa270>"
p1606
asbasbasbag57
(g73
g59
NtRp1607
(dp1608
g62
(dp1609
sg71
g661
sg64
(lp1610
g57
(g78
g59
NtRp1611
(dp1612
g62
(dp1613
g82
g83
ssg71
g1607
sg64
(lp1614
S'wsgi_file_wrapper'
p1615
asbag57
(g78
g59
NtRp1616
(dp1617
g62
(dp1618
g89
g90
ssg71
g1607
sg64
(lp1619
S':'
asbag57
(g78
g59
NtRp1620
(dp1621
g62
(dp1622
sg71
g1607
sg64
(lp1623
g57
(g58
g59
NtRp1624
(dp1625
g62
(dp1626
g70
I4
ssg71
g1620
sg64
(lp1627
S'<class wsgiref.util.FileWrapper at 0x2dd24c8>'
p1628
asbasbasbag57
(g73
g59
NtRp1629
(dp1630
g62
(dp1631
sg71
g661
sg64
(lp1632
g57
(g78
g59
NtRp1633
(dp1634
g62
(dp1635
g82
g83
ssg71
g1629
sg64
(lp1636
S'wsgi_input'
p1637
asbag57
(g78
g59
NtRp1638
(dp1639
g62
(dp1640
g89
g90
ssg71
g1629
sg64
(lp1641
S':'
asbag57
(g78
g59
NtRp1642
(dp1643
g62
(dp1644
sg71
g1629
sg64
(lp1645
g57
(g58
g59
NtRp1646
(dp1647
g62
(dp1648
g70
I4
ssg71
g1642
sg64
(lp1649
S'<socket._fileobject object at 0x4dad8d0>'
p1650
asbasbasbag57
(g73
g59
NtRp1651
(dp1652
g62
(dp1653
sg71
g661
sg64
(lp1654
g57
(g78
g59
NtRp1655
(dp1656
g62
(dp1657
g82
g83
ssg71
g1651
sg64
(lp1658
S'wsgi_multiprocess'
p1659
asbag57
(g78
g59
NtRp1660
(dp1661
g62
(dp1662
g89
g90
ssg71
g1651
sg64
(lp1663
S':'
asbag57
(g78
g59
NtRp1664
(dp1665
g62
(dp1666
sg71
g1651
sg64
(lp1667
g57
(g58
g59
NtRp1668
(dp1669
g62
(dp1670
g70
I4
ssg71
g1664
sg64
(lp1671
g100
asbasbasbag57
(g73
g59
NtRp1672
(dp1673
g62
(dp1674
sg71
g661
sg64
(lp1675
g57
(g78
g59
NtRp1676
(dp1677
g62
(dp1678
g82
g83
ssg71
g1672
sg64
(lp1679
S'wsgi_multithread'
p1680
asbag57
(g78
g59
NtRp1681
(dp1682
g62
(dp1683
g89
g90
ssg71
g1672
sg64
(lp1684
S':'
asbag57
(g78
g59
NtRp1685
(dp1686
g62
(dp1687
sg71
g1672
sg64
(lp1688
g57
(g58
g59
NtRp1689
(dp1690
g62
(dp1691
g70
I4
ssg71
g1685
sg64
(lp1692
S'True'
p1693
asbasbasbag57
(g73
g59
NtRp1694
(dp1695
g62
(dp1696
sg71
g661
sg64
(lp1697
g57
(g78
g59
NtRp1698
(dp1699
g62
(dp1700
g82
g83
ssg71
g1694
sg64
(lp1701
S'wsgi_run_once'
p1702
asbag57
(g78
g59
NtRp1703
(dp1704
g62
(dp1705
g89
g90
ssg71
g1694
sg64
(lp1706
S':'
asbag57
(g78
g59
NtRp1707
(dp1708
g62
(dp1709
sg71
g1694
sg64
(lp1710
g57
(g58
g59
NtRp1711
(dp1712
g62
(dp1713
g70
I4
ssg71
g1707
sg64
(lp1714
g100
asbasbasbag57
(g73
g59
NtRp1715
(dp1716
g62
(dp1717
sg71
g661
sg64
(lp1718
g57
(g78
g59
NtRp1719
(dp1720
g62
(dp1721
g82
g83
ssg71
g1715
sg64
(lp1722
S'wsgi_url_scheme'
p1723
asbag57
(g78
g59
NtRp1724
(dp1725
g62
(dp1726
g89
g90
ssg71
g1715
sg64
(lp1727
S':'
asbag57
(g78
g59
NtRp1728
(dp1729
g62
(dp1730
sg71
g1715
sg64
(lp1731
g57
(g58
g59
NtRp1732
(dp1733
g62
(dp1734
g70
I4
ssg71
g1728
sg64
(lp1735
S'http'
p1736
asbasbasbag57
(g73
g59
NtRp1737
(dp1738
g62
(dp1739
sg71
g661
sg64
(lp1740
g57
(g78
g59
NtRp1741
(dp1742
g62
(dp1743
g82
g83
ssg71
g1737
sg64
(lp1744
S'wsgi_version'
p1745
asbag57
(g78
g59
NtRp1746
(dp1747
g62
(dp1748
g89
g90
ssg71
g1737
sg64
(lp1749
S':'
asbag57
(g78
g59
NtRp1750
(dp1751
g62
(dp1752
sg71
g1737
sg64
(lp1753
g57
(g58
g59
NtRp1754
(dp1755
g62
(dp1756
g70
I4
ssg71
g1750
sg64
(lp1757
g57
(g66
g59
NtRp1758
(dp1759
g62
(dp1760
g70
I3
ssg71
Nsg64
(lp1761
g57
(g73
g59
NtRp1762
(dp1763
g62
(dp1764
sg71
g1758
sg64
(lp1765
g57
(g78
g59
NtRp1766
(dp1767
g62
(dp1768
sg71
g1762
sg64
(lp1769
g57
(g58
g59
NtRp1770
(dp1771
g62
(dp1772
g70
I3
ssg71
g1766
sg64
(lp1773
S'1'
asbasbasbag57
(g73
g59
NtRp1774
(dp1775
g62
(dp1776
sg71
g1758
sg64
(lp1777
g57
(g78
g59
NtRp1778
(dp1779
g62
(dp1780
sg71
g1774
sg64
(lp1781
g57
(g58
g59
NtRp1782
(dp1783
g62
(dp1784
g70
I3
ssg71
g1778
sg64
(lp1785
S'0'
asbasbasbasbasbasbasbasbasbasbasbag57
(g73
g59
NtRp1786
(dp1787
g62
(dp1788
sg71
g67
sg64
(lp1789
g57
(g78
g59
NtRp1790
(dp1791
g62
(dp1792
g82
g83
ssg71
g1786
sg64
(lp1793
S'extension'
p1794
asbag57
(g78
g59
NtRp1795
(dp1796
g62
(dp1797
g89
g90
ssg71
g1786
sg64
(lp1798
S':'
asbag57
(g78
g59
NtRp1799
(dp1800
g62
(dp1801
sg71
g1786
sg64
(lp1802
g57
(g58
g59
NtRp1803
(dp1804
g62
(dp1805
g70
I5
ssg71
g1799
sg64
(lp1806
S'html'
p1807
asbasbasbag57
(g73
g59
NtRp1808
(dp1809
g62
(dp1810
sg71
g67
sg64
(lp1811
g57
(g78
g59
NtRp1812
(dp1813
g62
(dp1814
g82
g83
ssg71
g1808
sg64
(lp1815
S'folder'
p1816
asbag57
(g78
g59
NtRp1817
(dp1818
g62
(dp1819
g89
g90
ssg71
g1808
sg64
(lp1820
S':'
asbag57
(g78
g59
NtRp1821
(dp1822
g62
(dp1823
sg71
g1808
sg64
(lp1824
g57
(g58
g59
NtRp1825
(dp1826
g62
(dp1827
g70
I5
ssg71
g1821
sg64
(lp1828
S'/home/marco/projects/contabilidad/web2py/applications/sueldos/'
p1829
asbasbasbag57
(g73
g59
NtRp1830
(dp1831
g62
(dp1832
sg71
g67
sg64
(lp1833
g57
(g78
g59
NtRp1834
(dp1835
g62
(dp1836
g82
g83
ssg71
g1830
sg64
(lp1837
S'function'
p1838
asbag57
(g78
g59
NtRp1839
(dp1840
g62
(dp1841
g89
g90
ssg71
g1830
sg64
(lp1842
S':'
asbag57
(g78
g59
NtRp1843
(dp1844
g62
(dp1845
sg71
g1830
sg64
(lp1846
g57
(g58
g59
NtRp1847
(dp1848
g62
(dp1849
g70
I5
ssg71
g1843
sg64
(lp1850
S'importes'
p1851
asbasbasbag57
(g73
g59
NtRp1852
(dp1853
g62
(dp1854
sg71
g67
sg64
(lp1855
g57
(g78
g59
NtRp1856
(dp1857
g62
(dp1858
g82
g83
ssg71
g1852
sg64
(lp1859
S'get_vars'
p1860
asbag57
(g78
g59
NtRp1861
(dp1862
g62
(dp1863
g89
g90
ssg71
g1852
sg64
(lp1864
S':'
asbag57
(g78
g59
NtRp1865
(dp1866
g62
(dp1867
sg71
g1852
sg64
(lp1868
g57
(g58
g59
NtRp1869
(dp1870
g62
(dp1871
g70
I5
ssg71
g1865
sg64
(lp1872
g57
(g66
g59
NtRp1873
(dp1874
g62
(dp1875
g70
I4
ssg71
Nsg64
(lp1876
g57
(g73
g59
NtRp1877
(dp1878
g62
(dp1879
sg71
g1873
sg64
(lp1880
g57
(g78
g59
NtRp1881
(dp1882
g62
(dp1883
g82
g83
ssg71
g1877
sg64
(lp1884
S'id'
p1885
asbag57
(g78
g59
NtRp1886
(dp1887
g62
(dp1888
g89
g90
ssg71
g1877
sg64
(lp1889
S':'
asbag57
(g78
g59
NtRp1890
(dp1891
g62
(dp1892
sg71
g1877
sg64
(lp1893
g57
(g58
g59
NtRp1894
(dp1895
g62
(dp1896
g70
I4
ssg71
g1890
sg64
(lp1897
S'1'
asbasbasbag57
(g73
g59
NtRp1898
(dp1899
g62
(dp1900
sg71
g1873
sg64
(lp1901
g57
(g78
g59
NtRp1902
(dp1903
g62
(dp1904
g82
g83
ssg71
g1898
sg64
(lp1905
S'sindicato'
p1906
asbag57
(g78
g59
NtRp1907
(dp1908
g62
(dp1909
g89
g90
ssg71
g1898
sg64
(lp1910
S':'
asbag57
(g78
g59
NtRp1911
(dp1912
g62
(dp1913
sg71
g1898
sg64
(lp1914
g57
(g58
g59
NtRp1915
(dp1916
g62
(dp1917
g70
I4
ssg71
g1911
sg64
(lp1918
S'ALIMENTACI\xc3\x93N'
p1919
asbasbasbasbasbasbasbag57
(g73
g59
NtRp1920
(dp1921
g62
(dp1922
sg71
g67
sg64
(lp1923
g57
(g78
g59
NtRp1924
(dp1925
g62
(dp1926
g82
g83
ssg71
g1920
sg64
(lp1927
S'global_settings'
p1928
asbag57
(g78
g59
NtRp1929
(dp1930
g62
(dp1931
g89
g90
ssg71
g1920
sg64
(lp1932
S':'
asbag57
(g78
g59
NtRp1933
(dp1934
g62
(dp1935
sg71
g1920
sg64
(lp1936
g57
(g58
g59
NtRp1937
(dp1938
g62
(dp1939
g70
I5
ssg71
g1933
sg64
(lp1940
g57
(g66
g59
NtRp1941
(dp1942
g62
(dp1943
g70
I4
ssg71
Nsg64
(lp1944
g57
(g73
g59
NtRp1945
(dp1946
g62
(dp1947
sg71
g1941
sg64
(lp1948
g57
(g78
g59
NtRp1949
(dp1950
g62
(dp1951
g82
g83
ssg71
g1945
sg64
(lp1952
g673
asbag57
(g78
g59
NtRp1953
(dp1954
g62
(dp1955
g89
g90
ssg71
g1945
sg64
(lp1956
S':'
asbag57
(g78
g59
NtRp1957
(dp1958
g62
(dp1959
sg71
g1945
sg64
(lp1960
g57
(g58
g59
NtRp1961
(dp1962
g62
(dp1963
g70
I4
ssg71
g1957
sg64
(lp1964
S"set(['/home/marco/projects/contabilidad/web2py/applications/admin/', '/home/marco/projects/contabilidad/web2py/applications/sueldos/'])"
p1965
asbasbasbag57
(g73
g59
NtRp1966
(dp1967
g62
(dp1968
sg71
g1941
sg64
(lp1969
g57
(g78
g59
NtRp1970
(dp1971
g62
(dp1972
g82
g83
ssg71
g1966
sg64
(lp1973
g695
asbag57
(g78
g59
NtRp1974
(dp1975
g62
(dp1976
g89
g90
ssg71
g1966
sg64
(lp1977
S':'
asbag57
(g78
g59
NtRp1978
(dp1979
g62
(dp1980
sg71
g1966
sg64
(lp1981
g57
(g58
g59
NtRp1982
(dp1983
g62
(dp1984
g70
I4
ssg71
g1978
sg64
(lp1985
g708
asbasbasbag57
(g73
g59
NtRp1986
(dp1987
g62
(dp1988
sg71
g1941
sg64
(lp1989
g57
(g78
g59
NtRp1990
(dp1991
g62
(dp1992
g82
g83
ssg71
g1986
sg64
(lp1993
g717
asbag57
(g78
g59
NtRp1994
(dp1995
g62
(dp1996
g89
g90
ssg71
g1986
sg64
(lp1997
S':'
asbag57
(g78
g59
NtRp1998
(dp1999
g62
(dp2000
sg71
g1986
sg64
(lp2001
g57
(g58
g59
NtRp2002
(dp2003
g62
(dp2004
g70
I4
ssg71
g1998
sg64
(lp2005
g57
(g66
g59
NtRp2006
(dp2007
g62
(dp2008
g70
I3
ssg71
Nsg64
(lp2009
sbasbasbasbag57
(g73
g59
NtRp2010
(dp2011
g62
(dp2012
sg71
g1941
sg64
(lp2013
g57
(g78
g59
NtRp2014
(dp2015
g62
(dp2016
g82
g83
ssg71
g2010
sg64
(lp2017
g742
asbag57
(g78
g59
NtRp2018
(dp2019
g62
(dp2020
g89
g90
ssg71
g2010
sg64
(lp2021
S':'
asbag57
(g78
g59
NtRp2022
(dp2023
g62
(dp2024
sg71
g2010
sg64
(lp2025
g57
(g58
g59
NtRp2026
(dp2027
g62
(dp2028
g70
I4
ssg71
g2022
sg64
(lp2029
S"<Values at 0x2e6b5a8: {'verbose': False, 'ip': '127.0.0.1', 'with_scheduler': False, 'ips': [], 'shutdown_timeout': 5, 'taskbar': False, 'port': 8000, 'maxthreads': None, 'softcron': False, 'server_name': 'malena', 'bpython': False, 'nogui': False, 'pid_filename': 'httpserver.pid', 'extcron': False, 'runcron': False, 'run_system_tests': False, 'test': None, 'folder': '/home/marco/projects/contabilidad/web2py', 'config': '', 'minthreads': None, 'winservice': '', 'shell': None, 'run': '', 'log_filename': 'httpserver.log', 'debuglevel': 30, 'args': [''], 'socket_timeout': 5, 'ssl_ca_certificate': None, 'scheduler': None, 'profiler_filename': None, 'ssl_private_key': '', 'scheduler_groups': None, 'password': 'asd', 'request_queue_size': 5, 'ssl_certificate': '', 'cronjob': False, 'numthreads': None, 'quiet': False, 'interfaces': None, 'import_models': False, 'timeout': 10, 'plain': False, 'nobanner': False}>"
p2030
asbasbasbag57
(g73
g59
NtRp2031
(dp2032
g62
(dp2033
sg71
g1941
sg64
(lp2034
g57
(g78
g59
NtRp2035
(dp2036
g62
(dp2037
g82
g83
ssg71
g2031
sg64
(lp2038
g808
asbag57
(g78
g59
NtRp2039
(dp2040
g62
(dp2041
g89
g90
ssg71
g2031
sg64
(lp2042
S':'
asbag57
(g78
g59
NtRp2043
(dp2044
g62
(dp2045
sg71
g2031
sg64
(lp2046
g57
(g58
g59
NtRp2047
(dp2048
g62
(dp2049
g70
I4
ssg71
g2043
sg64
(lp2050
S'set([])'
p2051
asbasbasbag57
(g73
g59
NtRp2052
(dp2053
g62
(dp2054
sg71
g1941
sg64
(lp2055
g57
(g78
g59
NtRp2056
(dp2057
g62
(dp2058
g82
g83
ssg71
g2052
sg64
(lp2059
g830
asbag57
(g78
g59
NtRp2060
(dp2061
g62
(dp2062
g89
g90
ssg71
g2052
sg64
(lp2063
S':'
asbag57
(g78
g59
NtRp2064
(dp2065
g62
(dp2066
sg71
g2052
sg64
(lp2067
g57
(g58
g59
NtRp2068
(dp2069
g62
(dp2070
g70
I4
ssg71
g2064
sg64
(lp2071
g100
asbasbasbag57
(g73
g59
NtRp2072
(dp2073
g62
(dp2074
sg71
g1941
sg64
(lp2075
g57
(g78
g59
NtRp2076
(dp2077
g62
(dp2078
g82
g83
ssg71
g2072
sg64
(lp2079
g851
asbag57
(g78
g59
NtRp2080
(dp2081
g62
(dp2082
g89
g90
ssg71
g2072
sg64
(lp2083
S':'
asbag57
(g78
g59
NtRp2084
(dp2085
g62
(dp2086
sg71
g2072
sg64
(lp2087
g57
(g58
g59
NtRp2088
(dp2089
g62
(dp2090
g70
I4
ssg71
g2084
sg64
(lp2091
g864
asbasbasbag57
(g73
g59
NtRp2092
(dp2093
g62
(dp2094
sg71
g1941
sg64
(lp2095
g57
(g78
g59
NtRp2096
(dp2097
g62
(dp2098
g82
g83
ssg71
g2092
sg64
(lp2099
g1113
asbag57
(g78
g59
NtRp2100
(dp2101
g62
(dp2102
g89
g90
ssg71
g2092
sg64
(lp2103
S':'
asbag57
(g78
g59
NtRp2104
(dp2105
g62
(dp2106
sg71
g2092
sg64
(lp2107
g57
(g58
g59
NtRp2108
(dp2109
g62
(dp2110
g70
I4
ssg71
g2104
sg64
(lp2111
g100
asbasbasbag57
(g73
g59
NtRp2112
(dp2113
g62
(dp2114
sg71
g1941
sg64
(lp2115
g57
(g78
g59
NtRp2116
(dp2117
g62
(dp2118
g82
g83
ssg71
g2112
sg64
(lp2119
g1134
asbag57
(g78
g59
NtRp2120
(dp2121
g62
(dp2122
g89
g90
ssg71
g2112
sg64
(lp2123
S':'
asbag57
(g78
g59
NtRp2124
(dp2125
g62
(dp2126
sg71
g2112
sg64
(lp2127
g57
(g58
g59
NtRp2128
(dp2129
g62
(dp2130
g70
I4
ssg71
g2124
sg64
(lp2131
g100
asbasbasbag57
(g73
g59
NtRp2132
(dp2133
g62
(dp2134
sg71
g1941
sg64
(lp2135
g57
(g78
g59
NtRp2136
(dp2137
g62
(dp2138
g82
g83
ssg71
g2132
sg64
(lp2139
g1155
asbag57
(g78
g59
NtRp2140
(dp2141
g62
(dp2142
g89
g90
ssg71
g2132
sg64
(lp2143
S':'
asbag57
(g78
g59
NtRp2144
(dp2145
g62
(dp2146
sg71
g2132
sg64
(lp2147
g57
(g58
g59
NtRp2148
(dp2149
g62
(dp2150
g70
I4
ssg71
g2144
sg64
(lp2151
g57
(g66
g59
NtRp2152
(dp2153
g62
(dp2154
g70
I3
ssg71
Nsg64
(lp2155
g57
(g73
g59
NtRp2156
(dp2157
g62
(dp2158
sg71
g2152
sg64
(lp2159
g57
(g78
g59
NtRp2160
(dp2161
g62
(dp2162
sg71
g2156
sg64
(lp2163
g57
(g58
g59
NtRp2164
(dp2165
g62
(dp2166
g70
I3
ssg71
g2160
sg64
(lp2167
g1184
asbasbasbag57
(g73
g59
NtRp2168
(dp2169
g62
(dp2170
sg71
g2152
sg64
(lp2171
g57
(g78
g59
NtRp2172
(dp2173
g62
(dp2174
sg71
g2168
sg64
(lp2175
g57
(g58
g59
NtRp2176
(dp2177
g62
(dp2178
g70
I3
ssg71
g2172
sg64
(lp2179
g1197
asbasbasbag57
(g73
g59
NtRp2180
(dp2181
g62
(dp2182
sg71
g2152
sg64
(lp2183
g57
(g78
g59
NtRp2184
(dp2185
g62
(dp2186
sg71
g2180
sg64
(lp2187
g57
(g58
g59
NtRp2188
(dp2189
g62
(dp2190
g70
I3
ssg71
g2184
sg64
(lp2191
g1210
asbasbasbag57
(g73
g59
NtRp2192
(dp2193
g62
(dp2194
sg71
g2152
sg64
(lp2195
g57
(g78
g59
NtRp2196
(dp2197
g62
(dp2198
sg71
g2192
sg64
(lp2199
g57
(g58
g59
NtRp2200
(dp2201
g62
(dp2202
g70
I3
ssg71
g2196
sg64
(lp2203
g1223
asbasbasbag57
(g73
g59
NtRp2204
(dp2205
g62
(dp2206
sg71
g2152
sg64
(lp2207
g57
(g78
g59
NtRp2208
(dp2209
g62
(dp2210
sg71
g2204
sg64
(lp2211
g57
(g58
g59
NtRp2212
(dp2213
g62
(dp2214
g70
I3
ssg71
g2208
sg64
(lp2215
g1236
asbasbasbasbasbasbasbag57
(g73
g59
NtRp2216
(dp2217
g62
(dp2218
sg71
g1941
sg64
(lp2219
g57
(g78
g59
NtRp2220
(dp2221
g62
(dp2222
g82
g83
ssg71
g2216
sg64
(lp2223
g1506
asbag57
(g78
g59
NtRp2224
(dp2225
g62
(dp2226
g89
g90
ssg71
g2216
sg64
(lp2227
S':'
asbag57
(g78
g59
NtRp2228
(dp2229
g62
(dp2230
sg71
g2216
sg64
(lp2231
g57
(g58
g59
NtRp2232
(dp2233
g62
(dp2234
g70
I4
ssg71
g2228
sg64
(lp2235
g57
(g66
g59
NtRp2236
(dp2237
g62
(dp2238
g70
I3
ssg71
Nsg64
(lp2239
g57
(g73
g59
NtRp2240
(dp2241
g62
(dp2242
sg71
g2236
sg64
(lp2243
g57
(g78
g59
NtRp2244
(dp2245
g62
(dp2246
sg71
g2240
sg64
(lp2247
g57
(g58
g59
NtRp2248
(dp2249
g62
(dp2250
g70
I3
ssg71
g2244
sg64
(lp2251
S'2'
asbasbasbag57
(g73
g59
NtRp2252
(dp2253
g62
(dp2254
sg71
g2236
sg64
(lp2255
g57
(g78
g59
NtRp2256
(dp2257
g62
(dp2258
sg71
g2252
sg64
(lp2259
g57
(g58
g59
NtRp2260
(dp2261
g62
(dp2262
g70
I3
ssg71
g2256
sg64
(lp2263
S'4'
asbasbasbag57
(g73
g59
NtRp2264
(dp2265
g62
(dp2266
sg71
g2236
sg64
(lp2267
g57
(g78
g59
NtRp2268
(dp2269
g62
(dp2270
sg71
g2264
sg64
(lp2271
g57
(g58
g59
NtRp2272
(dp2273
g62
(dp2274
g70
I3
ssg71
g2268
sg64
(lp2275
S'1'
asbasbasbag57
(g73
g59
NtRp2276
(dp2277
g62
(dp2278
sg71
g2236
sg64
(lp2279
g57
(g78
g59
NtRp2280
(dp2281
g62
(dp2282
sg71
g2276
sg64
(lp2283
g57
(g58
g59
NtRp2284
(dp2285
g62
(dp2286
g70
I3
ssg71
g2280
sg64
(lp2287
g1571
asbasbasbag57
(g73
g59
NtRp2288
(dp2289
g62
(dp2290
sg71
g2236
sg64
(lp2291
g57
(g78
g59
NtRp2292
(dp2293
g62
(dp2294
sg71
g2288
sg64
(lp2295
g57
(g58
g59
NtRp2296
(dp2297
g62
(dp2298
g70
I3
ssg71
g2292
sg64
(lp2299
S'datetime.datetime(2013, 1, 10, 21, 26, 18)'
p2300
asbasbasbasbasbasbasbasbasbasbasbag57
(g73
g59
NtRp2301
(dp2302
g62
(dp2303
sg71
g67
sg64
(lp2304
g57
(g78
g59
NtRp2305
(dp2306
g62
(dp2307
g82
g83
ssg71
g2301
sg64
(lp2308
S'is_https'
p2309
asbag57
(g78
g59
NtRp2310
(dp2311
g62
(dp2312
g89
g90
ssg71
g2301
sg64
(lp2313
S':'
asbag57
(g78
g59
NtRp2314
(dp2315
g62
(dp2316
sg71
g2301
sg64
(lp2317
g57
(g58
g59
NtRp2318
(dp2319
g62
(dp2320
g70
I5
ssg71
g2314
sg64
(lp2321
g100
asbasbasbag57
(g73
g59
NtRp2322
(dp2323
g62
(dp2324
sg71
g67
sg64
(lp2325
g57
(g78
g59
NtRp2326
(dp2327
g62
(dp2328
g82
g83
ssg71
g2322
sg64
(lp2329
S'is_local'
p2330
asbag57
(g78
g59
NtRp2331
(dp2332
g62
(dp2333
g89
g90
ssg71
g2322
sg64
(lp2334
S':'
asbag57
(g78
g59
NtRp2335
(dp2336
g62
(dp2337
sg71
g2322
sg64
(lp2338
g57
(g58
g59
NtRp2339
(dp2340
g62
(dp2341
g70
I5
ssg71
g2335
sg64
(lp2342
g1693
asbasbasbag57
(g73
g59
NtRp2343
(dp2344
g62
(dp2345
sg71
g67
sg64
(lp2346
g57
(g78
g59
NtRp2347
(dp2348
g62
(dp2349
g82
g83
ssg71
g2343
sg64
(lp2350
S'is_restful'
p2351
asbag57
(g78
g59
NtRp2352
(dp2353
g62
(dp2354
g89
g90
ssg71
g2343
sg64
(lp2355
S':'
asbag57
(g78
g59
NtRp2356
(dp2357
g62
(dp2358
sg71
g2343
sg64
(lp2359
g57
(g58
g59
NtRp2360
(dp2361
g62
(dp2362
g70
I5
ssg71
g2356
sg64
(lp2363
g100
asbasbasbag57
(g73
g59
NtRp2364
(dp2365
g62
(dp2366
sg71
g67
sg64
(lp2367
g57
(g78
g59
NtRp2368
(dp2369
g62
(dp2370
g82
g83
ssg71
g2364
sg64
(lp2371
S'now'
p2372
asbag57
(g78
g59
NtRp2373
(dp2374
g62
(dp2375
g89
g90
ssg71
g2364
sg64
(lp2376
S':'
asbag57
(g78
g59
NtRp2377
(dp2378
g62
(dp2379
sg71
g2364
sg64
(lp2380
g57
(g58
g59
NtRp2381
(dp2382
g62
(dp2383
g70
I5
ssg71
g2377
sg64
(lp2384
S'datetime.datetime(2013, 1, 22, 18, 21, 14, 399763)'
p2385
asbasbasbag57
(g73
g59
NtRp2386
(dp2387
g62
(dp2388
sg71
g67
sg64
(lp2389
g57
(g78
g59
NtRp2390
(dp2391
g62
(dp2392
g82
g83
ssg71
g2386
sg64
(lp2393
S'post_vars'
p2394
asbag57
(g78
g59
NtRp2395
(dp2396
g62
(dp2397
g89
g90
ssg71
g2386
sg64
(lp2398
S':'
asbag57
(g78
g59
NtRp2399
(dp2400
g62
(dp2401
sg71
g2386
sg64
(lp2402
g57
(g58
g59
NtRp2403
(dp2404
g62
(dp2405
g70
I5
ssg71
g2399
sg64
(lp2406
g57
(g66
g59
NtRp2407
(dp2408
g62
(dp2409
g70
I4
ssg71
Nsg64
(lp2410
g57
(g73
g59
NtRp2411
(dp2412
g62
(dp2413
sg71
g2407
sg64
(lp2414
g57
(g78
g59
NtRp2415
(dp2416
g62
(dp2417
g82
g83
ssg71
g2411
sg64
(lp2418
S'fecha'
p2419
asbag57
(g78
g59
NtRp2420
(dp2421
g62
(dp2422
g89
g90
ssg71
g2411
sg64
(lp2423
S':'
asbag57
(g78
g59
NtRp2424
(dp2425
g62
(dp2426
sg71
g2411
sg64
(lp2427
g57
(g58
g59
NtRp2428
(dp2429
g62
(dp2430
g70
I4
ssg71
g2424
sg64
(lp2431
S'2012-09-02'
p2432
asbasbasbag57
(g73
g59
NtRp2433
(dp2434
g62
(dp2435
sg71
g2407
sg64
(lp2436
g57
(g78
g59
NtRp2437
(dp2438
g62
(dp2439
g82
g83
ssg71
g2433
sg64
(lp2440
S'gremio'
p2441
asbag57
(g78
g59
NtRp2442
(dp2443
g62
(dp2444
g89
g90
ssg71
g2433
sg64
(lp2445
S':'
asbag57
(g78
g59
NtRp2446
(dp2447
g62
(dp2448
sg71
g2433
sg64
(lp2449
g57
(g58
g59
NtRp2450
(dp2451
g62
(dp2452
g70
I4
ssg71
g2446
sg64
(lp2453
S'1'
asbasbasbag57
(g73
g59
NtRp2454
(dp2455
g62
(dp2456
sg71
g2407
sg64
(lp2457
g57
(g78
g59
NtRp2458
(dp2459
g62
(dp2460
g82
g83
ssg71
g2454
sg64
(lp2461
S'nombre'
p2462
asbag57
(g78
g59
NtRp2463
(dp2464
g62
(dp2465
g89
g90
ssg71
g2454
sg64
(lp2466
S':'
asbag57
(g78
g59
NtRp2467
(dp2468
g62
(dp2469
sg71
g2454
sg64
(lp2470
g57
(g58
g59
NtRp2471
(dp2472
g62
(dp2473
g70
I4
ssg71
g2467
sg64
(lp2474
S'nuevo'
p2475
asbasbasbag57
(g73
g59
NtRp2476
(dp2477
g62
(dp2478
sg71
g2407
sg64
(lp2479
g57
(g78
g59
NtRp2480
(dp2481
g62
(dp2482
g82
g83
ssg71
g2476
sg64
(lp2483
S'pago'
p2484
asbag57
(g78
g59
NtRp2485
(dp2486
g62
(dp2487
g89
g90
ssg71
g2476
sg64
(lp2488
S':'
asbag57
(g78
g59
NtRp2489
(dp2490
g62
(dp2491
sg71
g2476
sg64
(lp2492
g57
(g58
g59
NtRp2493
(dp2494
g62
(dp2495
g70
I4
ssg71
g2489
sg64
(lp2496
S'Permanente'
p2497
asbasbasbag57
(g73
g59
NtRp2498
(dp2499
g62
(dp2500
sg71
g2407
sg64
(lp2501
g57
(g78
g59
NtRp2502
(dp2503
g62
(dp2504
g82
g83
ssg71
g2498
sg64
(lp2505
S'timporte'
p2506
asbag57
(g78
g59
NtRp2507
(dp2508
g62
(dp2509
g89
g90
ssg71
g2498
sg64
(lp2510
S':'
asbag57
(g78
g59
NtRp2511
(dp2512
g62
(dp2513
sg71
g2498
sg64
(lp2514
g57
(g58
g59
NtRp2515
(dp2516
g62
(dp2517
g70
I4
ssg71
g2511
sg64
(lp2518
S'Porcentual'
p2519
asbasbasbag57
(g73
g59
NtRp2520
(dp2521
g62
(dp2522
sg71
g2407
sg64
(lp2523
g57
(g78
g59
NtRp2524
(dp2525
g62
(dp2526
g82
g83
ssg71
g2520
sg64
(lp2527
S'valor'
p2528
asbag57
(g78
g59
NtRp2529
(dp2530
g62
(dp2531
g89
g90
ssg71
g2520
sg64
(lp2532
S':'
asbag57
(g78
g59
NtRp2533
(dp2534
g62
(dp2535
sg71
g2520
sg64
(lp2536
g57
(g58
g59
NtRp2537
(dp2538
g62
(dp2539
g70
I4
ssg71
g2533
sg64
(lp2540
S'12'
p2541
asbasbasbasbasbasbasbag57
(g73
g59
NtRp2542
(dp2543
g62
(dp2544
sg71
g67
sg64
(lp2545
g57
(g78
g59
NtRp2546
(dp2547
g62
(dp2548
g82
g83
ssg71
g2542
sg64
(lp2549
S'raw_args'
p2550
asbag57
(g78
g59
NtRp2551
(dp2552
g62
(dp2553
g89
g90
ssg71
g2542
sg64
(lp2554
S':'
asbag57
(g78
g59
NtRp2555
(dp2556
g62
(dp2557
sg71
g2542
sg64
(lp2558
g57
(g58
g59
NtRp2559
(dp2560
g62
(dp2561
g70
I5
ssg71
g2555
sg64
(lp2562
S''
asbasbasbag57
(g73
g59
NtRp2563
(dp2564
g62
(dp2565
sg71
g67
sg64
(lp2566
g57
(g78
g59
NtRp2567
(dp2568
g62
(dp2569
g82
g83
ssg71
g2563
sg64
(lp2570
S'raw_extension'
p2571
asbag57
(g78
g59
NtRp2572
(dp2573
g62
(dp2574
g89
g90
ssg71
g2563
sg64
(lp2575
S':'
asbag57
(g78
g59
NtRp2576
(dp2577
g62
(dp2578
sg71
g2563
sg64
(lp2579
g57
(g58
g59
NtRp2580
(dp2581
g62
(dp2582
g70
I5
ssg71
g2576
sg64
(lp2583
S'None'
p2584
asbasbasbag57
(g73
g59
NtRp2585
(dp2586
g62
(dp2587
sg71
g67
sg64
(lp2588
g57
(g78
g59
NtRp2589
(dp2590
g62
(dp2591
g82
g83
ssg71
g2585
sg64
(lp2592
S'url'
p2593
asbag57
(g78
g59
NtRp2594
(dp2595
g62
(dp2596
g89
g90
ssg71
g2585
sg64
(lp2597
S':'
asbag57
(g78
g59
NtRp2598
(dp2599
g62
(dp2600
sg71
g2585
sg64
(lp2601
g57
(g58
g59
NtRp2602
(dp2603
g62
(dp2604
g70
I5
ssg71
g2598
sg64
(lp2605
g1258
asbasbasbag57
(g73
g59
NtRp2606
(dp2607
g62
(dp2608
sg71
g67
sg64
(lp2609
g57
(g78
g59
NtRp2610
(dp2611
g62
(dp2612
g82
g83
ssg71
g2606
sg64
(lp2613
S'utcnow'
p2614
asbag57
(g78
g59
NtRp2615
(dp2616
g62
(dp2617
g89
g90
ssg71
g2606
sg64
(lp2618
S':'
asbag57
(g78
g59
NtRp2619
(dp2620
g62
(dp2621
sg71
g2606
sg64
(lp2622
g57
(g58
g59
NtRp2623
(dp2624
g62
(dp2625
g70
I5
ssg71
g2619
sg64
(lp2626
S'datetime.datetime(2013, 1, 22, 21, 21, 14, 399797)'
p2627
asbasbasbag57
(g73
g59
NtRp2628
(dp2629
g62
(dp2630
sg71
g67
sg64
(lp2631
g57
(g78
g59
NtRp2632
(dp2633
g62
(dp2634
g82
g83
ssg71
g2628
sg64
(lp2635
S'uuid'
p2636
asbag57
(g78
g59
NtRp2637
(dp2638
g62
(dp2639
g89
g90
ssg71
g2628
sg64
(lp2640
S':'
asbag57
(g78
g59
NtRp2641
(dp2642
g62
(dp2643
sg71
g2628
sg64
(lp2644
g57
(g58
g59
NtRp2645
(dp2646
g62
(dp2647
g70
I5
ssg71
g2641
sg64
(lp2648
S'sueldos/127.0.0.1.2013-01-22.18-21-14.80540de4-e27f-4a70-b8ae-cfb9e9e8722e'
p2649
asbasbasbag57
(g73
g59
NtRp2650
(dp2651
g62
(dp2652
sg71
g67
sg64
(lp2653
g57
(g78
g59
NtRp2654
(dp2655
g62
(dp2656
g82
g83
ssg71
g2650
sg64
(lp2657
S'vars'
p2658
asbag57
(g78
g59
NtRp2659
(dp2660
g62
(dp2661
g89
g90
ssg71
g2650
sg64
(lp2662
S':'
asbag57
(g78
g59
NtRp2663
(dp2664
g62
(dp2665
sg71
g2650
sg64
(lp2666
g57
(g58
g59
NtRp2667
(dp2668
g62
(dp2669
g70
I5
ssg71
g2663
sg64
(lp2670
g57
(g66
g59
NtRp2671
(dp2672
g62
(dp2673
g70
I4
ssg71
Nsg64
(lp2674
g57
(g73
g59
NtRp2675
(dp2676
g62
(dp2677
sg71
g2671
sg64
(lp2678
g57
(g78
g59
NtRp2679
(dp2680
g62
(dp2681
g82
g83
ssg71
g2675
sg64
(lp2682
g2419
asbag57
(g78
g59
NtRp2683
(dp2684
g62
(dp2685
g89
g90
ssg71
g2675
sg64
(lp2686
S':'
asbag57
(g78
g59
NtRp2687
(dp2688
g62
(dp2689
sg71
g2675
sg64
(lp2690
g57
(g58
g59
NtRp2691
(dp2692
g62
(dp2693
g70
I4
ssg71
g2687
sg64
(lp2694
g2432
asbasbasbag57
(g73
g59
NtRp2695
(dp2696
g62
(dp2697
sg71
g2671
sg64
(lp2698
g57
(g78
g59
NtRp2699
(dp2700
g62
(dp2701
g82
g83
ssg71
g2695
sg64
(lp2702
g2441
asbag57
(g78
g59
NtRp2703
(dp2704
g62
(dp2705
g89
g90
ssg71
g2695
sg64
(lp2706
S':'
asbag57
(g78
g59
NtRp2707
(dp2708
g62
(dp2709
sg71
g2695
sg64
(lp2710
g57
(g58
g59
NtRp2711
(dp2712
g62
(dp2713
g70
I4
ssg71
g2707
sg64
(lp2714
S'1'
asbasbasbag57
(g73
g59
NtRp2715
(dp2716
g62
(dp2717
sg71
g2671
sg64
(lp2718
g57
(g78
g59
NtRp2719
(dp2720
g62
(dp2721
g82
g83
ssg71
g2715
sg64
(lp2722
g1885
asbag57
(g78
g59
NtRp2723
(dp2724
g62
(dp2725
g89
g90
ssg71
g2715
sg64
(lp2726
S':'
asbag57
(g78
g59
NtRp2727
(dp2728
g62
(dp2729
sg71
g2715
sg64
(lp2730
g57
(g58
g59
NtRp2731
(dp2732
g62
(dp2733
g70
I4
ssg71
g2727
sg64
(lp2734
S'1'
asbasbasbag57
(g73
g59
NtRp2735
(dp2736
g62
(dp2737
sg71
g2671
sg64
(lp2738
g57
(g78
g59
NtRp2739
(dp2740
g62
(dp2741
g82
g83
ssg71
g2735
sg64
(lp2742
g2462
asbag57
(g78
g59
NtRp2743
(dp2744
g62
(dp2745
g89
g90
ssg71
g2735
sg64
(lp2746
S':'
asbag57
(g78
g59
NtRp2747
(dp2748
g62
(dp2749
sg71
g2735
sg64
(lp2750
g57
(g58
g59
NtRp2751
(dp2752
g62
(dp2753
g70
I4
ssg71
g2747
sg64
(lp2754
g2475
asbasbasbag57
(g73
g59
NtRp2755
(dp2756
g62
(dp2757
sg71
g2671
sg64
(lp2758
g57
(g78
g59
NtRp2759
(dp2760
g62
(dp2761
g82
g83
ssg71
g2755
sg64
(lp2762
g2484
asbag57
(g78
g59
NtRp2763
(dp2764
g62
(dp2765
g89
g90
ssg71
g2755
sg64
(lp2766
S':'
asbag57
(g78
g59
NtRp2767
(dp2768
g62
(dp2769
sg71
g2755
sg64
(lp2770
g57
(g58
g59
NtRp2771
(dp2772
g62
(dp2773
g70
I4
ssg71
g2767
sg64
(lp2774
g2497
asbasbasbag57
(g73
g59
NtRp2775
(dp2776
g62
(dp2777
sg71
g2671
sg64
(lp2778
g57
(g78
g59
NtRp2779
(dp2780
g62
(dp2781
g82
g83
ssg71
g2775
sg64
(lp2782
g1906
asbag57
(g78
g59
NtRp2783
(dp2784
g62
(dp2785
g89
g90
ssg71
g2775
sg64
(lp2786
S':'
asbag57
(g78
g59
NtRp2787
(dp2788
g62
(dp2789
sg71
g2775
sg64
(lp2790
g57
(g58
g59
NtRp2791
(dp2792
g62
(dp2793
g70
I4
ssg71
g2787
sg64
(lp2794
S'ALIMENTACI\xc3\x93N'
p2795
asbasbasbag57
(g73
g59
NtRp2796
(dp2797
g62
(dp2798
sg71
g2671
sg64
(lp2799
g57
(g78
g59
NtRp2800
(dp2801
g62
(dp2802
g82
g83
ssg71
g2796
sg64
(lp2803
g2506
asbag57
(g78
g59
NtRp2804
(dp2805
g62
(dp2806
g89
g90
ssg71
g2796
sg64
(lp2807
S':'
asbag57
(g78
g59
NtRp2808
(dp2809
g62
(dp2810
sg71
g2796
sg64
(lp2811
g57
(g58
g59
NtRp2812
(dp2813
g62
(dp2814
g70
I4
ssg71
g2808
sg64
(lp2815
g2519
asbasbasbag57
(g73
g59
NtRp2816
(dp2817
g62
(dp2818
sg71
g2671
sg64
(lp2819
g57
(g78
g59
NtRp2820
(dp2821
g62
(dp2822
g82
g83
ssg71
g2816
sg64
(lp2823
g2528
asbag57
(g78
g59
NtRp2824
(dp2825
g62
(dp2826
g89
g90
ssg71
g2816
sg64
(lp2827
S':'
asbag57
(g78
g59
NtRp2828
(dp2829
g62
(dp2830
sg71
g2816
sg64
(lp2831
g57
(g58
g59
NtRp2832
(dp2833
g62
(dp2834
g70
I4
ssg71
g2828
sg64
(lp2835
g2541
asbasbasbasbasbasbasbag57
(g73
g59
NtRp2836
(dp2837
g62
(dp2838
sg71
g67
sg64
(lp2839
g57
(g78
g59
NtRp2840
(dp2841
g62
(dp2842
g82
g83
ssg71
g2836
sg64
(lp2843
S'wsgi'
p2844
asbag57
(g78
g59
NtRp2845
(dp2846
g62
(dp2847
g89
g90
ssg71
g2836
sg64
(lp2848
S':'
asbag57
(g78
g59
NtRp2849
(dp2850
g62
(dp2851
sg71
g2836
sg64
(lp2852
g57
(g58
g59
NtRp2853
(dp2854
g62
(dp2855
g70
I5
ssg71
g2849
sg64
(lp2856
g57
(g66
g59
NtRp2857
(dp2858
g62
(dp2859
g70
I4
ssg71
Nsg64
(lp2860
g57
(g73
g59
NtRp2861
(dp2862
g62
(dp2863
sg71
g2857
sg64
(lp2864
g57
(g78
g59
NtRp2865
(dp2866
g62
(dp2867
g82
g83
ssg71
g2861
sg64
(lp2868
S'environ'
p2869
asbag57
(g78
g59
NtRp2870
(dp2871
g62
(dp2872
g89
g90
ssg71
g2861
sg64
(lp2873
S':'
asbag57
(g78
g59
NtRp2874
(dp2875
g62
(dp2876
sg71
g2861
sg64
(lp2877
g57
(g58
g59
NtRp2878
(dp2879
g62
(dp2880
g70
I4
ssg71
g2874
sg64
(lp2881
g57
(g66
g59
NtRp2882
(dp2883
g62
(dp2884
g70
I3
ssg71
Nsg64
(lp2885
g57
(g73
g59
NtRp2886
(dp2887
g62
(dp2888
sg71
g2882
sg64
(lp2889
g57
(g78
g59
NtRp2890
(dp2891
g62
(dp2892
g82
g83
ssg71
g2886
sg64
(lp2893
S'CONTENT_LENGTH'
p2894
asbag57
(g78
g59
NtRp2895
(dp2896
g62
(dp2897
g89
g90
ssg71
g2886
sg64
(lp2898
S':'
asbag57
(g78
g59
NtRp2899
(dp2900
g62
(dp2901
sg71
g2886
sg64
(lp2902
g57
(g58
g59
NtRp2903
(dp2904
g62
(dp2905
g70
I3
ssg71
g2899
sg64
(lp2906
g777
asbasbasbag57
(g73
g59
NtRp2907
(dp2908
g62
(dp2909
sg71
g2882
sg64
(lp2910
g57
(g78
g59
NtRp2911
(dp2912
g62
(dp2913
g82
g83
ssg71
g2907
sg64
(lp2914
S'CONTENT_TYPE'
p2915
asbag57
(g78
g59
NtRp2916
(dp2917
g62
(dp2918
g89
g90
ssg71
g2907
sg64
(lp2919
S':'
asbag57
(g78
g59
NtRp2920
(dp2921
g62
(dp2922
sg71
g2907
sg64
(lp2923
g57
(g58
g59
NtRp2924
(dp2925
g62
(dp2926
g70
I3
ssg71
g2920
sg64
(lp2927
g799
asbasbasbag57
(g73
g59
NtRp2928
(dp2929
g62
(dp2930
sg71
g2882
sg64
(lp2931
g57
(g78
g59
NtRp2932
(dp2933
g62
(dp2934
g82
g83
ssg71
g2928
sg64
(lp2935
S'HTTP_ACCEPT'
p2936
asbag57
(g78
g59
NtRp2937
(dp2938
g62
(dp2939
g89
g90
ssg71
g2928
sg64
(lp2940
S':'
asbag57
(g78
g59
NtRp2941
(dp2942
g62
(dp2943
sg71
g2928
sg64
(lp2944
g57
(g58
g59
NtRp2945
(dp2946
g62
(dp2947
g70
I3
ssg71
g2941
sg64
(lp2948
g886
asbasbasbag57
(g73
g59
NtRp2949
(dp2950
g62
(dp2951
sg71
g2882
sg64
(lp2952
g57
(g78
g59
NtRp2953
(dp2954
g62
(dp2955
g82
g83
ssg71
g2949
sg64
(lp2956
S'HTTP_ACCEPT_ENCODING'
p2957
asbag57
(g78
g59
NtRp2958
(dp2959
g62
(dp2960
g89
g90
ssg71
g2949
sg64
(lp2961
S':'
asbag57
(g78
g59
NtRp2962
(dp2963
g62
(dp2964
sg71
g2949
sg64
(lp2965
g57
(g58
g59
NtRp2966
(dp2967
g62
(dp2968
g70
I3
ssg71
g2962
sg64
(lp2969
g908
asbasbasbag57
(g73
g59
NtRp2970
(dp2971
g62
(dp2972
sg71
g2882
sg64
(lp2973
g57
(g78
g59
NtRp2974
(dp2975
g62
(dp2976
g82
g83
ssg71
g2970
sg64
(lp2977
S'HTTP_ACCEPT_LANGUAGE'
p2978
asbag57
(g78
g59
NtRp2979
(dp2980
g62
(dp2981
g89
g90
ssg71
g2970
sg64
(lp2982
S':'
asbag57
(g78
g59
NtRp2983
(dp2984
g62
(dp2985
sg71
g2970
sg64
(lp2986
g57
(g58
g59
NtRp2987
(dp2988
g62
(dp2989
g70
I3
ssg71
g2983
sg64
(lp2990
g930
asbasbasbag57
(g73
g59
NtRp2991
(dp2992
g62
(dp2993
sg71
g2882
sg64
(lp2994
g57
(g78
g59
NtRp2995
(dp2996
g62
(dp2997
g82
g83
ssg71
g2991
sg64
(lp2998
S'HTTP_CACHE_CONTROL'
p2999
asbag57
(g78
g59
NtRp3000
(dp3001
g62
(dp3002
g89
g90
ssg71
g2991
sg64
(lp3003
S':'
asbag57
(g78
g59
NtRp3004
(dp3005
g62
(dp3006
sg71
g2991
sg64
(lp3007
g57
(g58
g59
NtRp3008
(dp3009
g62
(dp3010
g70
I3
ssg71
g3004
sg64
(lp3011
g952
asbasbasbag57
(g73
g59
NtRp3012
(dp3013
g62
(dp3014
sg71
g2882
sg64
(lp3015
g57
(g78
g59
NtRp3016
(dp3017
g62
(dp3018
g82
g83
ssg71
g3012
sg64
(lp3019
S'HTTP_CONNECTION'
p3020
asbag57
(g78
g59
NtRp3021
(dp3022
g62
(dp3023
g89
g90
ssg71
g3012
sg64
(lp3024
S':'
asbag57
(g78
g59
NtRp3025
(dp3026
g62
(dp3027
sg71
g3012
sg64
(lp3028
g57
(g58
g59
NtRp3029
(dp3030
g62
(dp3031
g70
I3
ssg71
g3025
sg64
(lp3032
g974
asbasbasbag57
(g73
g59
NtRp3033
(dp3034
g62
(dp3035
sg71
g2882
sg64
(lp3036
g57
(g78
g59
NtRp3037
(dp3038
g62
(dp3039
g82
g83
ssg71
g3033
sg64
(lp3040
S'HTTP_CONTENT_LENGTH'
p3041
asbag57
(g78
g59
NtRp3042
(dp3043
g62
(dp3044
g89
g90
ssg71
g3033
sg64
(lp3045
S':'
asbag57
(g78
g59
NtRp3046
(dp3047
g62
(dp3048
sg71
g3033
sg64
(lp3049
g57
(g58
g59
NtRp3050
(dp3051
g62
(dp3052
g70
I3
ssg71
g3046
sg64
(lp3053
g777
asbasbasbag57
(g73
g59
NtRp3054
(dp3055
g62
(dp3056
sg71
g2882
sg64
(lp3057
g57
(g78
g59
NtRp3058
(dp3059
g62
(dp3060
g82
g83
ssg71
g3054
sg64
(lp3061
S'HTTP_CONTENT_TYPE'
p3062
asbag57
(g78
g59
NtRp3063
(dp3064
g62
(dp3065
g89
g90
ssg71
g3054
sg64
(lp3066
S':'
asbag57
(g78
g59
NtRp3067
(dp3068
g62
(dp3069
sg71
g3054
sg64
(lp3070
g57
(g58
g59
NtRp3071
(dp3072
g62
(dp3073
g70
I3
ssg71
g3067
sg64
(lp3074
g799
asbasbasbag57
(g73
g59
NtRp3075
(dp3076
g62
(dp3077
sg71
g2882
sg64
(lp3078
g57
(g78
g59
NtRp3079
(dp3080
g62
(dp3081
g82
g83
ssg71
g3075
sg64
(lp3082
S'HTTP_COOKIE'
p3083
asbag57
(g78
g59
NtRp3084
(dp3085
g62
(dp3086
g89
g90
ssg71
g3075
sg64
(lp3087
S':'
asbag57
(g78
g59
NtRp3088
(dp3089
g62
(dp3090
sg71
g3075
sg64
(lp3091
g57
(g58
g59
NtRp3092
(dp3093
g62
(dp3094
g70
I3
ssg71
g3088
sg64
(lp3095
g1038
asbasbasbag57
(g73
g59
NtRp3096
(dp3097
g62
(dp3098
sg71
g2882
sg64
(lp3099
g57
(g78
g59
NtRp3100
(dp3101
g62
(dp3102
g82
g83
ssg71
g3096
sg64
(lp3103
S'HTTP_HOST'
p3104
asbag57
(g78
g59
NtRp3105
(dp3106
g62
(dp3107
g89
g90
ssg71
g3096
sg64
(lp3108
S':'
asbag57
(g78
g59
NtRp3109
(dp3110
g62
(dp3111
sg71
g3096
sg64
(lp3112
g57
(g58
g59
NtRp3113
(dp3114
g62
(dp3115
g70
I3
ssg71
g3109
sg64
(lp3116
g1060
asbasbasbag57
(g73
g59
NtRp3117
(dp3118
g62
(dp3119
sg71
g2882
sg64
(lp3120
g57
(g78
g59
NtRp3121
(dp3122
g62
(dp3123
g82
g83
ssg71
g3117
sg64
(lp3124
S'HTTP_REFERER'
p3125
asbag57
(g78
g59
NtRp3126
(dp3127
g62
(dp3128
g89
g90
ssg71
g3117
sg64
(lp3129
S':'
asbag57
(g78
g59
NtRp3130
(dp3131
g62
(dp3132
sg71
g3117
sg64
(lp3133
g57
(g58
g59
NtRp3134
(dp3135
g62
(dp3136
g70
I3
ssg71
g3130
sg64
(lp3137
g1082
asbasbasbag57
(g73
g59
NtRp3138
(dp3139
g62
(dp3140
sg71
g2882
sg64
(lp3141
g57
(g78
g59
NtRp3142
(dp3143
g62
(dp3144
g82
g83
ssg71
g3138
sg64
(lp3145
S'HTTP_USER_AGENT'
p3146
asbag57
(g78
g59
NtRp3147
(dp3148
g62
(dp3149
g89
g90
ssg71
g3138
sg64
(lp3150
S':'
asbag57
(g78
g59
NtRp3151
(dp3152
g62
(dp3153
sg71
g3138
sg64
(lp3154
g57
(g58
g59
NtRp3155
(dp3156
g62
(dp3157
g70
I3
ssg71
g3151
sg64
(lp3158
g1104
asbasbasbag57
(g73
g59
NtRp3159
(dp3160
g62
(dp3161
sg71
g2882
sg64
(lp3162
g57
(g78
g59
NtRp3163
(dp3164
g62
(dp3165
g82
g83
ssg71
g3159
sg64
(lp3166
S'PATH_INFO'
p3167
asbag57
(g78
g59
NtRp3168
(dp3169
g62
(dp3170
g89
g90
ssg71
g3159
sg64
(lp3171
S':'
asbag57
(g78
g59
NtRp3172
(dp3173
g62
(dp3174
sg71
g3159
sg64
(lp3175
g57
(g58
g59
NtRp3176
(dp3177
g62
(dp3178
g70
I3
ssg71
g3172
sg64
(lp3179
g1258
asbasbasbag57
(g73
g59
NtRp3180
(dp3181
g62
(dp3182
sg71
g2882
sg64
(lp3183
g57
(g78
g59
NtRp3184
(dp3185
g62
(dp3186
g82
g83
ssg71
g3180
sg64
(lp3187
S'QUERY_STRING'
p3188
asbag57
(g78
g59
NtRp3189
(dp3190
g62
(dp3191
g89
g90
ssg71
g3180
sg64
(lp3192
S':'
asbag57
(g78
g59
NtRp3193
(dp3194
g62
(dp3195
sg71
g3180
sg64
(lp3196
g57
(g58
g59
NtRp3197
(dp3198
g62
(dp3199
g70
I3
ssg71
g3193
sg64
(lp3200
g1280
asbasbasbag57
(g73
g59
NtRp3201
(dp3202
g62
(dp3203
sg71
g2882
sg64
(lp3204
g57
(g78
g59
NtRp3205
(dp3206
g62
(dp3207
g82
g83
ssg71
g3201
sg64
(lp3208
S'REMOTE_ADDR'
p3209
asbag57
(g78
g59
NtRp3210
(dp3211
g62
(dp3212
g89
g90
ssg71
g3201
sg64
(lp3213
S':'
asbag57
(g78
g59
NtRp3214
(dp3215
g62
(dp3216
sg71
g3201
sg64
(lp3217
g57
(g58
g59
NtRp3218
(dp3219
g62
(dp3220
g70
I3
ssg71
g3214
sg64
(lp3221
g212
asbasbasbag57
(g73
g59
NtRp3222
(dp3223
g62
(dp3224
sg71
g2882
sg64
(lp3225
g57
(g78
g59
NtRp3226
(dp3227
g62
(dp3228
g82
g83
ssg71
g3222
sg64
(lp3229
S'REMOTE_PORT'
p3230
asbag57
(g78
g59
NtRp3231
(dp3232
g62
(dp3233
g89
g90
ssg71
g3222
sg64
(lp3234
S':'
asbag57
(g78
g59
NtRp3235
(dp3236
g62
(dp3237
sg71
g3222
sg64
(lp3238
g57
(g58
g59
NtRp3239
(dp3240
g62
(dp3241
g70
I3
ssg71
g3235
sg64
(lp3242
g1323
asbasbasbag57
(g73
g59
NtRp3243
(dp3244
g62
(dp3245
sg71
g2882
sg64
(lp3246
g57
(g78
g59
NtRp3247
(dp3248
g62
(dp3249
g82
g83
ssg71
g3243
sg64
(lp3250
S'REQUEST_METHOD'
p3251
asbag57
(g78
g59
NtRp3252
(dp3253
g62
(dp3254
g89
g90
ssg71
g3243
sg64
(lp3255
S':'
asbag57
(g78
g59
NtRp3256
(dp3257
g62
(dp3258
sg71
g3243
sg64
(lp3259
g57
(g58
g59
NtRp3260
(dp3261
g62
(dp3262
g70
I3
ssg71
g3256
sg64
(lp3263
g1345
asbasbasbag57
(g73
g59
NtRp3264
(dp3265
g62
(dp3266
sg71
g2882
sg64
(lp3267
g57
(g78
g59
NtRp3268
(dp3269
g62
(dp3270
g82
g83
ssg71
g3264
sg64
(lp3271
S'REQUEST_URI'
p3272
asbag57
(g78
g59
NtRp3273
(dp3274
g62
(dp3275
g89
g90
ssg71
g3264
sg64
(lp3276
S':'
asbag57
(g78
g59
NtRp3277
(dp3278
g62
(dp3279
sg71
g3264
sg64
(lp3280
g57
(g58
g59
NtRp3281
(dp3282
g62
(dp3283
g70
I3
ssg71
g3277
sg64
(lp3284
g1367
asbasbasbag57
(g73
g59
NtRp3285
(dp3286
g62
(dp3287
sg71
g2882
sg64
(lp3288
g57
(g78
g59
NtRp3289
(dp3290
g62
(dp3291
g82
g83
ssg71
g3285
sg64
(lp3292
S'SCRIPT_NAME'
p3293
asbag57
(g78
g59
NtRp3294
(dp3295
g62
(dp3296
g89
g90
ssg71
g3285
sg64
(lp3297
S':'
asbag57
(g78
g59
NtRp3298
(dp3299
g62
(dp3300
sg71
g3285
sg64
(lp3301
g57
(g58
g59
NtRp3302
(dp3303
g62
(dp3304
g70
I3
ssg71
g3298
sg64
(lp3305
S''
asbasbasbag57
(g73
g59
NtRp3306
(dp3307
g62
(dp3308
sg71
g2882
sg64
(lp3309
g57
(g78
g59
NtRp3310
(dp3311
g62
(dp3312
g82
g83
ssg71
g3306
sg64
(lp3313
S'SERVER_NAME'
p3314
asbag57
(g78
g59
NtRp3315
(dp3316
g62
(dp3317
g89
g90
ssg71
g3306
sg64
(lp3318
S':'
asbag57
(g78
g59
NtRp3319
(dp3320
g62
(dp3321
sg71
g3306
sg64
(lp3322
g57
(g58
g59
NtRp3323
(dp3324
g62
(dp3325
g70
I3
ssg71
g3319
sg64
(lp3326
g1410
asbasbasbag57
(g73
g59
NtRp3327
(dp3328
g62
(dp3329
sg71
g2882
sg64
(lp3330
g57
(g78
g59
NtRp3331
(dp3332
g62
(dp3333
g82
g83
ssg71
g3327
sg64
(lp3334
S'SERVER_PORT'
p3335
asbag57
(g78
g59
NtRp3336
(dp3337
g62
(dp3338
g89
g90
ssg71
g3327
sg64
(lp3339
S':'
asbag57
(g78
g59
NtRp3340
(dp3341
g62
(dp3342
sg71
g3327
sg64
(lp3343
g57
(g58
g59
NtRp3344
(dp3345
g62
(dp3346
g70
I3
ssg71
g3340
sg64
(lp3347
g1432
asbasbasbag57
(g73
g59
NtRp3348
(dp3349
g62
(dp3350
sg71
g2882
sg64
(lp3351
g57
(g78
g59
NtRp3352
(dp3353
g62
(dp3354
g82
g83
ssg71
g3348
sg64
(lp3355
S'SERVER_PROTOCOL'
p3356
asbag57
(g78
g59
NtRp3357
(dp3358
g62
(dp3359
g89
g90
ssg71
g3348
sg64
(lp3360
S':'
asbag57
(g78
g59
NtRp3361
(dp3362
g62
(dp3363
sg71
g3348
sg64
(lp3364
g57
(g58
g59
NtRp3365
(dp3366
g62
(dp3367
g70
I3
ssg71
g3361
sg64
(lp3368
g1454
asbasbasbag57
(g73
g59
NtRp3369
(dp3370
g62
(dp3371
sg71
g2882
sg64
(lp3372
g57
(g78
g59
NtRp3373
(dp3374
g62
(dp3375
g82
g83
ssg71
g3369
sg64
(lp3376
S'SERVER_SOFTWARE'
p3377
asbag57
(g78
g59
NtRp3378
(dp3379
g62
(dp3380
g89
g90
ssg71
g3369
sg64
(lp3381
S':'
asbag57
(g78
g59
NtRp3382
(dp3383
g62
(dp3384
sg71
g3369
sg64
(lp3385
g57
(g58
g59
NtRp3386
(dp3387
g62
(dp3388
g70
I3
ssg71
g3382
sg64
(lp3389
g1476
asbasbasbag57
(g73
g59
NtRp3390
(dp3391
g62
(dp3392
sg71
g2882
sg64
(lp3393
g57
(g78
g59
NtRp3394
(dp3395
g62
(dp3396
g82
g83
ssg71
g3390
sg64
(lp3397
S'wsgi.errors'
p3398
asbag57
(g78
g59
NtRp3399
(dp3400
g62
(dp3401
g89
g90
ssg71
g3390
sg64
(lp3402
S':'
asbag57
(g78
g59
NtRp3403
(dp3404
g62
(dp3405
sg71
g3390
sg64
(lp3406
g57
(g58
g59
NtRp3407
(dp3408
g62
(dp3409
g70
I3
ssg71
g3403
sg64
(lp3410
S"<open file '<stderr>', mode 'w' at 0x7fa88a0fa270>"
p3411
asbasbasbag57
(g73
g59
NtRp3412
(dp3413
g62
(dp3414
sg71
g2882
sg64
(lp3415
g57
(g78
g59
NtRp3416
(dp3417
g62
(dp3418
g82
g83
ssg71
g3412
sg64
(lp3419
S'wsgi.file_wrapper'
p3420
asbag57
(g78
g59
NtRp3421
(dp3422
g62
(dp3423
g89
g90
ssg71
g3412
sg64
(lp3424
S':'
asbag57
(g78
g59
NtRp3425
(dp3426
g62
(dp3427
sg71
g3412
sg64
(lp3428
g57
(g58
g59
NtRp3429
(dp3430
g62
(dp3431
g70
I3
ssg71
g3425
sg64
(lp3432
S'<class wsgiref.util.FileWrapper at 0x2dd24c8>'
p3433
asbasbasbag57
(g73
g59
NtRp3434
(dp3435
g62
(dp3436
sg71
g2882
sg64
(lp3437
g57
(g78
g59
NtRp3438
(dp3439
g62
(dp3440
g82
g83
ssg71
g3434
sg64
(lp3441
S'wsgi.input'
p3442
asbag57
(g78
g59
NtRp3443
(dp3444
g62
(dp3445
g89
g90
ssg71
g3434
sg64
(lp3446
S':'
asbag57
(g78
g59
NtRp3447
(dp3448
g62
(dp3449
sg71
g3434
sg64
(lp3450
g57
(g58
g59
NtRp3451
(dp3452
g62
(dp3453
g70
I3
ssg71
g3447
sg64
(lp3454
S"<open file '<fdopen>', mode 'w+b' at 0x4614c90>"
p3455
asbasbasbag57
(g73
g59
NtRp3456
(dp3457
g62
(dp3458
sg71
g2882
sg64
(lp3459
g57
(g78
g59
NtRp3460
(dp3461
g62
(dp3462
g82
g83
ssg71
g3456
sg64
(lp3463
S'wsgi.multiprocess'
p3464
asbag57
(g78
g59
NtRp3465
(dp3466
g62
(dp3467
g89
g90
ssg71
g3456
sg64
(lp3468
S':'
asbag57
(g78
g59
NtRp3469
(dp3470
g62
(dp3471
sg71
g3456
sg64
(lp3472
g57
(g58
g59
NtRp3473
(dp3474
g62
(dp3475
g70
I3
ssg71
g3469
sg64
(lp3476
g100
asbasbasbag57
(g73
g59
NtRp3477
(dp3478
g62
(dp3479
sg71
g2882
sg64
(lp3480
g57
(g78
g59
NtRp3481
(dp3482
g62
(dp3483
g82
g83
ssg71
g3477
sg64
(lp3484
S'wsgi.multithread'
p3485
asbag57
(g78
g59
NtRp3486
(dp3487
g62
(dp3488
g89
g90
ssg71
g3477
sg64
(lp3489
S':'
asbag57
(g78
g59
NtRp3490
(dp3491
g62
(dp3492
sg71
g3477
sg64
(lp3493
g57
(g58
g59
NtRp3494
(dp3495
g62
(dp3496
g70
I3
ssg71
g3490
sg64
(lp3497
g1693
asbasbasbag57
(g73
g59
NtRp3498
(dp3499
g62
(dp3500
sg71
g2882
sg64
(lp3501
g57
(g78
g59
NtRp3502
(dp3503
g62
(dp3504
g82
g83
ssg71
g3498
sg64
(lp3505
S'wsgi.run_once'
p3506
asbag57
(g78
g59
NtRp3507
(dp3508
g62
(dp3509
g89
g90
ssg71
g3498
sg64
(lp3510
S':'
asbag57
(g78
g59
NtRp3511
(dp3512
g62
(dp3513
sg71
g3498
sg64
(lp3514
g57
(g58
g59
NtRp3515
(dp3516
g62
(dp3517
g70
I3
ssg71
g3511
sg64
(lp3518
g100
asbasbasbag57
(g73
g59
NtRp3519
(dp3520
g62
(dp3521
sg71
g2882
sg64
(lp3522
g57
(g78
g59
NtRp3523
(dp3524
g62
(dp3525
g82
g83
ssg71
g3519
sg64
(lp3526
S'wsgi.url_scheme'
p3527
asbag57
(g78
g59
NtRp3528
(dp3529
g62
(dp3530
g89
g90
ssg71
g3519
sg64
(lp3531
S':'
asbag57
(g78
g59
NtRp3532
(dp3533
g62
(dp3534
sg71
g3519
sg64
(lp3535
g57
(g58
g59
NtRp3536
(dp3537
g62
(dp3538
g70
I3
ssg71
g3532
sg64
(lp3539
g1736
asbasbasbag57
(g73
g59
NtRp3540
(dp3541
g62
(dp3542
sg71
g2882
sg64
(lp3543
g57
(g78
g59
NtRp3544
(dp3545
g62
(dp3546
g82
g83
ssg71
g3540
sg64
(lp3547
S'wsgi.version'
p3548
asbag57
(g78
g59
NtRp3549
(dp3550
g62
(dp3551
g89
g90
ssg71
g3540
sg64
(lp3552
S':'
asbag57
(g78
g59
NtRp3553
(dp3554
g62
(dp3555
sg71
g3540
sg64
(lp3556
g57
(g58
g59
NtRp3557
(dp3558
g62
(dp3559
g70
I3
ssg71
g3553
sg64
(lp3560
S'1'
asbasbasbasbasbasbasbasbasbasbasbasbasbsS'frames'
p3561
(lp3562
(dp3563
S'file'
p3564
S'/home/marco/projects/contabilidad/web2py/gluon/restricted.py'
p3565
sS'dump'
p3566
(dp3567
S'environment'
p3568
S"{'A': <class 'gluon.html.A'>, 'Auth': <class 'gluon.tools.Auth'>, 'B': <class 'gluon.html.B'>, 'BEAUTIFY': <class 'gluon.html.BEAUTIFY'>, 'BODY': <class 'gluon.html.BODY'>, 'BR': <class 'gluon.html.BR'>, 'BUTTON': <class 'gluon.html.BUTTON'>, 'CAT': <class 'gluon.html.CAT'>, 'CENTER': <class 'gluon.html.CENTER'>, 'CLEANUP': <class 'gluon.validators.CLEANUP'>, ...}"
p3569
sS'ccode'
p3570
S'<code object <module> at 0x38abd30, file "/home/...lications/sueldos/controllers/vistas.py", line 3>'
p3571
ssS'lnum'
p3572
I212
sS'lines'
p3573
(dp3574
I207
S'    try:'
p3575
sI208
S'        if isinstance(code, types.CodeType):'
p3576
sI209
S'            ccode = code'
p3577
sI210
S'        else:'
p3578
sI211
S'            ccode = compile2(code, layer)'
p3579
sI212
S'        exec ccode in environment'
p3580
sI213
S'    except HTTP:'
p3581
sI214
S'        raise'
p3582
sI215
S'    except RestrictedError:'
p3583
sI216
S'        # do not encapsulate (obfuscate) the original RestrictedError'
p3584
ssS'call'
p3585
S"(code='# -*- coding: utf-8 -*-\\n\\ndef personal():\\n    for...uevo)\\n\\nresponse._vars=response._caller(importes)\\n', environment={'A': <class 'gluon.html.A'>, 'Auth': <class 'gluon.tools.Auth'>, 'B': <class 'gluon.html.B'>, 'BEAUTIFY': <class 'gluon.html.BEAUTIFY'>, 'BODY': <class 'gluon.html.BODY'>, 'BR': <class 'gluon.html.BR'>, 'BUTTON': <class 'gluon.html.BUTTON'>, 'CAT': <class 'gluon.html.CAT'>, 'CENTER': <class 'gluon.html.CENTER'>, 'CLEANUP': <class 'gluon.validators.CLEANUP'>, ...}, layer='/home/marco/projects/contabilidad/web2py/applications/sueldos/controllers/vistas.py')"
p3586
sS'func'
p3587
S'restricted'
p3588
sa(dp3589
g3564
S'/home/marco/projects/contabilidad/web2py/applications/sueldos/controllers/vistas.py'
p3590
sg3566
(dp3591
sg3572
I33
sg3573
(dp3592
I22
S'    lista=db(db.valores.gremio==request.vars.id).select()'
p3593
sI23
S''
sI24
S"    nuevo=crud.create(db.valores, onaccept=reload('self.importes'))"
p3594
sI25
S''
sI26
S'    if nuevo.process().accepted:'
p3595
sI27
S"        session.flash='El importe ha sido agregado'"
p3596
sI28
S''
sI29
S'    elif nuevo.errors:'
p3597
sI30
S"        response.flash='El formulario tiene errores'"
p3598
sI31
S'    return dict(listado=lista, nuevo=nuevo)'
p3599
ssg3585
S'()'
p3600
sg3587
S'<module>'
p3601
sa(dp3602
g3564
S'/home/marco/projects/contabilidad/web2py/gluon/globals.py'
p3603
sg3566
(dp3604
S'self'
p3605
S'undefined'
p3606
sS'f'
S'<function importes>'
p3607
ssg3572
I193
sg3573
(dp3608
I192
S'        self._vars = None'
p3609
sI193
S'        self._caller = lambda f: f()'
p3610
sI194
S'        self._view_environment = None'
p3611
sI195
S'        self._custom_commit = None'
p3612
sI196
S'        self._custom_rollback = None'
p3613
sI197
S''
sI188
S'        self.menu = []             # used by the default view layout'
p3614
sI189
S'        self.files = []            # used by web2py_ajax.html'
p3615
sI190
S'        self.generic_patterns = []  # patterns to allow generic views'
p3616
sI191
S"        self.delimiters = ('{{', '}}')"
p3617
ssg3585
S'(f=<function importes>)'
p3618
sg3587
S'<lambda>'
p3619
sa(dp3620
g3564
S'/home/marco/projects/contabilidad/web2py/applications/sueldos/controllers/vistas.py'
p3621
sg3566
(dp3622
S'global crud'
p3623
S'<gluon.tools.Crud object>'
p3624
sS'onaccept'
p3625
g3606
sS'db.valores'
p3626
S'<Table valores (id,gremio,nombre,fecha,pago,timporte,valor)>'
p3627
sS'nuevo'
p3628
g3606
sS'global db'
p3629
S'<DAL uri="sqlite://storage.sqlite">'
p3630
sS'crud.create'
p3631
S'<bound method Crud.create of <gluon.tools.Crud object>>'
p3632
sS'builtinreload'
p3633
S'<built-in function reload>'
p3634
ssg3572
I24
sg3573
(dp3635
I19
S'    return dict(lista=lista)'
p3636
sI20
S''
sI21
S'def importes():'
p3637
sI22
S'    lista=db(db.valores.gremio==request.vars.id).select()'
p3638
sI23
S''
sI24
S"    nuevo=crud.create(db.valores, onaccept=reload('self.importes'))"
p3639
sI25
S''
sI26
S'    if nuevo.process().accepted:'
p3640
sI27
S"        session.flash='El importe ha sido agregado'"
p3641
sI28
S''
ssg3585
S'()'
p3642
sg3587
S'importes'
p3643
sasS'pyver'
p3644
S'Python 2.7.3: /usr/bin/python'
p3645
sS'session'
p3646
g57
(g58
g59
NtRp3647
(dp3648
g62
(dp3649
sg64
(lp3650
g57
(g66
g59
NtRp3651
(dp3652
g62
(dp3653
g70
I5
ssg71
Nsg64
(lp3654
g57
(g73
g59
NtRp3655
(dp3656
g62
(dp3657
sg71
g3651
sg64
(lp3658
g57
(g78
g59
NtRp3659
(dp3660
g62
(dp3661
g82
g83
ssg71
g3655
sg64
(lp3662
S'flash'
p3663
asbag57
(g78
g59
NtRp3664
(dp3665
g62
(dp3666
g89
g90
ssg71
g3655
sg64
(lp3667
S':'
asbag57
(g78
g59
NtRp3668
(dp3669
g62
(dp3670
sg71
g3655
sg64
(lp3671
g57
(g58
g59
NtRp3672
(dp3673
g62
(dp3674
g70
I5
ssg71
g3668
sg64
(lp3675
S'None'
p3676
asbasbasbasbasbsS'etype'
p3677
S"<type 'exceptions.TypeError'>"
p3678
sS'date'
p3679
S'Tue Jan 22 18:21:14 2013'
p3680
sS'response'
p3681
g57
(g58
g59
NtRp3682
(dp3683
g62
(dp3684
sg64
(lp3685
g57
(g66
g59
NtRp3686
(dp3687
g62
(dp3688
g70
I5
ssg71
Nsg64
(lp3689
g57
(g73
g59
NtRp3690
(dp3691
g62
(dp3692
sg71
g3686
sg64
(lp3693
g57
(g78
g59
NtRp3694
(dp3695
g62
(dp3696
g82
g83
ssg71
g3690
sg64
(lp3697
g155
asbag57
(g78
g59
NtRp3698
(dp3699
g62
(dp3700
g89
g90
ssg71
g3690
sg64
(lp3701
S':'
asbag57
(g78
g59
NtRp3702
(dp3703
g62
(dp3704
sg71
g3690
sg64
(lp3705
g57
(g58
g59
NtRp3706
(dp3707
g62
(dp3708
g70
I5
ssg71
g3702
sg64
(lp3709
S'<cStringIO.StringO object at 0x514c960>'
p3710
asbasbasbag57
(g73
g59
NtRp3711
(dp3712
g62
(dp3713
sg71
g3686
sg64
(lp3714
g57
(g78
g59
NtRp3715
(dp3716
g62
(dp3717
g82
g83
ssg71
g3711
sg64
(lp3718
g243
asbag57
(g78
g59
NtRp3719
(dp3720
g62
(dp3721
g89
g90
ssg71
g3711
sg64
(lp3722
S':'
asbag57
(g78
g59
NtRp3723
(dp3724
g62
(dp3725
sg71
g3711
sg64
(lp3726
g57
(g58
g59
NtRp3727
(dp3728
g62
(dp3729
g70
I5
ssg71
g3723
sg64
(lp3730
g57
(g66
g59
NtRp3731
(dp3732
g62
(dp3733
g70
I4
ssg71
Nsg64
(lp3734
g57
(g73
g59
NtRp3735
(dp3736
g62
(dp3737
sg71
g3731
sg64
(lp3738
g57
(g78
g59
NtRp3739
(dp3740
g62
(dp3741
g82
g83
ssg71
g3735
sg64
(lp3742
S'session_id_sueldos'
p3743
asbag57
(g78
g59
NtRp3744
(dp3745
g62
(dp3746
g89
g90
ssg71
g3735
sg64
(lp3747
S':'
asbag57
(g78
g59
NtRp3748
(dp3749
g62
(dp3750
sg71
g3735
sg64
(lp3751
g57
(g58
g59
NtRp3752
(dp3753
g62
(dp3754
g70
I4
ssg71
g3748
sg64
(lp3755
g475
ag57
(g66
g59
NtRp3756
(dp3757
g62
(dp3758
g70
I3
ssg71
Nsg64
(lp3759
g57
(g73
g59
NtRp3760
(dp3761
g62
(dp3762
sg71
g3756
sg64
(lp3763
g57
(g78
g59
NtRp3764
(dp3765
g62
(dp3766
g82
g83
ssg71
g3760
sg64
(lp3767
g294
asbag57
(g78
g59
NtRp3768
(dp3769
g62
(dp3770
g89
g90
ssg71
g3760
sg64
(lp3771
S':'
asbag57
(g78
g59
NtRp3772
(dp3773
g62
(dp3774
sg71
g3760
sg64
(lp3775
g57
(g58
g59
NtRp3776
(dp3777
g62
(dp3778
g70
I3
ssg71
g3772
sg64
(lp3779
S''
asbasbasbag57
(g73
g59
NtRp3780
(dp3781
g62
(dp3782
sg71
g3756
sg64
(lp3783
g57
(g78
g59
NtRp3784
(dp3785
g62
(dp3786
g82
g83
ssg71
g3780
sg64
(lp3787
g315
asbag57
(g78
g59
NtRp3788
(dp3789
g62
(dp3790
g89
g90
ssg71
g3780
sg64
(lp3791
S':'
asbag57
(g78
g59
NtRp3792
(dp3793
g62
(dp3794
sg71
g3780
sg64
(lp3795
g57
(g58
g59
NtRp3796
(dp3797
g62
(dp3798
g70
I3
ssg71
g3792
sg64
(lp3799
S''
asbasbasbag57
(g73
g59
NtRp3800
(dp3801
g62
(dp3802
sg71
g3756
sg64
(lp3803
g57
(g78
g59
NtRp3804
(dp3805
g62
(dp3806
g82
g83
ssg71
g3800
sg64
(lp3807
g336
asbag57
(g78
g59
NtRp3808
(dp3809
g62
(dp3810
g89
g90
ssg71
g3800
sg64
(lp3811
S':'
asbag57
(g78
g59
NtRp3812
(dp3813
g62
(dp3814
sg71
g3800
sg64
(lp3815
g57
(g58
g59
NtRp3816
(dp3817
g62
(dp3818
g70
I3
ssg71
g3812
sg64
(lp3819
S''
asbasbasbag57
(g73
g59
NtRp3820
(dp3821
g62
(dp3822
sg71
g3756
sg64
(lp3823
g57
(g78
g59
NtRp3824
(dp3825
g62
(dp3826
g82
g83
ssg71
g3820
sg64
(lp3827
g357
asbag57
(g78
g59
NtRp3828
(dp3829
g62
(dp3830
g89
g90
ssg71
g3820
sg64
(lp3831
S':'
asbag57
(g78
g59
NtRp3832
(dp3833
g62
(dp3834
sg71
g3820
sg64
(lp3835
g57
(g58
g59
NtRp3836
(dp3837
g62
(dp3838
g70
I3
ssg71
g3832
sg64
(lp3839
S''
asbasbasbag57
(g73
g59
NtRp3840
(dp3841
g62
(dp3842
sg71
g3756
sg64
(lp3843
g57
(g78
g59
NtRp3844
(dp3845
g62
(dp3846
g82
g83
ssg71
g3840
sg64
(lp3847
g378
asbag57
(g78
g59
NtRp3848
(dp3849
g62
(dp3850
g89
g90
ssg71
g3840
sg64
(lp3851
S':'
asbag57
(g78
g59
NtRp3852
(dp3853
g62
(dp3854
sg71
g3840
sg64
(lp3855
g57
(g58
g59
NtRp3856
(dp3857
g62
(dp3858
g70
I3
ssg71
g3852
sg64
(lp3859
S''
asbasbasbag57
(g73
g59
NtRp3860
(dp3861
g62
(dp3862
sg71
g3756
sg64
(lp3863
g57
(g78
g59
NtRp3864
(dp3865
g62
(dp3866
g82
g83
ssg71
g3860
sg64
(lp3867
g399
asbag57
(g78
g59
NtRp3868
(dp3869
g62
(dp3870
g89
g90
ssg71
g3860
sg64
(lp3871
S':'
asbag57
(g78
g59
NtRp3872
(dp3873
g62
(dp3874
sg71
g3860
sg64
(lp3875
g57
(g58
g59
NtRp3876
(dp3877
g62
(dp3878
g70
I3
ssg71
g3872
sg64
(lp3879
S'/'
asbasbasbag57
(g73
g59
NtRp3880
(dp3881
g62
(dp3882
sg71
g3756
sg64
(lp3883
g57
(g78
g59
NtRp3884
(dp3885
g62
(dp3886
g82
g83
ssg71
g3880
sg64
(lp3887
g420
asbag57
(g78
g59
NtRp3888
(dp3889
g62
(dp3890
g89
g90
ssg71
g3880
sg64
(lp3891
S':'
asbag57
(g78
g59
NtRp3892
(dp3893
g62
(dp3894
sg71
g3880
sg64
(lp3895
g57
(g58
g59
NtRp3896
(dp3897
g62
(dp3898
g70
I3
ssg71
g3892
sg64
(lp3899
S''
asbasbasbag57
(g73
g59
NtRp3900
(dp3901
g62
(dp3902
sg71
g3756
sg64
(lp3903
g57
(g78
g59
NtRp3904
(dp3905
g62
(dp3906
g82
g83
ssg71
g3900
sg64
(lp3907
g441
asbag57
(g78
g59
NtRp3908
(dp3909
g62
(dp3910
g89
g90
ssg71
g3900
sg64
(lp3911
S':'
asbag57
(g78
g59
NtRp3912
(dp3913
g62
(dp3914
sg71
g3900
sg64
(lp3915
g57
(g58
g59
NtRp3916
(dp3917
g62
(dp3918
g70
I3
ssg71
g3912
sg64
(lp3919
S''
asbasbasbasbasbasbasbasbasbasbasbag57
(g73
g59
NtRp3920
(dp3921
g62
(dp3922
sg71
g3686
sg64
(lp3923
g57
(g78
g59
NtRp3924
(dp3925
g62
(dp3926
g82
g83
ssg71
g3920
sg64
(lp3927
S'delimiters'
p3928
asbag57
(g78
g59
NtRp3929
(dp3930
g62
(dp3931
g89
g90
ssg71
g3920
sg64
(lp3932
S':'
asbag57
(g78
g59
NtRp3933
(dp3934
g62
(dp3935
sg71
g3920
sg64
(lp3936
g57
(g58
g59
NtRp3937
(dp3938
g62
(dp3939
g70
I5
ssg71
g3933
sg64
(lp3940
g57
(g66
g59
NtRp3941
(dp3942
g62
(dp3943
g70
I4
ssg71
Nsg64
(lp3944
g57
(g73
g59
NtRp3945
(dp3946
g62
(dp3947
sg71
g3941
sg64
(lp3948
g57
(g78
g59
NtRp3949
(dp3950
g62
(dp3951
sg71
g3945
sg64
(lp3952
g57
(g58
g59
NtRp3953
(dp3954
g62
(dp3955
g70
I4
ssg71
g3949
sg64
(lp3956
S'{{'
p3957
asbasbasbag57
(g73
g59
NtRp3958
(dp3959
g62
(dp3960
sg71
g3941
sg64
(lp3961
g57
(g78
g59
NtRp3962
(dp3963
g62
(dp3964
sg71
g3958
sg64
(lp3965
g57
(g58
g59
NtRp3966
(dp3967
g62
(dp3968
g70
I4
ssg71
g3962
sg64
(lp3969
S'}}'
p3970
asbasbasbasbasbasbasbag57
(g73
g59
NtRp3971
(dp3972
g62
(dp3973
sg71
g3686
sg64
(lp3974
g57
(g78
g59
NtRp3975
(dp3976
g62
(dp3977
g82
g83
ssg71
g3971
sg64
(lp3978
S'files'
p3979
asbag57
(g78
g59
NtRp3980
(dp3981
g62
(dp3982
g89
g90
ssg71
g3971
sg64
(lp3983
S':'
asbag57
(g78
g59
NtRp3984
(dp3985
g62
(dp3986
sg71
g3971
sg64
(lp3987
g57
(g58
g59
NtRp3988
(dp3989
g62
(dp3990
g70
I5
ssg71
g3984
sg64
(lp3991
g57
(g66
g59
NtRp3992
(dp3993
g62
(dp3994
g70
I4
ssg71
Nsg64
(lp3995
sbasbasbasbag57
(g73
g59
NtRp3996
(dp3997
g62
(dp3998
sg71
g3686
sg64
(lp3999
g57
(g78
g59
NtRp4000
(dp4001
g62
(dp4002
g82
g83
ssg71
g3996
sg64
(lp4003
S'flash'
p4004
asbag57
(g78
g59
NtRp4005
(dp4006
g62
(dp4007
g89
g90
ssg71
g3996
sg64
(lp4008
S':'
asbag57
(g78
g59
NtRp4009
(dp4010
g62
(dp4011
sg71
g3996
sg64
(lp4012
g57
(g58
g59
NtRp4013
(dp4014
g62
(dp4015
g70
I5
ssg71
g4009
sg64
(lp4016
S''
asbasbasbag57
(g73
g59
NtRp4017
(dp4018
g62
(dp4019
sg71
g3686
sg64
(lp4020
g57
(g78
g59
NtRp4021
(dp4022
g62
(dp4023
g82
g83
ssg71
g4017
sg64
(lp4024
S'generic_patterns'
p4025
asbag57
(g78
g59
NtRp4026
(dp4027
g62
(dp4028
g89
g90
ssg71
g4017
sg64
(lp4029
S':'
asbag57
(g78
g59
NtRp4030
(dp4031
g62
(dp4032
sg71
g4017
sg64
(lp4033
g57
(g58
g59
NtRp4034
(dp4035
g62
(dp4036
g70
I5
ssg71
g4030
sg64
(lp4037
g57
(g66
g59
NtRp4038
(dp4039
g62
(dp4040
g70
I4
ssg71
Nsg64
(lp4041
g57
(g73
g59
NtRp4042
(dp4043
g62
(dp4044
sg71
g4038
sg64
(lp4045
g57
(g78
g59
NtRp4046
(dp4047
g62
(dp4048
sg71
g4042
sg64
(lp4049
g57
(g58
g59
NtRp4050
(dp4051
g62
(dp4052
g70
I4
ssg71
g4046
sg64
(lp4053
S'*'
asbasbasbasbasbasbasbag57
(g73
g59
NtRp4054
(dp4055
g62
(dp4056
sg71
g3686
sg64
(lp4057
g57
(g78
g59
NtRp4058
(dp4059
g62
(dp4060
g82
g83
ssg71
g4054
sg64
(lp4061
S'google_analytics_id'
p4062
asbag57
(g78
g59
NtRp4063
(dp4064
g62
(dp4065
g89
g90
ssg71
g4054
sg64
(lp4066
S':'
asbag57
(g78
g59
NtRp4067
(dp4068
g62
(dp4069
sg71
g4054
sg64
(lp4070
g57
(g58
g59
NtRp4071
(dp4072
g62
(dp4073
g70
I5
ssg71
g4067
sg64
(lp4074
S'None'
p4075
asbasbasbag57
(g73
g59
NtRp4076
(dp4077
g62
(dp4078
sg71
g3686
sg64
(lp4079
g57
(g78
g59
NtRp4080
(dp4081
g62
(dp4082
g82
g83
ssg71
g4076
sg64
(lp4083
S'headers'
p4084
asbag57
(g78
g59
NtRp4085
(dp4086
g62
(dp4087
g89
g90
ssg71
g4076
sg64
(lp4088
S':'
asbag57
(g78
g59
NtRp4089
(dp4090
g62
(dp4091
sg71
g4076
sg64
(lp4092
g57
(g58
g59
NtRp4093
(dp4094
g62
(dp4095
g70
I5
ssg71
g4089
sg64
(lp4096
g57
(g66
g59
NtRp4097
(dp4098
g62
(dp4099
g70
I4
ssg71
Nsg64
(lp4100
g57
(g73
g59
NtRp4101
(dp4102
g62
(dp4103
sg71
g4097
sg64
(lp4104
g57
(g78
g59
NtRp4105
(dp4106
g62
(dp4107
g82
g83
ssg71
g4101
sg64
(lp4108
S'X-Powered-By'
p4109
asbag57
(g78
g59
NtRp4110
(dp4111
g62
(dp4112
g89
g90
ssg71
g4101
sg64
(lp4113
S':'
asbag57
(g78
g59
NtRp4114
(dp4115
g62
(dp4116
sg71
g4101
sg64
(lp4117
g57
(g58
g59
NtRp4118
(dp4119
g62
(dp4120
g70
I4
ssg71
g4114
sg64
(lp4121
S'web2py'
p4122
asbasbasbasbasbasbasbag57
(g73
g59
NtRp4123
(dp4124
g62
(dp4125
sg71
g3686
sg64
(lp4126
g57
(g78
g59
NtRp4127
(dp4128
g62
(dp4129
g82
g83
ssg71
g4123
sg64
(lp4130
S'menu'
p4131
asbag57
(g78
g59
NtRp4132
(dp4133
g62
(dp4134
g89
g90
ssg71
g4123
sg64
(lp4135
S':'
asbag57
(g78
g59
NtRp4136
(dp4137
g62
(dp4138
sg71
g4123
sg64
(lp4139
g57
(g58
g59
NtRp4140
(dp4141
g62
(dp4142
g70
I5
ssg71
g4136
sg64
(lp4143
g57
(g66
g59
NtRp4144
(dp4145
g62
(dp4146
g70
I4
ssg71
Nsg64
(lp4147
g57
(g73
g59
NtRp4148
(dp4149
g62
(dp4150
sg71
g4144
sg64
(lp4151
g57
(g78
g59
NtRp4152
(dp4153
g62
(dp4154
sg71
g4148
sg64
(lp4155
g57
(g58
g59
NtRp4156
(dp4157
g62
(dp4158
g70
I4
ssg71
g4152
sg64
(lp4159
g57
(g66
g59
NtRp4160
(dp4161
g62
(dp4162
g70
I3
ssg71
Nsg64
(lp4163
g57
(g73
g59
NtRp4164
(dp4165
g62
(dp4166
sg71
g4160
sg64
(lp4167
g57
(g78
g59
NtRp4168
(dp4169
g62
(dp4170
sg71
g4164
sg64
(lp4171
g57
(g58
g59
NtRp4172
(dp4173
g62
(dp4174
g70
I3
ssg71
g4168
sg64
(lp4175
cgluon.languages
lazyT_unpickle
p4176
(S's\x04\x00\x00\x00Home'
tRp4177
asbasbasbag57
(g73
g59
NtRp4178
(dp4179
g62
(dp4180
sg71
g4160
sg64
(lp4181
g57
(g78
g59
NtRp4182
(dp4183
g62
(dp4184
sg71
g4178
sg64
(lp4185
g57
(g58
g59
NtRp4186
(dp4187
g62
(dp4188
g70
I3
ssg71
g4182
sg64
(lp4189
g100
asbasbasbag57
(g73
g59
NtRp4190
(dp4191
g62
(dp4192
sg71
g4160
sg64
(lp4193
g57
(g78
g59
NtRp4194
(dp4195
g62
(dp4196
sg71
g4190
sg64
(lp4197
g57
(g58
g59
NtRp4198
(dp4199
g62
(dp4200
g70
I3
ssg71
g4194
sg64
(lp4201
S'/sueldos/default/index'
p4202
asbasbasbag57
(g73
g59
NtRp4203
(dp4204
g62
(dp4205
sg71
g4160
sg64
(lp4206
g57
(g78
g59
NtRp4207
(dp4208
g62
(dp4209
sg71
g4203
sg64
(lp4210
g57
(g58
g59
NtRp4211
(dp4212
g62
(dp4213
g70
I3
ssg71
g4207
sg64
(lp4214
g57
(g66
g59
NtRp4215
(dp4216
g62
(dp4217
g70
I2
ssg71
Nsg64
(lp4218
sbasbasbasbasbasbasbasbag57
(g73
g59
NtRp4219
(dp4220
g62
(dp4221
sg71
g4144
sg64
(lp4222
g57
(g78
g59
NtRp4223
(dp4224
g62
(dp4225
sg71
g4219
sg64
(lp4226
g57
(g58
g59
NtRp4227
(dp4228
g62
(dp4229
g70
I4
ssg71
g4223
sg64
(lp4230
g57
(g66
g59
NtRp4231
(dp4232
g62
(dp4233
g70
I3
ssg71
Nsg64
(lp4234
g57
(g73
g59
NtRp4235
(dp4236
g62
(dp4237
sg71
g4231
sg64
(lp4238
g57
(g78
g59
NtRp4239
(dp4240
g62
(dp4241
sg71
g4235
sg64
(lp4242
g57
(g58
g59
NtRp4243
(dp4244
g62
(dp4245
g70
I3
ssg71
g4239
sg64
(lp4246
g57
(cgluon.html
SPAN
p4247
g59
NtRp4248
(dp4249
g62
(dp4250
S'_class'
p4251
S'highlighted'
p4252
ssg71
Nsg64
(lp4253
g4122
asbasbasbasbag57
(g73
g59
NtRp4254
(dp4255
g62
(dp4256
sg71
g4231
sg64
(lp4257
g57
(g78
g59
NtRp4258
(dp4259
g62
(dp4260
sg71
g4254
sg64
(lp4261
g57
(g58
g59
NtRp4262
(dp4263
g62
(dp4264
g70
I3
ssg71
g4258
sg64
(lp4265
g100
asbasbasbag57
(g73
g59
NtRp4266
(dp4267
g62
(dp4268
sg71
g4231
sg64
(lp4269
g57
(g78
g59
NtRp4270
(dp4271
g62
(dp4272
sg71
g4266
sg64
(lp4273
g57
(g58
g59
NtRp4274
(dp4275
g62
(dp4276
g70
I3
ssg71
g4270
sg64
(lp4277
S'http://web2py.com'
p4278
asbasbasbag57
(g73
g59
NtRp4279
(dp4280
g62
(dp4281
sg71
g4231
sg64
(lp4282
g57
(g78
g59
NtRp4283
(dp4284
g62
(dp4285
sg71
g4279
sg64
(lp4286
g57
(g58
g59
NtRp4287
(dp4288
g62
(dp4289
g70
I3
ssg71
g4283
sg64
(lp4290
g57
(g66
g59
NtRp4291
(dp4292
g62
(dp4293
g70
I2
ssg71
Nsg64
(lp4294
g57
(g73
g59
NtRp4295
(dp4296
g62
(dp4297
sg71
g4291
sg64
(lp4298
g57
(g78
g59
NtRp4299
(dp4300
g62
(dp4301
sg71
g4295
sg64
(lp4302
g57
(g58
g59
NtRp4303
(dp4304
g62
(dp4305
g70
I2
ssg71
g4299
sg64
(lp4306
g57
(g66
g59
NtRp4307
(dp4308
g62
(dp4309
g70
I1
ssg71
Nsg64
(lp4310
g57
(g73
g59
NtRp4311
(dp4312
g62
(dp4313
sg71
g4307
sg64
(lp4314
g57
(g78
g59
NtRp4315
(dp4316
g62
(dp4317
sg71
g4311
sg64
(lp4318
g57
(g58
g59
NtRp4319
(dp4320
g62
(dp4321
g70
I1
ssg71
g4315
sg64
(lp4322
g4176
(S's\x08\x00\x00\x00My Sites'
tRp4323
asbasbasbag57
(g73
g59
NtRp4324
(dp4325
g62
(dp4326
sg71
g4307
sg64
(lp4327
g57
(g78
g59
NtRp4328
(dp4329
g62
(dp4330
sg71
g4324
sg64
(lp4331
g57
(g58
g59
NtRp4332
(dp4333
g62
(dp4334
g70
I1
ssg71
g4328
sg64
(lp4335
I00
asbasbasbag57
(g73
g59
NtRp4336
(dp4337
g62
(dp4338
sg71
g4307
sg64
(lp4339
g57
(g78
g59
NtRp4340
(dp4341
g62
(dp4342
sg71
g4336
sg64
(lp4343
g57
(g58
g59
NtRp4344
(dp4345
g62
(dp4346
g70
I1
ssg71
g4340
sg64
(lp4347
S'/admin/default/site'
p4348
asbasbasbasbasbasbasbag57
(g73
g59
NtRp4349
(dp4350
g62
(dp4351
sg71
g4291
sg64
(lp4352
g57
(g78
g59
NtRp4353
(dp4354
g62
(dp4355
sg71
g4349
sg64
(lp4356
g57
(g58
g59
NtRp4357
(dp4358
g62
(dp4359
g70
I2
ssg71
g4353
sg64
(lp4360
g57
(g66
g59
NtRp4361
(dp4362
g62
(dp4363
g70
I1
ssg71
Nsg64
(lp4364
g57
(g73
g59
NtRp4365
(dp4366
g62
(dp4367
sg71
g4361
sg64
(lp4368
g57
(g78
g59
NtRp4369
(dp4370
g62
(dp4371
sg71
g4365
sg64
(lp4372
g57
(g58
g59
NtRp4373
(dp4374
g62
(dp4375
g70
I1
ssg71
g4369
sg64
(lp4376
g4176
(S's\x08\x00\x00\x00This App'
tRp4377
asbasbasbag57
(g73
g59
NtRp4378
(dp4379
g62
(dp4380
sg71
g4361
sg64
(lp4381
g57
(g78
g59
NtRp4382
(dp4383
g62
(dp4384
sg71
g4378
sg64
(lp4385
g57
(g58
g59
NtRp4386
(dp4387
g62
(dp4388
g70
I1
ssg71
g4382
sg64
(lp4389
I00
asbasbasbag57
(g73
g59
NtRp4390
(dp4391
g62
(dp4392
sg71
g4361
sg64
(lp4393
g57
(g78
g59
NtRp4394
(dp4395
g62
(dp4396
sg71
g4390
sg64
(lp4397
g57
(g58
g59
NtRp4398
(dp4399
g62
(dp4400
g70
I1
ssg71
g4394
sg64
(lp4401
S'/admin/default/design/sueldos'
p4402
asbasbasbag57
(g73
g59
NtRp4403
(dp4404
g62
(dp4405
sg71
g4361
sg64
(lp4406
g57
(g78
g59
NtRp4407
(dp4408
g62
(dp4409
sg71
g4403
sg64
(lp4410
g57
(g58
g59
NtRp4411
(dp4412
g62
(dp4413
g70
I1
ssg71
g4407
sg64
(lp4414
(lp4415
(g4176
(S's\n\x00\x00\x00Controller'
tRp4416
I00
S'/admin/default/edit/sueldos/controllers/vistas.py'
tp4417
a(g4176
(S's\x04\x00\x00\x00View'
tRp4418
I00
S'/admin/default/edit/sueldos/views/vistas/importes.html'
tp4419
a(g4176
(S's\x06\x00\x00\x00Layout'
tRp4420
I00
S'/admin/default/edit/sueldos/views/layout.html'
tp4421
a(g4176
(S's\n\x00\x00\x00Stylesheet'
tRp4422
I00
S'/admin/default/edit/sueldos/static/css/web2py.css'
tp4423
a(g4176
(S's\x08\x00\x00\x00DB Model'
tRp4424
I00
S'/admin/default/edit/sueldos/models/db.py'
tp4425
a(g4176
(S's\n\x00\x00\x00Menu Model'
tRp4426
I00
S'/admin/default/edit/sueldos/models/menu.py'
tp4427
a(g4176
(S's\x08\x00\x00\x00Database'
tRp4428
I00
S'/sueldos/appadmin/index'
tp4429
a(g4176
(S's\x06\x00\x00\x00Errors'
tRp4430
I00
S'/admin/default/errors/sueldos'
tp4431
a(g4176
(S's\x05\x00\x00\x00About'
tRp4432
I00
S'/admin/default/about/sueldos'
tp4433
aasbasbasbasbasbasbasbag57
(g73
g59
NtRp4434
(dp4435
g62
(dp4436
sg71
g4291
sg64
(lp4437
g57
(g78
g59
NtRp4438
(dp4439
g62
(dp4440
sg71
g4434
sg64
(lp4441
g57
(g58
g59
NtRp4442
(dp4443
g62
(dp4444
g70
I2
ssg71
g4438
sg64
(lp4445
g57
(g66
g59
NtRp4446
(dp4447
g62
(dp4448
g70
I1
ssg71
Nsg64
(lp4449
g57
(g73
g59
NtRp4450
(dp4451
g62
(dp4452
sg71
g4446
sg64
(lp4453
g57
(g78
g59
NtRp4454
(dp4455
g62
(dp4456
sg71
g4450
sg64
(lp4457
g57
(g58
g59
NtRp4458
(dp4459
g62
(dp4460
g70
I1
ssg71
g4454
sg64
(lp4461
S'web2py.com'
p4462
asbasbasbag57
(g73
g59
NtRp4463
(dp4464
g62
(dp4465
sg71
g4446
sg64
(lp4466
g57
(g78
g59
NtRp4467
(dp4468
g62
(dp4469
sg71
g4463
sg64
(lp4470
g57
(g58
g59
NtRp4471
(dp4472
g62
(dp4473
g70
I1
ssg71
g4467
sg64
(lp4474
I00
asbasbasbag57
(g73
g59
NtRp4475
(dp4476
g62
(dp4477
sg71
g4446
sg64
(lp4478
g57
(g78
g59
NtRp4479
(dp4480
g62
(dp4481
sg71
g4475
sg64
(lp4482
g57
(g58
g59
NtRp4483
(dp4484
g62
(dp4485
g70
I1
ssg71
g4479
sg64
(lp4486
S'http://www.web2py.com'
p4487
asbasbasbag57
(g73
g59
NtRp4488
(dp4489
g62
(dp4490
sg71
g4446
sg64
(lp4491
g57
(g78
g59
NtRp4492
(dp4493
g62
(dp4494
sg71
g4488
sg64
(lp4495
g57
(g58
g59
NtRp4496
(dp4497
g62
(dp4498
g70
I1
ssg71
g4492
sg64
(lp4499
(lp4500
(g4176
(S's\x08\x00\x00\x00Download'
tRp4501
I00
S'http://www.web2py.com/examples/default/download'
p4502
tp4503
a(g4176
(S's\x07\x00\x00\x00Support'
tRp4504
I00
S'http://www.web2py.com/examples/default/support'
p4505
tp4506
a(g4176
(S's\x04\x00\x00\x00Demo'
tRp4507
I00
S'http://web2py.com/demo_admin'
p4508
tp4509
a(g4176
(S's\x0e\x00\x00\x00Quick Examples'
tRp4510
I00
S'http://web2py.com/examples/default/examples'
p4511
tp4512
a(g4176
(S's\x03\x00\x00\x00FAQ'
tRp4513
I00
S'http://web2py.com/AlterEgo'
p4514
tp4515
a(g4176
(S's\x06\x00\x00\x00Videos'
tRp4516
I00
S'http://www.web2py.com/examples/default/videos/'
p4517
tp4518
a(g4176
(S's\x11\x00\x00\x00Free Applications'
tRp4519
I00
S'http://web2py.com/appliances'
p4520
tp4521
a(g4176
(S's\x07\x00\x00\x00Plugins'
tRp4522
I00
S'http://web2py.com/plugins'
p4523
tp4524
a(g4176
(S's\x07\x00\x00\x00Layouts'
tRp4525
I00
S'http://web2py.com/layouts'
p4526
tp4527
a(g4176
(S's\x07\x00\x00\x00Recipes'
tRp4528
I00
S'http://web2pyslices.com/'
p4529
tp4530
a(g4176
(S's\x08\x00\x00\x00Semantic'
tRp4531
I00
S'http://web2py.com/semantic'
p4532
tp4533
aasbasbasbasbasbasbasbag57
(g73
g59
NtRp4534
(dp4535
g62
(dp4536
sg71
g4291
sg64
(lp4537
g57
(g78
g59
NtRp4538
(dp4539
g62
(dp4540
sg71
g4534
sg64
(lp4541
g57
(g58
g59
NtRp4542
(dp4543
g62
(dp4544
g70
I2
ssg71
g4538
sg64
(lp4545
g57
(g66
g59
NtRp4546
(dp4547
g62
(dp4548
g70
I1
ssg71
Nsg64
(lp4549
g57
(g73
g59
NtRp4550
(dp4551
g62
(dp4552
sg71
g4546
sg64
(lp4553
g57
(g78
g59
NtRp4554
(dp4555
g62
(dp4556
sg71
g4550
sg64
(lp4557
g57
(g58
g59
NtRp4558
(dp4559
g62
(dp4560
g70
I1
ssg71
g4554
sg64
(lp4561
g4176
(S's\r\x00\x00\x00Documentation'
tRp4562
asbasbasbag57
(g73
g59
NtRp4563
(dp4564
g62
(dp4565
sg71
g4546
sg64
(lp4566
g57
(g78
g59
NtRp4567
(dp4568
g62
(dp4569
sg71
g4563
sg64
(lp4570
g57
(g58
g59
NtRp4571
(dp4572
g62
(dp4573
g70
I1
ssg71
g4567
sg64
(lp4574
I00
asbasbasbag57
(g73
g59
NtRp4575
(dp4576
g62
(dp4577
sg71
g4546
sg64
(lp4578
g57
(g78
g59
NtRp4579
(dp4580
g62
(dp4581
sg71
g4575
sg64
(lp4582
g57
(g58
g59
NtRp4583
(dp4584
g62
(dp4585
g70
I1
ssg71
g4579
sg64
(lp4586
S'http://www.web2py.com/book'
p4587
asbasbasbag57
(g73
g59
NtRp4588
(dp4589
g62
(dp4590
sg71
g4546
sg64
(lp4591
g57
(g78
g59
NtRp4592
(dp4593
g62
(dp4594
sg71
g4588
sg64
(lp4595
g57
(g58
g59
NtRp4596
(dp4597
g62
(dp4598
g70
I1
ssg71
g4592
sg64
(lp4599
(lp4600
(g4176
(S's\x07\x00\x00\x00Preface'
tRp4601
I00
S'http://www.web2py.com/book/default/chapter/00'
p4602
tp4603
a(g4176
(S's\x0c\x00\x00\x00Introduction'
tRp4604
I00
S'http://www.web2py.com/book/default/chapter/01'
p4605
tp4606
a(g4176
(S's\x06\x00\x00\x00Python'
tRp4607
I00
S'http://www.web2py.com/book/default/chapter/02'
p4608
tp4609
a(g4176
(S's\x08\x00\x00\x00Overview'
tRp4610
I00
S'http://www.web2py.com/book/default/chapter/03'
p4611
tp4612
a(g4176
(S's\x08\x00\x00\x00The Core'
tRp4613
I00
S'http://www.web2py.com/book/default/chapter/04'
p4614
tp4615
a(g4176
(S's\t\x00\x00\x00The Views'
tRp4616
I00
S'http://www.web2py.com/book/default/chapter/05'
p4617
tp4618
a(g4176
(S's\x08\x00\x00\x00Database'
tRp4619
I00
S'http://www.web2py.com/book/default/chapter/06'
p4620
tp4621
a(g4176
(S's\x14\x00\x00\x00Forms and Validators'
tRp4622
I00
S'http://www.web2py.com/book/default/chapter/07'
p4623
tp4624
a(g4176
(S's\r\x00\x00\x00Email and SMS'
tRp4625
I00
S'http://www.web2py.com/book/default/chapter/08'
p4626
tp4627
a(g4176
(S's\x0e\x00\x00\x00Access Control'
tRp4628
I00
S'http://www.web2py.com/book/default/chapter/09'
p4629
tp4630
a(g4176
(S's\x08\x00\x00\x00Services'
tRp4631
I00
S'http://www.web2py.com/book/default/chapter/10'
p4632
tp4633
a(g4176
(S's\x0c\x00\x00\x00Ajax Recipes'
tRp4634
I00
S'http://www.web2py.com/book/default/chapter/11'
p4635
tp4636
a(g4176
(S's\x16\x00\x00\x00Components and Plugins'
tRp4637
I00
S'http://www.web2py.com/book/default/chapter/12'
p4638
tp4639
a(g4176
(S's\x12\x00\x00\x00Deployment Recipes'
tRp4640
I00
S'http://www.web2py.com/book/default/chapter/13'
p4641
tp4642
a(g4176
(S's\r\x00\x00\x00Other Recipes'
tRp4643
I00
S'http://www.web2py.com/book/default/chapter/14'
p4644
tp4645
a(g4176
(S's\r\x00\x00\x00Buy this book'
tRp4646
I00
S'http://stores.lulu.com/web2py'
p4647
tp4648
aasbasbasbasbasbasbasbag57
(g73
g59
NtRp4649
(dp4650
g62
(dp4651
sg71
g4291
sg64
(lp4652
g57
(g78
g59
NtRp4653
(dp4654
g62
(dp4655
sg71
g4649
sg64
(lp4656
g57
(g58
g59
NtRp4657
(dp4658
g62
(dp4659
g70
I2
ssg71
g4653
sg64
(lp4660
g57
(g66
g59
NtRp4661
(dp4662
g62
(dp4663
g70
I1
ssg71
Nsg64
(lp4664
g57
(g73
g59
NtRp4665
(dp4666
g62
(dp4667
sg71
g4661
sg64
(lp4668
g57
(g78
g59
NtRp4669
(dp4670
g62
(dp4671
sg71
g4665
sg64
(lp4672
g57
(g58
g59
NtRp4673
(dp4674
g62
(dp4675
g70
I1
ssg71
g4669
sg64
(lp4676
g4176
(S's\t\x00\x00\x00Community'
tRp4677
asbasbasbag57
(g73
g59
NtRp4678
(dp4679
g62
(dp4680
sg71
g4661
sg64
(lp4681
g57
(g78
g59
NtRp4682
(dp4683
g62
(dp4684
sg71
g4678
sg64
(lp4685
g57
(g58
g59
NtRp4686
(dp4687
g62
(dp4688
g70
I1
ssg71
g4682
sg64
(lp4689
I00
asbasbasbag57
(g73
g59
NtRp4690
(dp4691
g62
(dp4692
sg71
g4661
sg64
(lp4693
g57
(g78
g59
NtRp4694
(dp4695
g62
(dp4696
sg71
g4690
sg64
(lp4697
g57
(g58
g59
NtRp4698
(dp4699
g62
(dp4700
g70
I1
ssg71
g4694
sg64
(lp4701
Nasbasbasbag57
(g73
g59
NtRp4702
(dp4703
g62
(dp4704
sg71
g4661
sg64
(lp4705
g57
(g78
g59
NtRp4706
(dp4707
g62
(dp4708
sg71
g4702
sg64
(lp4709
g57
(g58
g59
NtRp4710
(dp4711
g62
(dp4712
g70
I1
ssg71
g4706
sg64
(lp4713
(lp4714
(g4176
(S's\x06\x00\x00\x00Groups'
tRp4715
I00
S'http://www.web2py.com/examples/default/usergroups'
p4716
tp4717
a(g4176
(S's\x07\x00\x00\x00Twitter'
tRp4718
I00
S'http://twitter.com/web2py'
p4719
tp4720
a(g4176
(S's\t\x00\x00\x00Live Chat'
tRp4721
I00
S'http://webchat.freenode.net/?channels=web2py'
p4722
tp4723
aasbasbasbasbasbasbasbag57
(g73
g59
NtRp4724
(dp4725
g62
(dp4726
sg71
g4291
sg64
(lp4727
g57
(g78
g59
NtRp4728
(dp4729
g62
(dp4730
sg71
g4724
sg64
(lp4731
g57
(g58
g59
NtRp4732
(dp4733
g62
(dp4734
g70
I2
ssg71
g4728
sg64
(lp4735
g57
(g66
g59
NtRp4736
(dp4737
g62
(dp4738
g70
I1
ssg71
Nsg64
(lp4739
g57
(g73
g59
NtRp4740
(dp4741
g62
(dp4742
sg71
g4736
sg64
(lp4743
g57
(g78
g59
NtRp4744
(dp4745
g62
(dp4746
sg71
g4740
sg64
(lp4747
g57
(g58
g59
NtRp4748
(dp4749
g62
(dp4750
g70
I1
ssg71
g4744
sg64
(lp4751
g4176
(S's\x07\x00\x00\x00Plugins'
tRp4752
asbasbasbag57
(g73
g59
NtRp4753
(dp4754
g62
(dp4755
sg71
g4736
sg64
(lp4756
g57
(g78
g59
NtRp4757
(dp4758
g62
(dp4759
sg71
g4753
sg64
(lp4760
g57
(g58
g59
NtRp4761
(dp4762
g62
(dp4763
g70
I1
ssg71
g4757
sg64
(lp4764
I00
asbasbasbag57
(g73
g59
NtRp4765
(dp4766
g62
(dp4767
sg71
g4736
sg64
(lp4768
g57
(g78
g59
NtRp4769
(dp4770
g62
(dp4771
sg71
g4765
sg64
(lp4772
g57
(g58
g59
NtRp4773
(dp4774
g62
(dp4775
g70
I1
ssg71
g4769
sg64
(lp4776
Nasbasbasbag57
(g73
g59
NtRp4777
(dp4778
g62
(dp4779
sg71
g4736
sg64
(lp4780
g57
(g78
g59
NtRp4781
(dp4782
g62
(dp4783
sg71
g4777
sg64
(lp4784
g57
(g58
g59
NtRp4785
(dp4786
g62
(dp4787
g70
I1
ssg71
g4781
sg64
(lp4788
(lp4789
(S'plugin_wiki'
p4790
I00
S'http://web2py.com/examples/default/download'
p4791
tp4792
a(g4176
(S's\r\x00\x00\x00Other Plugins'
tRp4793
I00
g4523
tp4794
a(g4176
(S's\x0e\x00\x00\x00Layout Plugins'
tRp4795
I00
g4526
tp4796
aasbasbasbasbasbasbasbasbasbasbasbasbasbasbasbasbasbasbasbag57
(g73
g59
NtRp4797
(dp4798
g62
(dp4799
sg71
g3686
sg64
(lp4800
g57
(g78
g59
NtRp4801
(dp4802
g62
(dp4803
g82
g83
ssg71
g4797
sg64
(lp4804
S'meta'
p4805
asbag57
(g78
g59
NtRp4806
(dp4807
g62
(dp4808
g89
g90
ssg71
g4797
sg64
(lp4809
S':'
asbag57
(g78
g59
NtRp4810
(dp4811
g62
(dp4812
sg71
g4797
sg64
(lp4813
g57
(g58
g59
NtRp4814
(dp4815
g62
(dp4816
g70
I5
ssg71
g4810
sg64
(lp4817
g57
(g66
g59
NtRp4818
(dp4819
g62
(dp4820
g70
I4
ssg71
Nsg64
(lp4821
g57
(g73
g59
NtRp4822
(dp4823
g62
(dp4824
sg71
g4818
sg64
(lp4825
g57
(g78
g59
NtRp4826
(dp4827
g62
(dp4828
g82
g83
ssg71
g4822
sg64
(lp4829
S'author'
p4830
asbag57
(g78
g59
NtRp4831
(dp4832
g62
(dp4833
g89
g90
ssg71
g4822
sg64
(lp4834
S':'
asbag57
(g78
g59
NtRp4835
(dp4836
g62
(dp4837
sg71
g4822
sg64
(lp4838
g57
(g58
g59
NtRp4839
(dp4840
g62
(dp4841
g70
I4
ssg71
g4835
sg64
(lp4842
S'Your Name <you@example.com>'
p4843
asbasbasbag57
(g73
g59
NtRp4844
(dp4845
g62
(dp4846
sg71
g4818
sg64
(lp4847
g57
(g78
g59
NtRp4848
(dp4849
g62
(dp4850
g82
g83
ssg71
g4844
sg64
(lp4851
S'description'
p4852
asbag57
(g78
g59
NtRp4853
(dp4854
g62
(dp4855
g89
g90
ssg71
g4844
sg64
(lp4856
S':'
asbag57
(g78
g59
NtRp4857
(dp4858
g62
(dp4859
sg71
g4844
sg64
(lp4860
g57
(g58
g59
NtRp4861
(dp4862
g62
(dp4863
g70
I4
ssg71
g4857
sg64
(lp4864
S'a cool new app'
p4865
asbasbasbag57
(g73
g59
NtRp4866
(dp4867
g62
(dp4868
sg71
g4818
sg64
(lp4869
g57
(g78
g59
NtRp4870
(dp4871
g62
(dp4872
g82
g83
ssg71
g4866
sg64
(lp4873
S'generator'
p4874
asbag57
(g78
g59
NtRp4875
(dp4876
g62
(dp4877
g89
g90
ssg71
g4866
sg64
(lp4878
S':'
asbag57
(g78
g59
NtRp4879
(dp4880
g62
(dp4881
sg71
g4866
sg64
(lp4882
g57
(g58
g59
NtRp4883
(dp4884
g62
(dp4885
g70
I4
ssg71
g4879
sg64
(lp4886
S'Web2py Web Framework'
p4887
asbasbasbag57
(g73
g59
NtRp4888
(dp4889
g62
(dp4890
sg71
g4818
sg64
(lp4891
g57
(g78
g59
NtRp4892
(dp4893
g62
(dp4894
g82
g83
ssg71
g4888
sg64
(lp4895
S'keywords'
p4896
asbag57
(g78
g59
NtRp4897
(dp4898
g62
(dp4899
g89
g90
ssg71
g4888
sg64
(lp4900
S':'
asbag57
(g78
g59
NtRp4901
(dp4902
g62
(dp4903
sg71
g4888
sg64
(lp4904
g57
(g58
g59
NtRp4905
(dp4906
g62
(dp4907
g70
I4
ssg71
g4901
sg64
(lp4908
S'web2py, python, framework'
p4909
asbasbasbasbasbasbasbag57
(g73
g59
NtRp4910
(dp4911
g62
(dp4912
sg71
g3686
sg64
(lp4913
g57
(g78
g59
NtRp4914
(dp4915
g62
(dp4916
g82
g83
ssg71
g4910
sg64
(lp4917
S'models_to_run'
p4918
asbag57
(g78
g59
NtRp4919
(dp4920
g62
(dp4921
g89
g90
ssg71
g4910
sg64
(lp4922
S':'
asbag57
(g78
g59
NtRp4923
(dp4924
g62
(dp4925
sg71
g4910
sg64
(lp4926
g57
(g58
g59
NtRp4927
(dp4928
g62
(dp4929
g70
I5
ssg71
g4923
sg64
(lp4930
g57
(g66
g59
NtRp4931
(dp4932
g62
(dp4933
g70
I4
ssg71
Nsg64
(lp4934
g57
(g73
g59
NtRp4935
(dp4936
g62
(dp4937
sg71
g4931
sg64
(lp4938
g57
(g78
g59
NtRp4939
(dp4940
g62
(dp4941
sg71
g4935
sg64
(lp4942
g57
(g58
g59
NtRp4943
(dp4944
g62
(dp4945
g70
I4
ssg71
g4939
sg64
(lp4946
S'^\\w+\\.py$'
p4947
asbasbasbag57
(g73
g59
NtRp4948
(dp4949
g62
(dp4950
sg71
g4931
sg64
(lp4951
g57
(g78
g59
NtRp4952
(dp4953
g62
(dp4954
sg71
g4948
sg64
(lp4955
g57
(g58
g59
NtRp4956
(dp4957
g62
(dp4958
g70
I4
ssg71
g4952
sg64
(lp4959
S'^vistas/\\w+\\.py$'
p4960
asbasbasbag57
(g73
g59
NtRp4961
(dp4962
g62
(dp4963
sg71
g4931
sg64
(lp4964
g57
(g78
g59
NtRp4965
(dp4966
g62
(dp4967
sg71
g4961
sg64
(lp4968
g57
(g58
g59
NtRp4969
(dp4970
g62
(dp4971
g70
I4
ssg71
g4965
sg64
(lp4972
S'^vistas/importes/\\w+\\.py$'
p4973
asbasbasbasbasbasbasbag57
(g73
g59
NtRp4974
(dp4975
g62
(dp4976
sg71
g3686
sg64
(lp4977
g57
(g78
g59
NtRp4978
(dp4979
g62
(dp4980
g82
g83
ssg71
g4974
sg64
(lp4981
S'postprocessing'
p4982
asbag57
(g78
g59
NtRp4983
(dp4984
g62
(dp4985
g89
g90
ssg71
g4974
sg64
(lp4986
S':'
asbag57
(g78
g59
NtRp4987
(dp4988
g62
(dp4989
sg71
g4974
sg64
(lp4990
g57
(g58
g59
NtRp4991
(dp4992
g62
(dp4993
g70
I5
ssg71
g4987
sg64
(lp4994
g57
(g66
g59
NtRp4995
(dp4996
g62
(dp4997
g70
I4
ssg71
Nsg64
(lp4998
sbasbasbasbag57
(g73
g59
NtRp4999
(dp5000
g62
(dp5001
sg71
g3686
sg64
(lp5002
g57
(g78
g59
NtRp5003
(dp5004
g62
(dp5005
g82
g83
ssg71
g4999
sg64
(lp5006
S'session_cookie_expires'
p5007
asbag57
(g78
g59
NtRp5008
(dp5009
g62
(dp5010
g89
g90
ssg71
g4999
sg64
(lp5011
S':'
asbag57
(g78
g59
NtRp5012
(dp5013
g62
(dp5014
sg71
g4999
sg64
(lp5015
g57
(g58
g59
NtRp5016
(dp5017
g62
(dp5018
g70
I5
ssg71
g5012
sg64
(lp5019
S'None'
p5020
asbasbasbag57
(g73
g59
NtRp5021
(dp5022
g62
(dp5023
sg71
g3686
sg64
(lp5024
g57
(g78
g59
NtRp5025
(dp5026
g62
(dp5027
g82
g83
ssg71
g5021
sg64
(lp5028
S'session_data_name'
p5029
asbag57
(g78
g59
NtRp5030
(dp5031
g62
(dp5032
g89
g90
ssg71
g5021
sg64
(lp5033
S':'
asbag57
(g78
g59
NtRp5034
(dp5035
g62
(dp5036
sg71
g5021
sg64
(lp5037
g57
(g58
g59
NtRp5038
(dp5039
g62
(dp5040
g70
I5
ssg71
g5034
sg64
(lp5041
S'session_data_sueldos'
p5042
asbasbasbag57
(g73
g59
NtRp5043
(dp5044
g62
(dp5045
sg71
g3686
sg64
(lp5046
g57
(g78
g59
NtRp5047
(dp5048
g62
(dp5049
g82
g83
ssg71
g5043
sg64
(lp5050
S'session_file'
p5051
asbag57
(g78
g59
NtRp5052
(dp5053
g62
(dp5054
g89
g90
ssg71
g5043
sg64
(lp5055
S':'
asbag57
(g78
g59
NtRp5056
(dp5057
g62
(dp5058
sg71
g5043
sg64
(lp5059
g57
(g58
g59
NtRp5060
(dp5061
g62
(dp5062
g70
I5
ssg71
g5056
sg64
(lp5063
S"<open file '/home/marco/projects/contabilidad/web2py/applications/sueldos/sessions/127.0.0.1-05ce4365-dc54-4394-bd3e-60890d75bc96', mode 'rb+' at 0x46144b0>"
p5064
asbasbasbag57
(g73
g59
NtRp5065
(dp5066
g62
(dp5067
sg71
g3686
sg64
(lp5068
g57
(g78
g59
NtRp5069
(dp5070
g62
(dp5071
g82
g83
ssg71
g5065
sg64
(lp5072
S'session_filename'
p5073
asbag57
(g78
g59
NtRp5074
(dp5075
g62
(dp5076
g89
g90
ssg71
g5065
sg64
(lp5077
S':'
asbag57
(g78
g59
NtRp5078
(dp5079
g62
(dp5080
sg71
g5065
sg64
(lp5081
g57
(g58
g59
NtRp5082
(dp5083
g62
(dp5084
g70
I5
ssg71
g5078
sg64
(lp5085
S'/home/marco/projects/contabilidad/web2py/applications/sueldos/sessions/127.0.0.1-05ce4365-dc54-4394-bd3e-60890d75bc96'
p5086
asbasbasbag57
(g73
g59
NtRp5087
(dp5088
g62
(dp5089
sg71
g3686
sg64
(lp5090
g57
(g78
g59
NtRp5091
(dp5092
g62
(dp5093
g82
g83
ssg71
g5087
sg64
(lp5094
S'session_id'
p5095
asbag57
(g78
g59
NtRp5096
(dp5097
g62
(dp5098
g89
g90
ssg71
g5087
sg64
(lp5099
S':'
asbag57
(g78
g59
NtRp5100
(dp5101
g62
(dp5102
sg71
g5087
sg64
(lp5103
g57
(g58
g59
NtRp5104
(dp5105
g62
(dp5106
g70
I5
ssg71
g5100
sg64
(lp5107
g475
asbasbasbag57
(g73
g59
NtRp5108
(dp5109
g62
(dp5110
sg71
g3686
sg64
(lp5111
g57
(g78
g59
NtRp5112
(dp5113
g62
(dp5114
g82
g83
ssg71
g5108
sg64
(lp5115
S'session_id_name'
p5116
asbag57
(g78
g59
NtRp5117
(dp5118
g62
(dp5119
g89
g90
ssg71
g5108
sg64
(lp5120
S':'
asbag57
(g78
g59
NtRp5121
(dp5122
g62
(dp5123
sg71
g5108
sg64
(lp5124
g57
(g58
g59
NtRp5125
(dp5126
g62
(dp5127
g70
I5
ssg71
g5121
sg64
(lp5128
g3743
asbasbasbag57
(g73
g59
NtRp5129
(dp5130
g62
(dp5131
sg71
g3686
sg64
(lp5132
g57
(g78
g59
NtRp5133
(dp5134
g62
(dp5135
g82
g83
ssg71
g5129
sg64
(lp5136
S'session_locked'
p5137
asbag57
(g78
g59
NtRp5138
(dp5139
g62
(dp5140
g89
g90
ssg71
g5129
sg64
(lp5141
S':'
asbag57
(g78
g59
NtRp5142
(dp5143
g62
(dp5144
sg71
g5129
sg64
(lp5145
g57
(g58
g59
NtRp5146
(dp5147
g62
(dp5148
g70
I5
ssg71
g5142
sg64
(lp5149
g1693
asbasbasbag57
(g73
g59
NtRp5150
(dp5151
g62
(dp5152
sg71
g3686
sg64
(lp5153
g57
(g78
g59
NtRp5154
(dp5155
g62
(dp5156
g82
g83
ssg71
g5150
sg64
(lp5157
S'session_new'
p5158
asbag57
(g78
g59
NtRp5159
(dp5160
g62
(dp5161
g89
g90
ssg71
g5150
sg64
(lp5162
S':'
asbag57
(g78
g59
NtRp5163
(dp5164
g62
(dp5165
sg71
g5150
sg64
(lp5166
g57
(g58
g59
NtRp5167
(dp5168
g62
(dp5169
g70
I5
ssg71
g5163
sg64
(lp5170
g100
asbasbasbag57
(g73
g59
NtRp5171
(dp5172
g62
(dp5173
sg71
g3686
sg64
(lp5174
g57
(g78
g59
NtRp5175
(dp5176
g62
(dp5177
g82
g83
ssg71
g5171
sg64
(lp5178
S'session_storage_type'
p5179
asbag57
(g78
g59
NtRp5180
(dp5181
g62
(dp5182
g89
g90
ssg71
g5171
sg64
(lp5183
S':'
asbag57
(g78
g59
NtRp5184
(dp5185
g62
(dp5186
sg71
g5171
sg64
(lp5187
g57
(g58
g59
NtRp5188
(dp5189
g62
(dp5190
g70
I5
ssg71
g5184
sg64
(lp5191
g3564
asbasbasbag57
(g73
g59
NtRp5192
(dp5193
g62
(dp5194
sg71
g3686
sg64
(lp5195
g57
(g78
g59
NtRp5196
(dp5197
g62
(dp5198
g82
g83
ssg71
g5192
sg64
(lp5199
S'status'
p5200
asbag57
(g78
g59
NtRp5201
(dp5202
g62
(dp5203
g89
g90
ssg71
g5192
sg64
(lp5204
S':'
asbag57
(g78
g59
NtRp5205
(dp5206
g62
(dp5207
sg71
g5192
sg64
(lp5208
g57
(g58
g59
NtRp5209
(dp5210
g62
(dp5211
g70
I5
ssg71
g5205
sg64
(lp5212
S'200'
p5213
asbasbasbag57
(g73
g59
NtRp5214
(dp5215
g62
(dp5216
sg71
g3686
sg64
(lp5217
g57
(g78
g59
NtRp5218
(dp5219
g62
(dp5220
g82
g83
ssg71
g5214
sg64
(lp5221
S'subtitle'
p5222
asbag57
(g78
g59
NtRp5223
(dp5224
g62
(dp5225
g89
g90
ssg71
g5214
sg64
(lp5226
S':'
asbag57
(g78
g59
NtRp5227
(dp5228
g62
(dp5229
sg71
g5214
sg64
(lp5230
g57
(g58
g59
NtRp5231
(dp5232
g62
(dp5233
g70
I5
ssg71
g5227
sg64
(lp5234
g4176
(S's,\x00\x00\x00Sistema de liquidacion de sueldos y jornales'
tRp5235
asbasbasbag57
(g73
g59
NtRp5236
(dp5237
g62
(dp5238
sg71
g3686
sg64
(lp5239
g57
(g78
g59
NtRp5240
(dp5241
g62
(dp5242
g82
g83
ssg71
g5236
sg64
(lp5243
S'title'
p5244
asbag57
(g78
g59
NtRp5245
(dp5246
g62
(dp5247
g89
g90
ssg71
g5236
sg64
(lp5248
S':'
asbag57
(g78
g59
NtRp5249
(dp5250
g62
(dp5251
sg71
g5236
sg64
(lp5252
g57
(g58
g59
NtRp5253
(dp5254
g62
(dp5255
g70
I5
ssg71
g5249
sg64
(lp5256
S'Sueldos'
p5257
asbasbasbag57
(g73
g59
NtRp5258
(dp5259
g62
(dp5260
sg71
g3686
sg64
(lp5261
g57
(g78
g59
NtRp5262
(dp5263
g62
(dp5264
g82
g83
ssg71
g5258
sg64
(lp5265
S'view'
p5266
asbag57
(g78
g59
NtRp5267
(dp5268
g62
(dp5269
g89
g90
ssg71
g5258
sg64
(lp5270
S':'
asbag57
(g78
g59
NtRp5271
(dp5272
g62
(dp5273
sg71
g5258
sg64
(lp5274
g57
(g58
g59
NtRp5275
(dp5276
g62
(dp5277
g70
I5
ssg71
g5271
sg64
(lp5278
S'vistas/importes.html'
p5279
asbasbasbasbasbsS'locals'
p5280
(dp5281
S'lista'
p5282
S'<Rows (7)>'
p5283
sssS'traceback'
p5284
S'Traceback (most recent call last):\n  File "/home/marco/projects/contabilidad/web2py/gluon/restricted.py", line 212, in restricted\n    exec ccode in environment\n  File "/home/marco/projects/contabilidad/web2py/applications/sueldos/controllers/vistas.py", line 33, in <module>\n  File "/home/marco/projects/contabilidad/web2py/gluon/globals.py", line 193, in <lambda>\n    self._caller = lambda f: f()\n  File "/home/marco/projects/contabilidad/web2py/applications/sueldos/controllers/vistas.py", line 24, in importes\n    nuevo=crud.create(db.valores, onaccept=reload(\'self.importes\'))\nTypeError: reload() argument must be module\n'
p5285
s.