(dp1
S'output'
p2
S'<class \'gluon.contrib.pymysql.err.ProgrammingError\'> (1146, u"Table \'sueldos.auth_user\' doesn\'t exist")'
p3
sS'layer'
p4
S'/home/marco/projects/contabilidad/web2py/applications/sueldos/controllers/default.py'
p5
sS'code'
p6
S'# -*- coding: utf-8 -*-\n# this file is released under public domain and you can use without limitations\n\n#########################################################################\n## This is a samples controller\n## - index is the default action of any application\n## - user is required for authentication and authorization\n## - download is for downloading files uploaded in the db (does streaming)\n## - call exposes all registered services (none by default)\n#########################################################################\n\n\ndef index():\n    """\n    example action using the internationalization operator T and flash\n    rendered by views/default/index.html or views/generic.html\n\n    if you need a simple wiki simple replace the two lines below with:\n    return auth.wiki()\n    """\n    response.flash = T("Welcome to web2py!")\n    return dict(message=T(\'Hello World\'))\n\n\ndef user():\n    """\n    exposes:\n    http://..../[app]/default/user/login\n    http://..../[app]/default/user/logout\n    http://..../[app]/default/user/register\n    http://..../[app]/default/user/profile\n    http://..../[app]/default/user/retrieve_password\n    http://..../[app]/default/user/change_password\n    use @auth.requires_login()\n        @auth.requires_membership(\'group name\')\n        @auth.requires_permission(\'read\',\'table name\',record_id)\n    to decorate functions that need access control\n    """\n    return dict(form=auth())\n\n\ndef download():\n    """\n    allows downloading of uploaded files\n    http://..../[app]/default/download/[filename]\n    """\n    return response.download(request, db)\n\n\ndef call():\n    """\n    exposes services. for example:\n    http://..../[app]/default/call/jsonrpc\n    decorate with @services.jsonrpc the functions to expose\n    supports xml, json, xmlrpc, jsonrpc, amfrpc, rss, csv\n    """\n    return service()\n\n\n@auth.requires_signature()\ndef data():\n    """\n    http://..../[app]/default/data/tables\n    http://..../[app]/default/data/create/[table]\n    http://..../[app]/default/data/read/[table]/[id]\n    http://..../[app]/default/data/update/[table]/[id]\n    http://..../[app]/default/data/delete/[table]/[id]\n    http://..../[app]/default/data/select/[table]\n    http://..../[app]/default/data/search/[table]\n    but URLs must be signed, i.e. linked with\n      A(\'table\',_href=URL(\'data/tables\',user_signature=True))\n    or with the signed load operator\n      LOAD(\'default\',\'data.load\',args=\'tables\',ajax=True,user_signature=True)\n    """\n    return dict(form=crud())\n\nresponse._vars=response._caller(user)\n'
p7
sS'snapshot'
p8
(dp9
sS'traceback'
p10
S'Traceback (most recent call last):\n  File "/home/marco/projects/contabilidad/web2py/gluon/restricted.py", line 212, in restricted\n    exec ccode in environment\n  File "/home/marco/projects/contabilidad/web2py/applications/sueldos/controllers/default.py", line 77, in <module>\n  File "/home/marco/projects/contabilidad/web2py/gluon/globals.py", line 193, in <lambda>\n    self._caller = lambda f: f()\n  File "/home/marco/projects/contabilidad/web2py/applications/sueldos/controllers/default.py", line 39, in user\n    return dict(form=auth())\n  File "/home/marco/projects/contabilidad/web2py/gluon/tools.py", line 1240, in __call__\n    return getattr(self, args[0])()\n  File "/home/marco/projects/contabilidad/web2py/gluon/tools.py", line 2248, in register\n    onvalidation=onvalidation, hideerror=self.settings.hideerror):\n  File "/home/marco/projects/contabilidad/web2py/gluon/sqlhtml.py", line 1286, in accepts\n    **kwargs\n  File "/home/marco/projects/contabilidad/web2py/gluon/html.py", line 1999, in accepts\n    status = self._traverse(status, hideerror)\n  File "/home/marco/projects/contabilidad/web2py/gluon/html.py", line 847, in _traverse\n    newstatus = c._traverse(status, hideerror) and newstatus\n  File "/home/marco/projects/contabilidad/web2py/gluon/html.py", line 847, in _traverse\n    newstatus = c._traverse(status, hideerror) and newstatus\n  File "/home/marco/projects/contabilidad/web2py/gluon/html.py", line 847, in _traverse\n    newstatus = c._traverse(status, hideerror) and newstatus\n  File "/home/marco/projects/contabilidad/web2py/gluon/html.py", line 847, in _traverse\n    newstatus = c._traverse(status, hideerror) and newstatus\n  File "/home/marco/projects/contabilidad/web2py/gluon/html.py", line 854, in _traverse\n    newstatus = self._validate()\n  File "/home/marco/projects/contabilidad/web2py/gluon/html.py", line 1750, in _validate\n    (value, errors) = validator(value)\n  File "/home/marco/projects/contabilidad/web2py/gluon/validators.py", line 589, in __call__\n    rows = self.dbset(field == value, ignore_common_filters=self.ignore_common_filters).select(limitby=(0, 1))\n  File "/home/marco/projects/contabilidad/web2py/gluon/dal.py", line 8880, in select\n    return adapter.select(self.query,fields,attributes)\n  File "/home/marco/projects/contabilidad/web2py/gluon/dal.py", line 1631, in select\n    return self._select_aux(sql,fields,attributes)\n  File "/home/marco/projects/contabilidad/web2py/gluon/dal.py", line 1596, in _select_aux\n    self.execute(sql)\n  File "/home/marco/projects/contabilidad/web2py/gluon/dal.py", line 1709, in execute\n    return self.log_execute(*a, **b)\n  File "/home/marco/projects/contabilidad/web2py/gluon/dal.py", line 1703, in log_execute\n    ret = self.cursor.execute(*a, **b)\n  File "/home/marco/projects/contabilidad/web2py/gluon/contrib/pymysql/cursors.py", line 117, in execute\n    self.errorhandler(self, exc, value)\n  File "/home/marco/projects/contabilidad/web2py/gluon/contrib/pymysql/connections.py", line 202, in defaulterrorhandler\n    raise errorclass, errorvalue\nProgrammingError: (1146, u"Table \'sueldos.auth_user\' doesn\'t exist")\n'
p11
s.