(dp1
S'output'
p2
S"<type 'exceptions.SyntaxError'> invalid syntax (default.py, line 24)"
p3
sS'layer'
p4
S'/home/marco/projects/contabilidad/web2py/applications/sueldos/controllers/default.py'
p5
sS'code'
p6
S'# -*- coding: utf-8 -*-\n# this file is released under public domain and you can use without limitations\n\n#########################################################################\n## This is a samples controller\n## - index is the default action of any application\n## - user is required for authentication and authorization\n## - download is for downloading files uploaded in the db (does streaming)\n## - call exposes all registered services (none by default)\n#########################################################################\n\n\ndef index():\n    """\n    example action using the internationalization operator T and flash\n    rendered by views/default/index.html or views/generic.html\n\n    if you need a simple wiki simple replace the two lines below with:\n    return auth.wiki()\n    """\n    response.flash = T("Sistema listo y funcional!")\n    return dict()       \n\ndef clientes()\n    return dict()\n\n\ndef user():\n    """\n    exposes:\n    http://..../[app]/default/user/login\n    http://..../[app]/default/user/logout\n    http://..../[app]/default/user/register\n    http://..../[app]/default/user/profile\n    http://..../[app]/default/user/retrieve_password\n    http://..../[app]/default/user/change_password\n    use @auth.requires_login()\n        @auth.requires_membership(\'group name\')\n        @auth.requires_permission(\'read\',\'table name\',record_id)\n    to decorate functions that need access control\n    """\n    return dict(form=auth())\n\n\ndef download():\n    """\n    allows downloading of uploaded files\n    http://..../[app]/default/download/[filename]\n    """\n    return response.download(request, db)\n\n\ndef call():\n    """\n    exposes services. for example:\n    http://..../[app]/default/call/jsonrpc\n    decorate with @services.jsonrpc the functions to expose\n    supports xml, json, xmlrpc, jsonrpc, amfrpc, rss, csv\n    """\n    return service()\n\n\n@auth.requires_signature()\ndef data():\n    """\n    http://..../[app]/default/data/tables\n    http://..../[app]/default/data/create/[table]\n    http://..../[app]/default/data/read/[table]/[id]\n    http://..../[app]/default/data/update/[table]/[id]\n    http://..../[app]/default/data/delete/[table]/[id]\n    http://..../[app]/default/data/select/[table]\n    http://..../[app]/default/data/search/[table]\n    but URLs must be signed, i.e. linked with\n      A(\'table\',_href=URL(\'data/tables\',user_signature=True))\n    or with the signed load operator\n      LOAD(\'default\',\'data.load\',args=\'tables\',ajax=True,user_signature=True)\n    """\n    return dict(form=crud())\n\nresponse._vars=response._caller(index)\n'
p7
sS'snapshot'
p8
(dp9
S'exception'
p10
(dp11
S'__getslice__'
p12
S"<method-wrapper '__getslice__' of exceptions.SyntaxError object>"
p13
sS'text'
p14
S"'def clientes()\\n'"
p15
sS'__str__'
p16
S"<method-wrapper '__str__' of exceptions.SyntaxError object>"
p17
sS'__reduce__'
p18
S'<built-in method __reduce__ of exceptions.SyntaxError object>'
p19
sS'__dict__'
p20
S'{}'
p21
sS'__sizeof__'
p22
S'<built-in method __sizeof__ of exceptions.SyntaxError object>'
p23
sS'__init__'
p24
S"<method-wrapper '__init__' of exceptions.SyntaxError object>"
p25
sS'__setattr__'
p26
S"<method-wrapper '__setattr__' of exceptions.SyntaxError object>"
p27
sS'__reduce_ex__'
p28
S'<built-in method __reduce_ex__ of exceptions.SyntaxError object>'
p29
sS'__new__'
p30
S'<built-in method __new__ of type object>'
p31
sS'__format__'
p32
S'<built-in method __format__ of exceptions.SyntaxError object>'
p33
sS'__class__'
p34
S"<type 'exceptions.SyntaxError'>"
p35
sS'filename'
p36
S"'/home/marco/projects/contabilidad/web2py/applications/sueldos/controllers/default.py'"
p37
sS'lineno'
p38
S'24'
p39
sS'msg'
p40
S"'invalid syntax'"
p41
sS'__doc__'
p42
S"'Invalid syntax.'"
p43
sS'__getitem__'
p44
S"<method-wrapper '__getitem__' of exceptions.SyntaxError object>"
p45
sS'__setstate__'
p46
S'<built-in method __setstate__ of exceptions.SyntaxError object>'
p47
sS'__getattribute__'
p48
S"<method-wrapper '__getattribute__' of exceptions.SyntaxError object>"
p49
sS'print_file_and_line'
p50
S'None'
p51
sS'args'
p52
S"('invalid syntax', ('/home/marco/projects/contabilidad/web2py/applications/sueldos/controllers/default.py', 24, 15, 'def clientes()\\n'))"
p53
sS'__subclasshook__'
p54
S'<built-in method __subclasshook__ of type object>'
p55
sS'offset'
p56
S'15'
p57
sS'__unicode__'
p58
S'<built-in method __unicode__ of exceptions.SyntaxError object>'
p59
sS'__delattr__'
p60
S"<method-wrapper '__delattr__' of exceptions.SyntaxError object>"
p61
sS'__repr__'
p62
S"<method-wrapper '__repr__' of exceptions.SyntaxError object>"
p63
sS'__hash__'
p64
S"<method-wrapper '__hash__' of exceptions.SyntaxError object>"
p65
ssS'evalue'
p66
S'invalid syntax (default.py, line 24)'
p67
sS'request'
p68
ccopy_reg
_reconstructor
p69
(cgluon.html
BEAUTIFY
p70
c__builtin__
object
p71
NtRp72
(dp73
S'attributes'
p74
(dp75
sS'components'
p76
(lp77
g69
(cgluon.html
TABLE
p78
g71
NtRp79
(dp80
g74
(dp81
S'level'
p82
I5
ssS'parent'
p83
Nsg76
(lp84
g69
(cgluon.html
TR
p85
g71
NtRp86
(dp87
g74
(dp88
sg83
g79
sg76
(lp89
g69
(cgluon.html
TD
p90
g71
NtRp91
(dp92
g74
(dp93
S'_style'
p94
S'font-weight:bold;vertical-align:top'
p95
ssg83
g86
sg76
(lp96
S'ajax'
p97
asbag69
(g90
g71
NtRp98
(dp99
g74
(dp100
S'_valign'
p101
S'top'
p102
ssg83
g86
sg76
(lp103
S':'
asbag69
(g90
g71
NtRp104
(dp105
g74
(dp106
sg83
g86
sg76
(lp107
g69
(g70
g71
NtRp108
(dp109
g74
(dp110
g82
I5
ssg83
g104
sg76
(lp111
S'False'
p112
asbasbasbag69
(g85
g71
NtRp113
(dp114
g74
(dp115
sg83
g79
sg76
(lp116
g69
(g90
g71
NtRp117
(dp118
g74
(dp119
g94
g95
ssg83
g113
sg76
(lp120
S'application'
p121
asbag69
(g90
g71
NtRp122
(dp123
g74
(dp124
g101
g102
ssg83
g113
sg76
(lp125
S':'
asbag69
(g90
g71
NtRp126
(dp127
g74
(dp128
sg83
g113
sg76
(lp129
g69
(g70
g71
NtRp130
(dp131
g74
(dp132
g82
I5
ssg83
g126
sg76
(lp133
S'sueldos'
p134
asbasbasbag69
(g85
g71
NtRp135
(dp136
g74
(dp137
sg83
g79
sg76
(lp138
g69
(g90
g71
NtRp139
(dp140
g74
(dp141
g94
g95
ssg83
g135
sg76
(lp142
g52
asbag69
(g90
g71
NtRp143
(dp144
g74
(dp145
g101
g102
ssg83
g135
sg76
(lp146
S':'
asbag69
(g90
g71
NtRp147
(dp148
g74
(dp149
sg83
g135
sg76
(lp150
g69
(g70
g71
NtRp151
(dp152
g74
(dp153
g82
I5
ssg83
g147
sg76
(lp154
g69
(g78
g71
NtRp155
(dp156
g74
(dp157
g82
I4
ssg83
Nsg76
(lp158
sbasbasbasbag69
(g85
g71
NtRp159
(dp160
g74
(dp161
sg83
g79
sg76
(lp162
g69
(g90
g71
NtRp163
(dp164
g74
(dp165
g94
g95
ssg83
g159
sg76
(lp166
S'body'
p167
asbag69
(g90
g71
NtRp168
(dp169
g74
(dp170
g101
g102
ssg83
g159
sg76
(lp171
S':'
asbag69
(g90
g71
NtRp172
(dp173
g74
(dp174
sg83
g159
sg76
(lp175
g69
(g70
g71
NtRp176
(dp177
g74
(dp178
g82
I5
ssg83
g172
sg76
(lp179
S'<cStringIO.StringO object at 0x2085d18>'
p180
asbasbasbag69
(g85
g71
NtRp181
(dp182
g74
(dp183
sg83
g79
sg76
(lp184
g69
(g90
g71
NtRp185
(dp186
g74
(dp187
g94
g95
ssg83
g181
sg76
(lp188
S'cid'
p189
asbag69
(g90
g71
NtRp190
(dp191
g74
(dp192
g101
g102
ssg83
g181
sg76
(lp193
S':'
asbag69
(g90
g71
NtRp194
(dp195
g74
(dp196
sg83
g181
sg76
(lp197
g69
(g70
g71
NtRp198
(dp199
g74
(dp200
g82
I5
ssg83
g194
sg76
(lp201
S'None'
p202
asbasbasbag69
(g85
g71
NtRp203
(dp204
g74
(dp205
sg83
g79
sg76
(lp206
g69
(g90
g71
NtRp207
(dp208
g74
(dp209
g94
g95
ssg83
g203
sg76
(lp210
S'client'
p211
asbag69
(g90
g71
NtRp212
(dp213
g74
(dp214
g101
g102
ssg83
g203
sg76
(lp215
S':'
asbag69
(g90
g71
NtRp216
(dp217
g74
(dp218
sg83
g203
sg76
(lp219
g69
(g70
g71
NtRp220
(dp221
g74
(dp222
g82
I5
ssg83
g216
sg76
(lp223
S'127.0.0.1'
p224
asbasbasbag69
(g85
g71
NtRp225
(dp226
g74
(dp227
sg83
g79
sg76
(lp228
g69
(g90
g71
NtRp229
(dp230
g74
(dp231
g94
g95
ssg83
g225
sg76
(lp232
S'controller'
p233
asbag69
(g90
g71
NtRp234
(dp235
g74
(dp236
g101
g102
ssg83
g225
sg76
(lp237
S':'
asbag69
(g90
g71
NtRp238
(dp239
g74
(dp240
sg83
g225
sg76
(lp241
g69
(g70
g71
NtRp242
(dp243
g74
(dp244
g82
I5
ssg83
g238
sg76
(lp245
S'default'
p246
asbasbasbag69
(g85
g71
NtRp247
(dp248
g74
(dp249
sg83
g79
sg76
(lp250
g69
(g90
g71
NtRp251
(dp252
g74
(dp253
g94
g95
ssg83
g247
sg76
(lp254
S'cookies'
p255
asbag69
(g90
g71
NtRp256
(dp257
g74
(dp258
g101
g102
ssg83
g247
sg76
(lp259
S':'
asbag69
(g90
g71
NtRp260
(dp261
g74
(dp262
sg83
g247
sg76
(lp263
g69
(g70
g71
NtRp264
(dp265
g74
(dp266
g82
I5
ssg83
g260
sg76
(lp267
g69
(g78
g71
NtRp268
(dp269
g74
(dp270
g82
I4
ssg83
Nsg76
(lp271
g69
(g85
g71
NtRp272
(dp273
g74
(dp274
sg83
g268
sg76
(lp275
g69
(g90
g71
NtRp276
(dp277
g74
(dp278
g94
g95
ssg83
g272
sg76
(lp279
S'session_id_admin'
p280
asbag69
(g90
g71
NtRp281
(dp282
g74
(dp283
g101
g102
ssg83
g272
sg76
(lp284
S':'
asbag69
(g90
g71
NtRp285
(dp286
g74
(dp287
sg83
g272
sg76
(lp288
g69
(g70
g71
NtRp289
(dp290
g74
(dp291
g82
I4
ssg83
g285
sg76
(lp292
S'127.0.0.1-24af4e14-6d96-45d7-9010-207206732bb5'
p293
ag69
(g78
g71
NtRp294
(dp295
g74
(dp296
g82
I3
ssg83
Nsg76
(lp297
g69
(g85
g71
NtRp298
(dp299
g74
(dp300
sg83
g294
sg76
(lp301
g69
(g90
g71
NtRp302
(dp303
g74
(dp304
g94
g95
ssg83
g298
sg76
(lp305
S'comment'
p306
asbag69
(g90
g71
NtRp307
(dp308
g74
(dp309
g101
g102
ssg83
g298
sg76
(lp310
S':'
asbag69
(g90
g71
NtRp311
(dp312
g74
(dp313
sg83
g298
sg76
(lp314
g69
(g70
g71
NtRp315
(dp316
g74
(dp317
g82
I3
ssg83
g311
sg76
(lp318
S''
asbasbasbag69
(g85
g71
NtRp319
(dp320
g74
(dp321
sg83
g294
sg76
(lp322
g69
(g90
g71
NtRp323
(dp324
g74
(dp325
g94
g95
ssg83
g319
sg76
(lp326
S'domain'
p327
asbag69
(g90
g71
NtRp328
(dp329
g74
(dp330
g101
g102
ssg83
g319
sg76
(lp331
S':'
asbag69
(g90
g71
NtRp332
(dp333
g74
(dp334
sg83
g319
sg76
(lp335
g69
(g70
g71
NtRp336
(dp337
g74
(dp338
g82
I3
ssg83
g332
sg76
(lp339
S''
asbasbasbag69
(g85
g71
NtRp340
(dp341
g74
(dp342
sg83
g294
sg76
(lp343
g69
(g90
g71
NtRp344
(dp345
g74
(dp346
g94
g95
ssg83
g340
sg76
(lp347
S'expires'
p348
asbag69
(g90
g71
NtRp349
(dp350
g74
(dp351
g101
g102
ssg83
g340
sg76
(lp352
S':'
asbag69
(g90
g71
NtRp353
(dp354
g74
(dp355
sg83
g340
sg76
(lp356
g69
(g70
g71
NtRp357
(dp358
g74
(dp359
g82
I3
ssg83
g353
sg76
(lp360
S''
asbasbasbag69
(g85
g71
NtRp361
(dp362
g74
(dp363
sg83
g294
sg76
(lp364
g69
(g90
g71
NtRp365
(dp366
g74
(dp367
g94
g95
ssg83
g361
sg76
(lp368
S'httponly'
p369
asbag69
(g90
g71
NtRp370
(dp371
g74
(dp372
g101
g102
ssg83
g361
sg76
(lp373
S':'
asbag69
(g90
g71
NtRp374
(dp375
g74
(dp376
sg83
g361
sg76
(lp377
g69
(g70
g71
NtRp378
(dp379
g74
(dp380
g82
I3
ssg83
g374
sg76
(lp381
S''
asbasbasbag69
(g85
g71
NtRp382
(dp383
g74
(dp384
sg83
g294
sg76
(lp385
g69
(g90
g71
NtRp386
(dp387
g74
(dp388
g94
g95
ssg83
g382
sg76
(lp389
S'max-age'
p390
asbag69
(g90
g71
NtRp391
(dp392
g74
(dp393
g101
g102
ssg83
g382
sg76
(lp394
S':'
asbag69
(g90
g71
NtRp395
(dp396
g74
(dp397
sg83
g382
sg76
(lp398
g69
(g70
g71
NtRp399
(dp400
g74
(dp401
g82
I3
ssg83
g395
sg76
(lp402
S''
asbasbasbag69
(g85
g71
NtRp403
(dp404
g74
(dp405
sg83
g294
sg76
(lp406
g69
(g90
g71
NtRp407
(dp408
g74
(dp409
g94
g95
ssg83
g403
sg76
(lp410
S'path'
p411
asbag69
(g90
g71
NtRp412
(dp413
g74
(dp414
g101
g102
ssg83
g403
sg76
(lp415
S':'
asbag69
(g90
g71
NtRp416
(dp417
g74
(dp418
sg83
g403
sg76
(lp419
g69
(g70
g71
NtRp420
(dp421
g74
(dp422
g82
I3
ssg83
g416
sg76
(lp423
S''
asbasbasbag69
(g85
g71
NtRp424
(dp425
g74
(dp426
sg83
g294
sg76
(lp427
g69
(g90
g71
NtRp428
(dp429
g74
(dp430
g94
g95
ssg83
g424
sg76
(lp431
S'secure'
p432
asbag69
(g90
g71
NtRp433
(dp434
g74
(dp435
g101
g102
ssg83
g424
sg76
(lp436
S':'
asbag69
(g90
g71
NtRp437
(dp438
g74
(dp439
sg83
g424
sg76
(lp440
g69
(g70
g71
NtRp441
(dp442
g74
(dp443
g82
I3
ssg83
g437
sg76
(lp444
S''
asbasbasbag69
(g85
g71
NtRp445
(dp446
g74
(dp447
sg83
g294
sg76
(lp448
g69
(g90
g71
NtRp449
(dp450
g74
(dp451
g94
g95
ssg83
g445
sg76
(lp452
S'version'
p453
asbag69
(g90
g71
NtRp454
(dp455
g74
(dp456
g101
g102
ssg83
g445
sg76
(lp457
S':'
asbag69
(g90
g71
NtRp458
(dp459
g74
(dp460
sg83
g445
sg76
(lp461
g69
(g70
g71
NtRp462
(dp463
g74
(dp464
g82
I3
ssg83
g458
sg76
(lp465
S''
asbasbasbasbasbasbasbag69
(g85
g71
NtRp466
(dp467
g74
(dp468
sg83
g268
sg76
(lp469
g69
(g90
g71
NtRp470
(dp471
g74
(dp472
g94
g95
ssg83
g466
sg76
(lp473
S'session_id_sueldos'
p474
asbag69
(g90
g71
NtRp475
(dp476
g74
(dp477
g101
g102
ssg83
g466
sg76
(lp478
S':'
asbag69
(g90
g71
NtRp479
(dp480
g74
(dp481
sg83
g466
sg76
(lp482
g69
(g70
g71
NtRp483
(dp484
g74
(dp485
g82
I4
ssg83
g479
sg76
(lp486
S'127.0.0.1-b5ab5c43-cb03-494e-8551-1bb3b74c2938'
p487
ag69
(g78
g71
NtRp488
(dp489
g74
(dp490
g82
I3
ssg83
Nsg76
(lp491
g69
(g85
g71
NtRp492
(dp493
g74
(dp494
sg83
g488
sg76
(lp495
g69
(g90
g71
NtRp496
(dp497
g74
(dp498
g94
g95
ssg83
g492
sg76
(lp499
g306
asbag69
(g90
g71
NtRp500
(dp501
g74
(dp502
g101
g102
ssg83
g492
sg76
(lp503
S':'
asbag69
(g90
g71
NtRp504
(dp505
g74
(dp506
sg83
g492
sg76
(lp507
g69
(g70
g71
NtRp508
(dp509
g74
(dp510
g82
I3
ssg83
g504
sg76
(lp511
S''
asbasbasbag69
(g85
g71
NtRp512
(dp513
g74
(dp514
sg83
g488
sg76
(lp515
g69
(g90
g71
NtRp516
(dp517
g74
(dp518
g94
g95
ssg83
g512
sg76
(lp519
g327
asbag69
(g90
g71
NtRp520
(dp521
g74
(dp522
g101
g102
ssg83
g512
sg76
(lp523
S':'
asbag69
(g90
g71
NtRp524
(dp525
g74
(dp526
sg83
g512
sg76
(lp527
g69
(g70
g71
NtRp528
(dp529
g74
(dp530
g82
I3
ssg83
g524
sg76
(lp531
S''
asbasbasbag69
(g85
g71
NtRp532
(dp533
g74
(dp534
sg83
g488
sg76
(lp535
g69
(g90
g71
NtRp536
(dp537
g74
(dp538
g94
g95
ssg83
g532
sg76
(lp539
g348
asbag69
(g90
g71
NtRp540
(dp541
g74
(dp542
g101
g102
ssg83
g532
sg76
(lp543
S':'
asbag69
(g90
g71
NtRp544
(dp545
g74
(dp546
sg83
g532
sg76
(lp547
g69
(g70
g71
NtRp548
(dp549
g74
(dp550
g82
I3
ssg83
g544
sg76
(lp551
S''
asbasbasbag69
(g85
g71
NtRp552
(dp553
g74
(dp554
sg83
g488
sg76
(lp555
g69
(g90
g71
NtRp556
(dp557
g74
(dp558
g94
g95
ssg83
g552
sg76
(lp559
g369
asbag69
(g90
g71
NtRp560
(dp561
g74
(dp562
g101
g102
ssg83
g552
sg76
(lp563
S':'
asbag69
(g90
g71
NtRp564
(dp565
g74
(dp566
sg83
g552
sg76
(lp567
g69
(g70
g71
NtRp568
(dp569
g74
(dp570
g82
I3
ssg83
g564
sg76
(lp571
S''
asbasbasbag69
(g85
g71
NtRp572
(dp573
g74
(dp574
sg83
g488
sg76
(lp575
g69
(g90
g71
NtRp576
(dp577
g74
(dp578
g94
g95
ssg83
g572
sg76
(lp579
g390
asbag69
(g90
g71
NtRp580
(dp581
g74
(dp582
g101
g102
ssg83
g572
sg76
(lp583
S':'
asbag69
(g90
g71
NtRp584
(dp585
g74
(dp586
sg83
g572
sg76
(lp587
g69
(g70
g71
NtRp588
(dp589
g74
(dp590
g82
I3
ssg83
g584
sg76
(lp591
S''
asbasbasbag69
(g85
g71
NtRp592
(dp593
g74
(dp594
sg83
g488
sg76
(lp595
g69
(g90
g71
NtRp596
(dp597
g74
(dp598
g94
g95
ssg83
g592
sg76
(lp599
g411
asbag69
(g90
g71
NtRp600
(dp601
g74
(dp602
g101
g102
ssg83
g592
sg76
(lp603
S':'
asbag69
(g90
g71
NtRp604
(dp605
g74
(dp606
sg83
g592
sg76
(lp607
g69
(g70
g71
NtRp608
(dp609
g74
(dp610
g82
I3
ssg83
g604
sg76
(lp611
S''
asbasbasbag69
(g85
g71
NtRp612
(dp613
g74
(dp614
sg83
g488
sg76
(lp615
g69
(g90
g71
NtRp616
(dp617
g74
(dp618
g94
g95
ssg83
g612
sg76
(lp619
g432
asbag69
(g90
g71
NtRp620
(dp621
g74
(dp622
g101
g102
ssg83
g612
sg76
(lp623
S':'
asbag69
(g90
g71
NtRp624
(dp625
g74
(dp626
sg83
g612
sg76
(lp627
g69
(g70
g71
NtRp628
(dp629
g74
(dp630
g82
I3
ssg83
g624
sg76
(lp631
S''
asbasbasbag69
(g85
g71
NtRp632
(dp633
g74
(dp634
sg83
g488
sg76
(lp635
g69
(g90
g71
NtRp636
(dp637
g74
(dp638
g94
g95
ssg83
g632
sg76
(lp639
g453
asbag69
(g90
g71
NtRp640
(dp641
g74
(dp642
g101
g102
ssg83
g632
sg76
(lp643
S':'
asbag69
(g90
g71
NtRp644
(dp645
g74
(dp646
sg83
g632
sg76
(lp647
g69
(g70
g71
NtRp648
(dp649
g74
(dp650
g82
I3
ssg83
g644
sg76
(lp651
S''
asbasbasbasbasbasbasbasbasbasbasbag69
(g85
g71
NtRp652
(dp653
g74
(dp654
sg83
g79
sg76
(lp655
g69
(g90
g71
NtRp656
(dp657
g74
(dp658
g94
g95
ssg83
g652
sg76
(lp659
S'env'
p660
asbag69
(g90
g71
NtRp661
(dp662
g74
(dp663
g101
g102
ssg83
g652
sg76
(lp664
S':'
asbag69
(g90
g71
NtRp665
(dp666
g74
(dp667
sg83
g652
sg76
(lp668
g69
(g70
g71
NtRp669
(dp670
g74
(dp671
g82
I5
ssg83
g665
sg76
(lp672
g69
(g78
g71
NtRp673
(dp674
g74
(dp675
g82
I4
ssg83
Nsg76
(lp676
g69
(g85
g71
NtRp677
(dp678
g74
(dp679
sg83
g673
sg76
(lp680
g69
(g90
g71
NtRp681
(dp682
g74
(dp683
g94
g95
ssg83
g677
sg76
(lp684
S'app_folders'
p685
asbag69
(g90
g71
NtRp686
(dp687
g74
(dp688
g101
g102
ssg83
g677
sg76
(lp689
S':'
asbag69
(g90
g71
NtRp690
(dp691
g74
(dp692
sg83
g677
sg76
(lp693
g69
(g70
g71
NtRp694
(dp695
g74
(dp696
g82
I4
ssg83
g690
sg76
(lp697
S"set(['/home/marco/projects/contabilidad/web2py/applications/sueldos/'])"
p698
asbasbasbag69
(g85
g71
NtRp699
(dp700
g74
(dp701
sg83
g673
sg76
(lp702
g69
(g90
g71
NtRp703
(dp704
g74
(dp705
g94
g95
ssg83
g699
sg76
(lp706
S'applications_parent'
p707
asbag69
(g90
g71
NtRp708
(dp709
g74
(dp710
g101
g102
ssg83
g699
sg76
(lp711
S':'
asbag69
(g90
g71
NtRp712
(dp713
g74
(dp714
sg83
g699
sg76
(lp715
g69
(g70
g71
NtRp716
(dp717
g74
(dp718
g82
I4
ssg83
g712
sg76
(lp719
S'/home/marco/projects/contabilidad/web2py'
p720
asbasbasbag69
(g85
g71
NtRp721
(dp722
g74
(dp723
sg83
g673
sg76
(lp724
g69
(g90
g71
NtRp725
(dp726
g74
(dp727
g94
g95
ssg83
g721
sg76
(lp728
S'cmd_args'
p729
asbag69
(g90
g71
NtRp730
(dp731
g74
(dp732
g101
g102
ssg83
g721
sg76
(lp733
S':'
asbag69
(g90
g71
NtRp734
(dp735
g74
(dp736
sg83
g721
sg76
(lp737
g69
(g70
g71
NtRp738
(dp739
g74
(dp740
g82
I4
ssg83
g734
sg76
(lp741
g69
(g78
g71
NtRp742
(dp743
g74
(dp744
g82
I3
ssg83
Nsg76
(lp745
sbasbasbasbag69
(g85
g71
NtRp746
(dp747
g74
(dp748
sg83
g673
sg76
(lp749
g69
(g90
g71
NtRp750
(dp751
g74
(dp752
g94
g95
ssg83
g746
sg76
(lp753
S'cmd_options'
p754
asbag69
(g90
g71
NtRp755
(dp756
g74
(dp757
g101
g102
ssg83
g746
sg76
(lp758
S':'
asbag69
(g90
g71
NtRp759
(dp760
g74
(dp761
sg83
g746
sg76
(lp762
g69
(g70
g71
NtRp763
(dp764
g74
(dp765
g82
I4
ssg83
g759
sg76
(lp766
S"<Values at 0x19452d8: {'verbose': False, 'ip': '127.0.0.1', 'with_scheduler': False, 'ips': [], 'shutdown_timeout': 5, 'taskbar': False, 'port': 8000, 'maxthreads': None, 'softcron': False, 'server_name': 'malena', 'bpython': False, 'nogui': False, 'pid_filename': 'httpserver.pid', 'extcron': False, 'runcron': False, 'run_system_tests': False, 'test': None, 'folder': '/home/marco/projects/contabilidad/web2py', 'config': '', 'minthreads': None, 'winservice': '', 'shell': None, 'run': '', 'log_filename': 'httpserver.log', 'debuglevel': 30, 'args': [''], 'socket_timeout': 5, 'ssl_ca_certificate': None, 'scheduler': None, 'profiler_filename': None, 'ssl_private_key': '', 'scheduler_groups': None, 'password': 'asd', 'request_queue_size': 5, 'ssl_certificate': '', 'cronjob': False, 'numthreads': None, 'quiet': False, 'interfaces': None, 'import_models': False, 'timeout': 10, 'plain': False, 'nobanner': False}>"
p767
asbasbasbag69
(g85
g71
NtRp768
(dp769
g74
(dp770
sg83
g673
sg76
(lp771
g69
(g90
g71
NtRp772
(dp773
g74
(dp774
g94
g95
ssg83
g768
sg76
(lp775
S'db_sessions'
p776
asbag69
(g90
g71
NtRp777
(dp778
g74
(dp779
g101
g102
ssg83
g768
sg76
(lp780
S':'
asbag69
(g90
g71
NtRp781
(dp782
g74
(dp783
sg83
g768
sg76
(lp784
g69
(g70
g71
NtRp785
(dp786
g74
(dp787
g82
I4
ssg83
g781
sg76
(lp788
S'set([])'
p789
asbasbasbag69
(g85
g71
NtRp790
(dp791
g74
(dp792
sg83
g673
sg76
(lp793
g69
(g90
g71
NtRp794
(dp795
g74
(dp796
g94
g95
ssg83
g790
sg76
(lp797
S'debugging'
p798
asbag69
(g90
g71
NtRp799
(dp800
g74
(dp801
g101
g102
ssg83
g790
sg76
(lp802
S':'
asbag69
(g90
g71
NtRp803
(dp804
g74
(dp805
sg83
g790
sg76
(lp806
g69
(g70
g71
NtRp807
(dp808
g74
(dp809
g82
I4
ssg83
g803
sg76
(lp810
g112
asbasbasbag69
(g85
g71
NtRp811
(dp812
g74
(dp813
sg83
g673
sg76
(lp814
g69
(g90
g71
NtRp815
(dp816
g74
(dp817
g94
g95
ssg83
g811
sg76
(lp818
S'gluon_parent'
p819
asbag69
(g90
g71
NtRp820
(dp821
g74
(dp822
g101
g102
ssg83
g811
sg76
(lp823
S':'
asbag69
(g90
g71
NtRp824
(dp825
g74
(dp826
sg83
g811
sg76
(lp827
g69
(g70
g71
NtRp828
(dp829
g74
(dp830
g82
I4
ssg83
g824
sg76
(lp831
S'/home/marco/projects/contabilidad/web2py'
p832
asbasbasbag69
(g85
g71
NtRp833
(dp834
g74
(dp835
sg83
g673
sg76
(lp836
g69
(g90
g71
NtRp837
(dp838
g74
(dp839
g94
g95
ssg83
g833
sg76
(lp840
S'http_accept'
p841
asbag69
(g90
g71
NtRp842
(dp843
g74
(dp844
g101
g102
ssg83
g833
sg76
(lp845
S':'
asbag69
(g90
g71
NtRp846
(dp847
g74
(dp848
sg83
g833
sg76
(lp849
g69
(g70
g71
NtRp850
(dp851
g74
(dp852
g82
I4
ssg83
g846
sg76
(lp853
S'text/html,application/xhtml+xml,application/xml;q=0.9,*/*;q=0.8'
p854
asbasbasbag69
(g85
g71
NtRp855
(dp856
g74
(dp857
sg83
g673
sg76
(lp858
g69
(g90
g71
NtRp859
(dp860
g74
(dp861
g94
g95
ssg83
g855
sg76
(lp862
S'http_accept_encoding'
p863
asbag69
(g90
g71
NtRp864
(dp865
g74
(dp866
g101
g102
ssg83
g855
sg76
(lp867
S':'
asbag69
(g90
g71
NtRp868
(dp869
g74
(dp870
sg83
g855
sg76
(lp871
g69
(g70
g71
NtRp872
(dp873
g74
(dp874
g82
I4
ssg83
g868
sg76
(lp875
S'gzip, deflate'
p876
asbasbasbag69
(g85
g71
NtRp877
(dp878
g74
(dp879
sg83
g673
sg76
(lp880
g69
(g90
g71
NtRp881
(dp882
g74
(dp883
g94
g95
ssg83
g877
sg76
(lp884
S'http_accept_language'
p885
asbag69
(g90
g71
NtRp886
(dp887
g74
(dp888
g101
g102
ssg83
g877
sg76
(lp889
S':'
asbag69
(g90
g71
NtRp890
(dp891
g74
(dp892
sg83
g877
sg76
(lp893
g69
(g70
g71
NtRp894
(dp895
g74
(dp896
g82
I4
ssg83
g890
sg76
(lp897
S'en-US,en;q=0.5'
p898
asbasbasbag69
(g85
g71
NtRp899
(dp900
g74
(dp901
sg83
g673
sg76
(lp902
g69
(g90
g71
NtRp903
(dp904
g74
(dp905
g94
g95
ssg83
g899
sg76
(lp906
S'http_connection'
p907
asbag69
(g90
g71
NtRp908
(dp909
g74
(dp910
g101
g102
ssg83
g899
sg76
(lp911
S':'
asbag69
(g90
g71
NtRp912
(dp913
g74
(dp914
sg83
g899
sg76
(lp915
g69
(g70
g71
NtRp916
(dp917
g74
(dp918
g82
I4
ssg83
g912
sg76
(lp919
S'keep-alive'
p920
asbasbasbag69
(g85
g71
NtRp921
(dp922
g74
(dp923
sg83
g673
sg76
(lp924
g69
(g90
g71
NtRp925
(dp926
g74
(dp927
g94
g95
ssg83
g921
sg76
(lp928
S'http_cookie'
p929
asbag69
(g90
g71
NtRp930
(dp931
g74
(dp932
g101
g102
ssg83
g921
sg76
(lp933
S':'
asbag69
(g90
g71
NtRp934
(dp935
g74
(dp936
sg83
g921
sg76
(lp937
g69
(g70
g71
NtRp938
(dp939
g74
(dp940
g82
I4
ssg83
g934
sg76
(lp941
S'session_id_admin=127.0.0.1-24af4e14-6d96-45d7-9010-207206732bb5; session_id_sueldos=127.0.0.1-b5ab5c43-cb03-494e-8551-1bb3b74c2938'
p942
asbasbasbag69
(g85
g71
NtRp943
(dp944
g74
(dp945
sg83
g673
sg76
(lp946
g69
(g90
g71
NtRp947
(dp948
g74
(dp949
g94
g95
ssg83
g943
sg76
(lp950
S'http_host'
p951
asbag69
(g90
g71
NtRp952
(dp953
g74
(dp954
g101
g102
ssg83
g943
sg76
(lp955
S':'
asbag69
(g90
g71
NtRp956
(dp957
g74
(dp958
sg83
g943
sg76
(lp959
g69
(g70
g71
NtRp960
(dp961
g74
(dp962
g82
I4
ssg83
g956
sg76
(lp963
S'127.0.0.1:8000'
p964
asbasbasbag69
(g85
g71
NtRp965
(dp966
g74
(dp967
sg83
g673
sg76
(lp968
g69
(g90
g71
NtRp969
(dp970
g74
(dp971
g94
g95
ssg83
g965
sg76
(lp972
S'http_user_agent'
p973
asbag69
(g90
g71
NtRp974
(dp975
g74
(dp976
g101
g102
ssg83
g965
sg76
(lp977
S':'
asbag69
(g90
g71
NtRp978
(dp979
g74
(dp980
sg83
g965
sg76
(lp981
g69
(g70
g71
NtRp982
(dp983
g74
(dp984
g82
I4
ssg83
g978
sg76
(lp985
S'Mozilla/5.0 (X11; Linux x86_64; rv:17.0) Gecko/20100101 Firefox/17.0 Iceweasel/17.0.1'
p986
asbasbasbag69
(g85
g71
NtRp987
(dp988
g74
(dp989
sg83
g673
sg76
(lp990
g69
(g90
g71
NtRp991
(dp992
g74
(dp993
g94
g95
ssg83
g987
sg76
(lp994
S'is_jython'
p995
asbag69
(g90
g71
NtRp996
(dp997
g74
(dp998
g101
g102
ssg83
g987
sg76
(lp999
S':'
asbag69
(g90
g71
NtRp1000
(dp1001
g74
(dp1002
sg83
g987
sg76
(lp1003
g69
(g70
g71
NtRp1004
(dp1005
g74
(dp1006
g82
I4
ssg83
g1000
sg76
(lp1007
g112
asbasbasbag69
(g85
g71
NtRp1008
(dp1009
g74
(dp1010
sg83
g673
sg76
(lp1011
g69
(g90
g71
NtRp1012
(dp1013
g74
(dp1014
g94
g95
ssg83
g1008
sg76
(lp1015
S'is_pypy'
p1016
asbag69
(g90
g71
NtRp1017
(dp1018
g74
(dp1019
g101
g102
ssg83
g1008
sg76
(lp1020
S':'
asbag69
(g90
g71
NtRp1021
(dp1022
g74
(dp1023
sg83
g1008
sg76
(lp1024
g69
(g70
g71
NtRp1025
(dp1026
g74
(dp1027
g82
I4
ssg83
g1021
sg76
(lp1028
g112
asbasbasbag69
(g85
g71
NtRp1029
(dp1030
g74
(dp1031
sg83
g673
sg76
(lp1032
g69
(g90
g71
NtRp1033
(dp1034
g74
(dp1035
g94
g95
ssg83
g1029
sg76
(lp1036
S'local_hosts'
p1037
asbag69
(g90
g71
NtRp1038
(dp1039
g74
(dp1040
g101
g102
ssg83
g1029
sg76
(lp1041
S':'
asbag69
(g90
g71
NtRp1042
(dp1043
g74
(dp1044
sg83
g1029
sg76
(lp1045
g69
(g70
g71
NtRp1046
(dp1047
g74
(dp1048
g82
I4
ssg83
g1042
sg76
(lp1049
g69
(g78
g71
NtRp1050
(dp1051
g74
(dp1052
g82
I3
ssg83
Nsg76
(lp1053
g69
(g85
g71
NtRp1054
(dp1055
g74
(dp1056
sg83
g1050
sg76
(lp1057
g69
(g90
g71
NtRp1058
(dp1059
g74
(dp1060
sg83
g1054
sg76
(lp1061
g69
(g70
g71
NtRp1062
(dp1063
g74
(dp1064
g82
I3
ssg83
g1058
sg76
(lp1065
S'malena'
p1066
asbasbasbag69
(g85
g71
NtRp1067
(dp1068
g74
(dp1069
sg83
g1050
sg76
(lp1070
g69
(g90
g71
NtRp1071
(dp1072
g74
(dp1073
sg83
g1067
sg76
(lp1074
g69
(g70
g71
NtRp1075
(dp1076
g74
(dp1077
g82
I3
ssg83
g1071
sg76
(lp1078
S'::1'
p1079
asbasbasbag69
(g85
g71
NtRp1080
(dp1081
g74
(dp1082
sg83
g1050
sg76
(lp1083
g69
(g90
g71
NtRp1084
(dp1085
g74
(dp1086
sg83
g1080
sg76
(lp1087
g69
(g70
g71
NtRp1088
(dp1089
g74
(dp1090
g82
I3
ssg83
g1084
sg76
(lp1091
S'127.0.1.1'
p1092
asbasbasbag69
(g85
g71
NtRp1093
(dp1094
g74
(dp1095
sg83
g1050
sg76
(lp1096
g69
(g90
g71
NtRp1097
(dp1098
g74
(dp1099
sg83
g1093
sg76
(lp1100
g69
(g70
g71
NtRp1101
(dp1102
g74
(dp1103
g82
I3
ssg83
g1097
sg76
(lp1104
S'::ffff:127.0.0.1'
p1105
asbasbasbag69
(g85
g71
NtRp1106
(dp1107
g74
(dp1108
sg83
g1050
sg76
(lp1109
g69
(g90
g71
NtRp1110
(dp1111
g74
(dp1112
sg83
g1106
sg76
(lp1113
g69
(g70
g71
NtRp1114
(dp1115
g74
(dp1116
g82
I3
ssg83
g1110
sg76
(lp1117
S'127.0.0.1'
p1118
asbasbasbasbasbasbasbag69
(g85
g71
NtRp1119
(dp1120
g74
(dp1121
sg83
g673
sg76
(lp1122
g69
(g90
g71
NtRp1123
(dp1124
g74
(dp1125
g94
g95
ssg83
g1119
sg76
(lp1126
S'path_info'
p1127
asbag69
(g90
g71
NtRp1128
(dp1129
g74
(dp1130
g101
g102
ssg83
g1119
sg76
(lp1131
S':'
asbag69
(g90
g71
NtRp1132
(dp1133
g74
(dp1134
sg83
g1119
sg76
(lp1135
g69
(g70
g71
NtRp1136
(dp1137
g74
(dp1138
g82
I4
ssg83
g1132
sg76
(lp1139
S'/sueldos/'
p1140
asbasbasbag69
(g85
g71
NtRp1141
(dp1142
g74
(dp1143
sg83
g673
sg76
(lp1144
g69
(g90
g71
NtRp1145
(dp1146
g74
(dp1147
g94
g95
ssg83
g1141
sg76
(lp1148
S'query_string'
p1149
asbag69
(g90
g71
NtRp1150
(dp1151
g74
(dp1152
g101
g102
ssg83
g1141
sg76
(lp1153
S':'
asbag69
(g90
g71
NtRp1154
(dp1155
g74
(dp1156
sg83
g1141
sg76
(lp1157
g69
(g70
g71
NtRp1158
(dp1159
g74
(dp1160
g82
I4
ssg83
g1154
sg76
(lp1161
S''
asbasbasbag69
(g85
g71
NtRp1162
(dp1163
g74
(dp1164
sg83
g673
sg76
(lp1165
g69
(g90
g71
NtRp1166
(dp1167
g74
(dp1168
g94
g95
ssg83
g1162
sg76
(lp1169
S'remote_addr'
p1170
asbag69
(g90
g71
NtRp1171
(dp1172
g74
(dp1173
g101
g102
ssg83
g1162
sg76
(lp1174
S':'
asbag69
(g90
g71
NtRp1175
(dp1176
g74
(dp1177
sg83
g1162
sg76
(lp1178
g69
(g70
g71
NtRp1179
(dp1180
g74
(dp1181
g82
I4
ssg83
g1175
sg76
(lp1182
g224
asbasbasbag69
(g85
g71
NtRp1183
(dp1184
g74
(dp1185
sg83
g673
sg76
(lp1186
g69
(g90
g71
NtRp1187
(dp1188
g74
(dp1189
g94
g95
ssg83
g1183
sg76
(lp1190
S'remote_port'
p1191
asbag69
(g90
g71
NtRp1192
(dp1193
g74
(dp1194
g101
g102
ssg83
g1183
sg76
(lp1195
S':'
asbag69
(g90
g71
NtRp1196
(dp1197
g74
(dp1198
sg83
g1183
sg76
(lp1199
g69
(g70
g71
NtRp1200
(dp1201
g74
(dp1202
g82
I4
ssg83
g1196
sg76
(lp1203
S'59419'
p1204
asbasbasbag69
(g85
g71
NtRp1205
(dp1206
g74
(dp1207
sg83
g673
sg76
(lp1208
g69
(g90
g71
NtRp1209
(dp1210
g74
(dp1211
g94
g95
ssg83
g1205
sg76
(lp1212
S'request_method'
p1213
asbag69
(g90
g71
NtRp1214
(dp1215
g74
(dp1216
g101
g102
ssg83
g1205
sg76
(lp1217
S':'
asbag69
(g90
g71
NtRp1218
(dp1219
g74
(dp1220
sg83
g1205
sg76
(lp1221
g69
(g70
g71
NtRp1222
(dp1223
g74
(dp1224
g82
I4
ssg83
g1218
sg76
(lp1225
S'GET'
p1226
asbasbasbag69
(g85
g71
NtRp1227
(dp1228
g74
(dp1229
sg83
g673
sg76
(lp1230
g69
(g90
g71
NtRp1231
(dp1232
g74
(dp1233
g94
g95
ssg83
g1227
sg76
(lp1234
S'request_uri'
p1235
asbag69
(g90
g71
NtRp1236
(dp1237
g74
(dp1238
g101
g102
ssg83
g1227
sg76
(lp1239
S':'
asbag69
(g90
g71
NtRp1240
(dp1241
g74
(dp1242
sg83
g1227
sg76
(lp1243
g69
(g70
g71
NtRp1244
(dp1245
g74
(dp1246
g82
I4
ssg83
g1240
sg76
(lp1247
g1140
asbasbasbag69
(g85
g71
NtRp1248
(dp1249
g74
(dp1250
sg83
g673
sg76
(lp1251
g69
(g90
g71
NtRp1252
(dp1253
g74
(dp1254
g94
g95
ssg83
g1248
sg76
(lp1255
S'script_name'
p1256
asbag69
(g90
g71
NtRp1257
(dp1258
g74
(dp1259
g101
g102
ssg83
g1248
sg76
(lp1260
S':'
asbag69
(g90
g71
NtRp1261
(dp1262
g74
(dp1263
sg83
g1248
sg76
(lp1264
g69
(g70
g71
NtRp1265
(dp1266
g74
(dp1267
g82
I4
ssg83
g1261
sg76
(lp1268
S''
asbasbasbag69
(g85
g71
NtRp1269
(dp1270
g74
(dp1271
sg83
g673
sg76
(lp1272
g69
(g90
g71
NtRp1273
(dp1274
g74
(dp1275
g94
g95
ssg83
g1269
sg76
(lp1276
S'server_name'
p1277
asbag69
(g90
g71
NtRp1278
(dp1279
g74
(dp1280
g101
g102
ssg83
g1269
sg76
(lp1281
S':'
asbag69
(g90
g71
NtRp1282
(dp1283
g74
(dp1284
sg83
g1269
sg76
(lp1285
g69
(g70
g71
NtRp1286
(dp1287
g74
(dp1288
g82
I4
ssg83
g1282
sg76
(lp1289
S'malena'
p1290
asbasbasbag69
(g85
g71
NtRp1291
(dp1292
g74
(dp1293
sg83
g673
sg76
(lp1294
g69
(g90
g71
NtRp1295
(dp1296
g74
(dp1297
g94
g95
ssg83
g1291
sg76
(lp1298
S'server_port'
p1299
asbag69
(g90
g71
NtRp1300
(dp1301
g74
(dp1302
g101
g102
ssg83
g1291
sg76
(lp1303
S':'
asbag69
(g90
g71
NtRp1304
(dp1305
g74
(dp1306
sg83
g1291
sg76
(lp1307
g69
(g70
g71
NtRp1308
(dp1309
g74
(dp1310
g82
I4
ssg83
g1304
sg76
(lp1311
S'8000'
p1312
asbasbasbag69
(g85
g71
NtRp1313
(dp1314
g74
(dp1315
sg83
g673
sg76
(lp1316
g69
(g90
g71
NtRp1317
(dp1318
g74
(dp1319
g94
g95
ssg83
g1313
sg76
(lp1320
S'server_protocol'
p1321
asbag69
(g90
g71
NtRp1322
(dp1323
g74
(dp1324
g101
g102
ssg83
g1313
sg76
(lp1325
S':'
asbag69
(g90
g71
NtRp1326
(dp1327
g74
(dp1328
sg83
g1313
sg76
(lp1329
g69
(g70
g71
NtRp1330
(dp1331
g74
(dp1332
g82
I4
ssg83
g1326
sg76
(lp1333
S'HTTP/1.1'
p1334
asbasbasbag69
(g85
g71
NtRp1335
(dp1336
g74
(dp1337
sg83
g673
sg76
(lp1338
g69
(g90
g71
NtRp1339
(dp1340
g74
(dp1341
g94
g95
ssg83
g1335
sg76
(lp1342
S'server_software'
p1343
asbag69
(g90
g71
NtRp1344
(dp1345
g74
(dp1346
g101
g102
ssg83
g1335
sg76
(lp1347
S':'
asbag69
(g90
g71
NtRp1348
(dp1349
g74
(dp1350
sg83
g1335
sg76
(lp1351
g69
(g70
g71
NtRp1352
(dp1353
g74
(dp1354
g82
I4
ssg83
g1348
sg76
(lp1355
S'Rocket 1.2.6'
p1356
asbasbasbag69
(g85
g71
NtRp1357
(dp1358
g74
(dp1359
sg83
g673
sg76
(lp1360
g69
(g90
g71
NtRp1361
(dp1362
g74
(dp1363
g94
g95
ssg83
g1357
sg76
(lp1364
S'web2py_path'
p1365
asbag69
(g90
g71
NtRp1366
(dp1367
g74
(dp1368
g101
g102
ssg83
g1357
sg76
(lp1369
S':'
asbag69
(g90
g71
NtRp1370
(dp1371
g74
(dp1372
sg83
g1357
sg76
(lp1373
g69
(g70
g71
NtRp1374
(dp1375
g74
(dp1376
g82
I4
ssg83
g1370
sg76
(lp1377
g720
asbasbasbag69
(g85
g71
NtRp1378
(dp1379
g74
(dp1380
sg83
g673
sg76
(lp1381
g69
(g90
g71
NtRp1382
(dp1383
g74
(dp1384
g94
g95
ssg83
g1378
sg76
(lp1385
S'web2py_version'
p1386
asbag69
(g90
g71
NtRp1387
(dp1388
g74
(dp1389
g101
g102
ssg83
g1378
sg76
(lp1390
S':'
asbag69
(g90
g71
NtRp1391
(dp1392
g74
(dp1393
sg83
g1378
sg76
(lp1394
g69
(g70
g71
NtRp1395
(dp1396
g74
(dp1397
g82
I4
ssg83
g1391
sg76
(lp1398
g69
(g78
g71
NtRp1399
(dp1400
g74
(dp1401
g82
I3
ssg83
Nsg76
(lp1402
g69
(g85
g71
NtRp1403
(dp1404
g74
(dp1405
sg83
g1399
sg76
(lp1406
g69
(g90
g71
NtRp1407
(dp1408
g74
(dp1409
sg83
g1403
sg76
(lp1410
g69
(g70
g71
NtRp1411
(dp1412
g74
(dp1413
g82
I3
ssg83
g1407
sg76
(lp1414
S'2'
asbasbasbag69
(g85
g71
NtRp1415
(dp1416
g74
(dp1417
sg83
g1399
sg76
(lp1418
g69
(g90
g71
NtRp1419
(dp1420
g74
(dp1421
sg83
g1415
sg76
(lp1422
g69
(g70
g71
NtRp1423
(dp1424
g74
(dp1425
g82
I3
ssg83
g1419
sg76
(lp1426
S'3'
asbasbasbag69
(g85
g71
NtRp1427
(dp1428
g74
(dp1429
sg83
g1399
sg76
(lp1430
g69
(g90
g71
NtRp1431
(dp1432
g74
(dp1433
sg83
g1427
sg76
(lp1434
g69
(g70
g71
NtRp1435
(dp1436
g74
(dp1437
g82
I3
ssg83
g1431
sg76
(lp1438
S'0'
asbasbasbag69
(g85
g71
NtRp1439
(dp1440
g74
(dp1441
sg83
g1399
sg76
(lp1442
g69
(g90
g71
NtRp1443
(dp1444
g74
(dp1445
sg83
g1439
sg76
(lp1446
g69
(g70
g71
NtRp1447
(dp1448
g74
(dp1449
g82
I3
ssg83
g1443
sg76
(lp1450
S'datetime.datetime(2012, 12, 4, 10, 55, 53)'
p1451
asbasbasbag69
(g85
g71
NtRp1452
(dp1453
g74
(dp1454
sg83
g1399
sg76
(lp1455
g69
(g90
g71
NtRp1456
(dp1457
g74
(dp1458
sg83
g1452
sg76
(lp1459
g69
(g70
g71
NtRp1460
(dp1461
g74
(dp1462
g82
I3
ssg83
g1456
sg76
(lp1463
S'rc'
p1464
asbasbasbasbasbasbasbag69
(g85
g71
NtRp1465
(dp1466
g74
(dp1467
sg83
g673
sg76
(lp1468
g69
(g90
g71
NtRp1469
(dp1470
g74
(dp1471
g94
g95
ssg83
g1465
sg76
(lp1472
S'wsgi_errors'
p1473
asbag69
(g90
g71
NtRp1474
(dp1475
g74
(dp1476
g101
g102
ssg83
g1465
sg76
(lp1477
S':'
asbag69
(g90
g71
NtRp1478
(dp1479
g74
(dp1480
sg83
g1465
sg76
(lp1481
g69
(g70
g71
NtRp1482
(dp1483
g74
(dp1484
g82
I4
ssg83
g1478
sg76
(lp1485
S"<open file '<stderr>', mode 'w' at 0x7f7f1f45b270>"
p1486
asbasbasbag69
(g85
g71
NtRp1487
(dp1488
g74
(dp1489
sg83
g673
sg76
(lp1490
g69
(g90
g71
NtRp1491
(dp1492
g74
(dp1493
g94
g95
ssg83
g1487
sg76
(lp1494
S'wsgi_file_wrapper'
p1495
asbag69
(g90
g71
NtRp1496
(dp1497
g74
(dp1498
g101
g102
ssg83
g1487
sg76
(lp1499
S':'
asbag69
(g90
g71
NtRp1500
(dp1501
g74
(dp1502
sg83
g1487
sg76
(lp1503
g69
(g70
g71
NtRp1504
(dp1505
g74
(dp1506
g82
I4
ssg83
g1500
sg76
(lp1507
S'<class wsgiref.util.FileWrapper at 0x18a3c80>'
p1508
asbasbasbag69
(g85
g71
NtRp1509
(dp1510
g74
(dp1511
sg83
g673
sg76
(lp1512
g69
(g90
g71
NtRp1513
(dp1514
g74
(dp1515
g94
g95
ssg83
g1509
sg76
(lp1516
S'wsgi_input'
p1517
asbag69
(g90
g71
NtRp1518
(dp1519
g74
(dp1520
g101
g102
ssg83
g1509
sg76
(lp1521
S':'
asbag69
(g90
g71
NtRp1522
(dp1523
g74
(dp1524
sg83
g1509
sg76
(lp1525
g69
(g70
g71
NtRp1526
(dp1527
g74
(dp1528
g82
I4
ssg83
g1522
sg76
(lp1529
S'<socket._fileobject object at 0x1c99a50>'
p1530
asbasbasbag69
(g85
g71
NtRp1531
(dp1532
g74
(dp1533
sg83
g673
sg76
(lp1534
g69
(g90
g71
NtRp1535
(dp1536
g74
(dp1537
g94
g95
ssg83
g1531
sg76
(lp1538
S'wsgi_multiprocess'
p1539
asbag69
(g90
g71
NtRp1540
(dp1541
g74
(dp1542
g101
g102
ssg83
g1531
sg76
(lp1543
S':'
asbag69
(g90
g71
NtRp1544
(dp1545
g74
(dp1546
sg83
g1531
sg76
(lp1547
g69
(g70
g71
NtRp1548
(dp1549
g74
(dp1550
g82
I4
ssg83
g1544
sg76
(lp1551
g112
asbasbasbag69
(g85
g71
NtRp1552
(dp1553
g74
(dp1554
sg83
g673
sg76
(lp1555
g69
(g90
g71
NtRp1556
(dp1557
g74
(dp1558
g94
g95
ssg83
g1552
sg76
(lp1559
S'wsgi_multithread'
p1560
asbag69
(g90
g71
NtRp1561
(dp1562
g74
(dp1563
g101
g102
ssg83
g1552
sg76
(lp1564
S':'
asbag69
(g90
g71
NtRp1565
(dp1566
g74
(dp1567
sg83
g1552
sg76
(lp1568
g69
(g70
g71
NtRp1569
(dp1570
g74
(dp1571
g82
I4
ssg83
g1565
sg76
(lp1572
S'True'
p1573
asbasbasbag69
(g85
g71
NtRp1574
(dp1575
g74
(dp1576
sg83
g673
sg76
(lp1577
g69
(g90
g71
NtRp1578
(dp1579
g74
(dp1580
g94
g95
ssg83
g1574
sg76
(lp1581
S'wsgi_run_once'
p1582
asbag69
(g90
g71
NtRp1583
(dp1584
g74
(dp1585
g101
g102
ssg83
g1574
sg76
(lp1586
S':'
asbag69
(g90
g71
NtRp1587
(dp1588
g74
(dp1589
sg83
g1574
sg76
(lp1590
g69
(g70
g71
NtRp1591
(dp1592
g74
(dp1593
g82
I4
ssg83
g1587
sg76
(lp1594
g112
asbasbasbag69
(g85
g71
NtRp1595
(dp1596
g74
(dp1597
sg83
g673
sg76
(lp1598
g69
(g90
g71
NtRp1599
(dp1600
g74
(dp1601
g94
g95
ssg83
g1595
sg76
(lp1602
S'wsgi_url_scheme'
p1603
asbag69
(g90
g71
NtRp1604
(dp1605
g74
(dp1606
g101
g102
ssg83
g1595
sg76
(lp1607
S':'
asbag69
(g90
g71
NtRp1608
(dp1609
g74
(dp1610
sg83
g1595
sg76
(lp1611
g69
(g70
g71
NtRp1612
(dp1613
g74
(dp1614
g82
I4
ssg83
g1608
sg76
(lp1615
S'http'
p1616
asbasbasbag69
(g85
g71
NtRp1617
(dp1618
g74
(dp1619
sg83
g673
sg76
(lp1620
g69
(g90
g71
NtRp1621
(dp1622
g74
(dp1623
g94
g95
ssg83
g1617
sg76
(lp1624
S'wsgi_version'
p1625
asbag69
(g90
g71
NtRp1626
(dp1627
g74
(dp1628
g101
g102
ssg83
g1617
sg76
(lp1629
S':'
asbag69
(g90
g71
NtRp1630
(dp1631
g74
(dp1632
sg83
g1617
sg76
(lp1633
g69
(g70
g71
NtRp1634
(dp1635
g74
(dp1636
g82
I4
ssg83
g1630
sg76
(lp1637
g69
(g78
g71
NtRp1638
(dp1639
g74
(dp1640
g82
I3
ssg83
Nsg76
(lp1641
g69
(g85
g71
NtRp1642
(dp1643
g74
(dp1644
sg83
g1638
sg76
(lp1645
g69
(g90
g71
NtRp1646
(dp1647
g74
(dp1648
sg83
g1642
sg76
(lp1649
g69
(g70
g71
NtRp1650
(dp1651
g74
(dp1652
g82
I3
ssg83
g1646
sg76
(lp1653
S'1'
asbasbasbag69
(g85
g71
NtRp1654
(dp1655
g74
(dp1656
sg83
g1638
sg76
(lp1657
g69
(g90
g71
NtRp1658
(dp1659
g74
(dp1660
sg83
g1654
sg76
(lp1661
g69
(g70
g71
NtRp1662
(dp1663
g74
(dp1664
g82
I3
ssg83
g1658
sg76
(lp1665
S'0'
asbasbasbasbasbasbasbasbasbasbasbag69
(g85
g71
NtRp1666
(dp1667
g74
(dp1668
sg83
g79
sg76
(lp1669
g69
(g90
g71
NtRp1670
(dp1671
g74
(dp1672
g94
g95
ssg83
g1666
sg76
(lp1673
S'extension'
p1674
asbag69
(g90
g71
NtRp1675
(dp1676
g74
(dp1677
g101
g102
ssg83
g1666
sg76
(lp1678
S':'
asbag69
(g90
g71
NtRp1679
(dp1680
g74
(dp1681
sg83
g1666
sg76
(lp1682
g69
(g70
g71
NtRp1683
(dp1684
g74
(dp1685
g82
I5
ssg83
g1679
sg76
(lp1686
S'html'
p1687
asbasbasbag69
(g85
g71
NtRp1688
(dp1689
g74
(dp1690
sg83
g79
sg76
(lp1691
g69
(g90
g71
NtRp1692
(dp1693
g74
(dp1694
g94
g95
ssg83
g1688
sg76
(lp1695
S'folder'
p1696
asbag69
(g90
g71
NtRp1697
(dp1698
g74
(dp1699
g101
g102
ssg83
g1688
sg76
(lp1700
S':'
asbag69
(g90
g71
NtRp1701
(dp1702
g74
(dp1703
sg83
g1688
sg76
(lp1704
g69
(g70
g71
NtRp1705
(dp1706
g74
(dp1707
g82
I5
ssg83
g1701
sg76
(lp1708
S'/home/marco/projects/contabilidad/web2py/applications/sueldos/'
p1709
asbasbasbag69
(g85
g71
NtRp1710
(dp1711
g74
(dp1712
sg83
g79
sg76
(lp1713
g69
(g90
g71
NtRp1714
(dp1715
g74
(dp1716
g94
g95
ssg83
g1710
sg76
(lp1717
S'function'
p1718
asbag69
(g90
g71
NtRp1719
(dp1720
g74
(dp1721
g101
g102
ssg83
g1710
sg76
(lp1722
S':'
asbag69
(g90
g71
NtRp1723
(dp1724
g74
(dp1725
sg83
g1710
sg76
(lp1726
g69
(g70
g71
NtRp1727
(dp1728
g74
(dp1729
g82
I5
ssg83
g1723
sg76
(lp1730
S'index'
p1731
asbasbasbag69
(g85
g71
NtRp1732
(dp1733
g74
(dp1734
sg83
g79
sg76
(lp1735
g69
(g90
g71
NtRp1736
(dp1737
g74
(dp1738
g94
g95
ssg83
g1732
sg76
(lp1739
S'get_vars'
p1740
asbag69
(g90
g71
NtRp1741
(dp1742
g74
(dp1743
g101
g102
ssg83
g1732
sg76
(lp1744
S':'
asbag69
(g90
g71
NtRp1745
(dp1746
g74
(dp1747
sg83
g1732
sg76
(lp1748
g69
(g70
g71
NtRp1749
(dp1750
g74
(dp1751
g82
I5
ssg83
g1745
sg76
(lp1752
g69
(g78
g71
NtRp1753
(dp1754
g74
(dp1755
g82
I4
ssg83
Nsg76
(lp1756
sbasbasbasbag69
(g85
g71
NtRp1757
(dp1758
g74
(dp1759
sg83
g79
sg76
(lp1760
g69
(g90
g71
NtRp1761
(dp1762
g74
(dp1763
g94
g95
ssg83
g1757
sg76
(lp1764
S'global_settings'
p1765
asbag69
(g90
g71
NtRp1766
(dp1767
g74
(dp1768
g101
g102
ssg83
g1757
sg76
(lp1769
S':'
asbag69
(g90
g71
NtRp1770
(dp1771
g74
(dp1772
sg83
g1757
sg76
(lp1773
g69
(g70
g71
NtRp1774
(dp1775
g74
(dp1776
g82
I5
ssg83
g1770
sg76
(lp1777
g69
(g78
g71
NtRp1778
(dp1779
g74
(dp1780
g82
I4
ssg83
Nsg76
(lp1781
g69
(g85
g71
NtRp1782
(dp1783
g74
(dp1784
sg83
g1778
sg76
(lp1785
g69
(g90
g71
NtRp1786
(dp1787
g74
(dp1788
g94
g95
ssg83
g1782
sg76
(lp1789
g685
asbag69
(g90
g71
NtRp1790
(dp1791
g74
(dp1792
g101
g102
ssg83
g1782
sg76
(lp1793
S':'
asbag69
(g90
g71
NtRp1794
(dp1795
g74
(dp1796
sg83
g1782
sg76
(lp1797
g69
(g70
g71
NtRp1798
(dp1799
g74
(dp1800
g82
I4
ssg83
g1794
sg76
(lp1801
S"set(['/home/marco/projects/contabilidad/web2py/applications/sueldos/'])"
p1802
asbasbasbag69
(g85
g71
NtRp1803
(dp1804
g74
(dp1805
sg83
g1778
sg76
(lp1806
g69
(g90
g71
NtRp1807
(dp1808
g74
(dp1809
g94
g95
ssg83
g1803
sg76
(lp1810
g707
asbag69
(g90
g71
NtRp1811
(dp1812
g74
(dp1813
g101
g102
ssg83
g1803
sg76
(lp1814
S':'
asbag69
(g90
g71
NtRp1815
(dp1816
g74
(dp1817
sg83
g1803
sg76
(lp1818
g69
(g70
g71
NtRp1819
(dp1820
g74
(dp1821
g82
I4
ssg83
g1815
sg76
(lp1822
g720
asbasbasbag69
(g85
g71
NtRp1823
(dp1824
g74
(dp1825
sg83
g1778
sg76
(lp1826
g69
(g90
g71
NtRp1827
(dp1828
g74
(dp1829
g94
g95
ssg83
g1823
sg76
(lp1830
g729
asbag69
(g90
g71
NtRp1831
(dp1832
g74
(dp1833
g101
g102
ssg83
g1823
sg76
(lp1834
S':'
asbag69
(g90
g71
NtRp1835
(dp1836
g74
(dp1837
sg83
g1823
sg76
(lp1838
g69
(g70
g71
NtRp1839
(dp1840
g74
(dp1841
g82
I4
ssg83
g1835
sg76
(lp1842
g69
(g78
g71
NtRp1843
(dp1844
g74
(dp1845
g82
I3
ssg83
Nsg76
(lp1846
sbasbasbasbag69
(g85
g71
NtRp1847
(dp1848
g74
(dp1849
sg83
g1778
sg76
(lp1850
g69
(g90
g71
NtRp1851
(dp1852
g74
(dp1853
g94
g95
ssg83
g1847
sg76
(lp1854
g754
asbag69
(g90
g71
NtRp1855
(dp1856
g74
(dp1857
g101
g102
ssg83
g1847
sg76
(lp1858
S':'
asbag69
(g90
g71
NtRp1859
(dp1860
g74
(dp1861
sg83
g1847
sg76
(lp1862
g69
(g70
g71
NtRp1863
(dp1864
g74
(dp1865
g82
I4
ssg83
g1859
sg76
(lp1866
S"<Values at 0x19452d8: {'verbose': False, 'ip': '127.0.0.1', 'with_scheduler': False, 'ips': [], 'shutdown_timeout': 5, 'taskbar': False, 'port': 8000, 'maxthreads': None, 'softcron': False, 'server_name': 'malena', 'bpython': False, 'nogui': False, 'pid_filename': 'httpserver.pid', 'extcron': False, 'runcron': False, 'run_system_tests': False, 'test': None, 'folder': '/home/marco/projects/contabilidad/web2py', 'config': '', 'minthreads': None, 'winservice': '', 'shell': None, 'run': '', 'log_filename': 'httpserver.log', 'debuglevel': 30, 'args': [''], 'socket_timeout': 5, 'ssl_ca_certificate': None, 'scheduler': None, 'profiler_filename': None, 'ssl_private_key': '', 'scheduler_groups': None, 'password': 'asd', 'request_queue_size': 5, 'ssl_certificate': '', 'cronjob': False, 'numthreads': None, 'quiet': False, 'interfaces': None, 'import_models': False, 'timeout': 10, 'plain': False, 'nobanner': False}>"
p1867
asbasbasbag69
(g85
g71
NtRp1868
(dp1869
g74
(dp1870
sg83
g1778
sg76
(lp1871
g69
(g90
g71
NtRp1872
(dp1873
g74
(dp1874
g94
g95
ssg83
g1868
sg76
(lp1875
g776
asbag69
(g90
g71
NtRp1876
(dp1877
g74
(dp1878
g101
g102
ssg83
g1868
sg76
(lp1879
S':'
asbag69
(g90
g71
NtRp1880
(dp1881
g74
(dp1882
sg83
g1868
sg76
(lp1883
g69
(g70
g71
NtRp1884
(dp1885
g74
(dp1886
g82
I4
ssg83
g1880
sg76
(lp1887
S'set([])'
p1888
asbasbasbag69
(g85
g71
NtRp1889
(dp1890
g74
(dp1891
sg83
g1778
sg76
(lp1892
g69
(g90
g71
NtRp1893
(dp1894
g74
(dp1895
g94
g95
ssg83
g1889
sg76
(lp1896
g798
asbag69
(g90
g71
NtRp1897
(dp1898
g74
(dp1899
g101
g102
ssg83
g1889
sg76
(lp1900
S':'
asbag69
(g90
g71
NtRp1901
(dp1902
g74
(dp1903
sg83
g1889
sg76
(lp1904
g69
(g70
g71
NtRp1905
(dp1906
g74
(dp1907
g82
I4
ssg83
g1901
sg76
(lp1908
g112
asbasbasbag69
(g85
g71
NtRp1909
(dp1910
g74
(dp1911
sg83
g1778
sg76
(lp1912
g69
(g90
g71
NtRp1913
(dp1914
g74
(dp1915
g94
g95
ssg83
g1909
sg76
(lp1916
g819
asbag69
(g90
g71
NtRp1917
(dp1918
g74
(dp1919
g101
g102
ssg83
g1909
sg76
(lp1920
S':'
asbag69
(g90
g71
NtRp1921
(dp1922
g74
(dp1923
sg83
g1909
sg76
(lp1924
g69
(g70
g71
NtRp1925
(dp1926
g74
(dp1927
g82
I4
ssg83
g1921
sg76
(lp1928
g832
asbasbasbag69
(g85
g71
NtRp1929
(dp1930
g74
(dp1931
sg83
g1778
sg76
(lp1932
g69
(g90
g71
NtRp1933
(dp1934
g74
(dp1935
g94
g95
ssg83
g1929
sg76
(lp1936
g995
asbag69
(g90
g71
NtRp1937
(dp1938
g74
(dp1939
g101
g102
ssg83
g1929
sg76
(lp1940
S':'
asbag69
(g90
g71
NtRp1941
(dp1942
g74
(dp1943
sg83
g1929
sg76
(lp1944
g69
(g70
g71
NtRp1945
(dp1946
g74
(dp1947
g82
I4
ssg83
g1941
sg76
(lp1948
g112
asbasbasbag69
(g85
g71
NtRp1949
(dp1950
g74
(dp1951
sg83
g1778
sg76
(lp1952
g69
(g90
g71
NtRp1953
(dp1954
g74
(dp1955
g94
g95
ssg83
g1949
sg76
(lp1956
g1016
asbag69
(g90
g71
NtRp1957
(dp1958
g74
(dp1959
g101
g102
ssg83
g1949
sg76
(lp1960
S':'
asbag69
(g90
g71
NtRp1961
(dp1962
g74
(dp1963
sg83
g1949
sg76
(lp1964
g69
(g70
g71
NtRp1965
(dp1966
g74
(dp1967
g82
I4
ssg83
g1961
sg76
(lp1968
g112
asbasbasbag69
(g85
g71
NtRp1969
(dp1970
g74
(dp1971
sg83
g1778
sg76
(lp1972
g69
(g90
g71
NtRp1973
(dp1974
g74
(dp1975
g94
g95
ssg83
g1969
sg76
(lp1976
g1037
asbag69
(g90
g71
NtRp1977
(dp1978
g74
(dp1979
g101
g102
ssg83
g1969
sg76
(lp1980
S':'
asbag69
(g90
g71
NtRp1981
(dp1982
g74
(dp1983
sg83
g1969
sg76
(lp1984
g69
(g70
g71
NtRp1985
(dp1986
g74
(dp1987
g82
I4
ssg83
g1981
sg76
(lp1988
g69
(g78
g71
NtRp1989
(dp1990
g74
(dp1991
g82
I3
ssg83
Nsg76
(lp1992
g69
(g85
g71
NtRp1993
(dp1994
g74
(dp1995
sg83
g1989
sg76
(lp1996
g69
(g90
g71
NtRp1997
(dp1998
g74
(dp1999
sg83
g1993
sg76
(lp2000
g69
(g70
g71
NtRp2001
(dp2002
g74
(dp2003
g82
I3
ssg83
g1997
sg76
(lp2004
g1066
asbasbasbag69
(g85
g71
NtRp2005
(dp2006
g74
(dp2007
sg83
g1989
sg76
(lp2008
g69
(g90
g71
NtRp2009
(dp2010
g74
(dp2011
sg83
g2005
sg76
(lp2012
g69
(g70
g71
NtRp2013
(dp2014
g74
(dp2015
g82
I3
ssg83
g2009
sg76
(lp2016
g1079
asbasbasbag69
(g85
g71
NtRp2017
(dp2018
g74
(dp2019
sg83
g1989
sg76
(lp2020
g69
(g90
g71
NtRp2021
(dp2022
g74
(dp2023
sg83
g2017
sg76
(lp2024
g69
(g70
g71
NtRp2025
(dp2026
g74
(dp2027
g82
I3
ssg83
g2021
sg76
(lp2028
g1092
asbasbasbag69
(g85
g71
NtRp2029
(dp2030
g74
(dp2031
sg83
g1989
sg76
(lp2032
g69
(g90
g71
NtRp2033
(dp2034
g74
(dp2035
sg83
g2029
sg76
(lp2036
g69
(g70
g71
NtRp2037
(dp2038
g74
(dp2039
g82
I3
ssg83
g2033
sg76
(lp2040
g1105
asbasbasbag69
(g85
g71
NtRp2041
(dp2042
g74
(dp2043
sg83
g1989
sg76
(lp2044
g69
(g90
g71
NtRp2045
(dp2046
g74
(dp2047
sg83
g2041
sg76
(lp2048
g69
(g70
g71
NtRp2049
(dp2050
g74
(dp2051
g82
I3
ssg83
g2045
sg76
(lp2052
g1118
asbasbasbasbasbasbasbag69
(g85
g71
NtRp2053
(dp2054
g74
(dp2055
sg83
g1778
sg76
(lp2056
g69
(g90
g71
NtRp2057
(dp2058
g74
(dp2059
g94
g95
ssg83
g2053
sg76
(lp2060
g1386
asbag69
(g90
g71
NtRp2061
(dp2062
g74
(dp2063
g101
g102
ssg83
g2053
sg76
(lp2064
S':'
asbag69
(g90
g71
NtRp2065
(dp2066
g74
(dp2067
sg83
g2053
sg76
(lp2068
g69
(g70
g71
NtRp2069
(dp2070
g74
(dp2071
g82
I4
ssg83
g2065
sg76
(lp2072
g69
(g78
g71
NtRp2073
(dp2074
g74
(dp2075
g82
I3
ssg83
Nsg76
(lp2076
g69
(g85
g71
NtRp2077
(dp2078
g74
(dp2079
sg83
g2073
sg76
(lp2080
g69
(g90
g71
NtRp2081
(dp2082
g74
(dp2083
sg83
g2077
sg76
(lp2084
g69
(g70
g71
NtRp2085
(dp2086
g74
(dp2087
g82
I3
ssg83
g2081
sg76
(lp2088
S'2'
asbasbasbag69
(g85
g71
NtRp2089
(dp2090
g74
(dp2091
sg83
g2073
sg76
(lp2092
g69
(g90
g71
NtRp2093
(dp2094
g74
(dp2095
sg83
g2089
sg76
(lp2096
g69
(g70
g71
NtRp2097
(dp2098
g74
(dp2099
g82
I3
ssg83
g2093
sg76
(lp2100
S'3'
asbasbasbag69
(g85
g71
NtRp2101
(dp2102
g74
(dp2103
sg83
g2073
sg76
(lp2104
g69
(g90
g71
NtRp2105
(dp2106
g74
(dp2107
sg83
g2101
sg76
(lp2108
g69
(g70
g71
NtRp2109
(dp2110
g74
(dp2111
g82
I3
ssg83
g2105
sg76
(lp2112
S'0'
asbasbasbag69
(g85
g71
NtRp2113
(dp2114
g74
(dp2115
sg83
g2073
sg76
(lp2116
g69
(g90
g71
NtRp2117
(dp2118
g74
(dp2119
sg83
g2113
sg76
(lp2120
g69
(g70
g71
NtRp2121
(dp2122
g74
(dp2123
g82
I3
ssg83
g2117
sg76
(lp2124
S'datetime.datetime(2012, 12, 4, 10, 55, 53)'
p2125
asbasbasbag69
(g85
g71
NtRp2126
(dp2127
g74
(dp2128
sg83
g2073
sg76
(lp2129
g69
(g90
g71
NtRp2130
(dp2131
g74
(dp2132
sg83
g2126
sg76
(lp2133
g69
(g70
g71
NtRp2134
(dp2135
g74
(dp2136
g82
I3
ssg83
g2130
sg76
(lp2137
g1464
asbasbasbasbasbasbasbasbasbasbasbag69
(g85
g71
NtRp2138
(dp2139
g74
(dp2140
sg83
g79
sg76
(lp2141
g69
(g90
g71
NtRp2142
(dp2143
g74
(dp2144
g94
g95
ssg83
g2138
sg76
(lp2145
S'is_https'
p2146
asbag69
(g90
g71
NtRp2147
(dp2148
g74
(dp2149
g101
g102
ssg83
g2138
sg76
(lp2150
S':'
asbag69
(g90
g71
NtRp2151
(dp2152
g74
(dp2153
sg83
g2138
sg76
(lp2154
g69
(g70
g71
NtRp2155
(dp2156
g74
(dp2157
g82
I5
ssg83
g2151
sg76
(lp2158
g112
asbasbasbag69
(g85
g71
NtRp2159
(dp2160
g74
(dp2161
sg83
g79
sg76
(lp2162
g69
(g90
g71
NtRp2163
(dp2164
g74
(dp2165
g94
g95
ssg83
g2159
sg76
(lp2166
S'is_local'
p2167
asbag69
(g90
g71
NtRp2168
(dp2169
g74
(dp2170
g101
g102
ssg83
g2159
sg76
(lp2171
S':'
asbag69
(g90
g71
NtRp2172
(dp2173
g74
(dp2174
sg83
g2159
sg76
(lp2175
g69
(g70
g71
NtRp2176
(dp2177
g74
(dp2178
g82
I5
ssg83
g2172
sg76
(lp2179
g1573
asbasbasbag69
(g85
g71
NtRp2180
(dp2181
g74
(dp2182
sg83
g79
sg76
(lp2183
g69
(g90
g71
NtRp2184
(dp2185
g74
(dp2186
g94
g95
ssg83
g2180
sg76
(lp2187
S'is_restful'
p2188
asbag69
(g90
g71
NtRp2189
(dp2190
g74
(dp2191
g101
g102
ssg83
g2180
sg76
(lp2192
S':'
asbag69
(g90
g71
NtRp2193
(dp2194
g74
(dp2195
sg83
g2180
sg76
(lp2196
g69
(g70
g71
NtRp2197
(dp2198
g74
(dp2199
g82
I5
ssg83
g2193
sg76
(lp2200
g112
asbasbasbag69
(g85
g71
NtRp2201
(dp2202
g74
(dp2203
sg83
g79
sg76
(lp2204
g69
(g90
g71
NtRp2205
(dp2206
g74
(dp2207
g94
g95
ssg83
g2201
sg76
(lp2208
S'now'
p2209
asbag69
(g90
g71
NtRp2210
(dp2211
g74
(dp2212
g101
g102
ssg83
g2201
sg76
(lp2213
S':'
asbag69
(g90
g71
NtRp2214
(dp2215
g74
(dp2216
sg83
g2201
sg76
(lp2217
g69
(g70
g71
NtRp2218
(dp2219
g74
(dp2220
g82
I5
ssg83
g2214
sg76
(lp2221
S'datetime.datetime(2013, 1, 7, 18, 39, 3, 446618)'
p2222
asbasbasbag69
(g85
g71
NtRp2223
(dp2224
g74
(dp2225
sg83
g79
sg76
(lp2226
g69
(g90
g71
NtRp2227
(dp2228
g74
(dp2229
g94
g95
ssg83
g2223
sg76
(lp2230
S'post_vars'
p2231
asbag69
(g90
g71
NtRp2232
(dp2233
g74
(dp2234
g101
g102
ssg83
g2223
sg76
(lp2235
S':'
asbag69
(g90
g71
NtRp2236
(dp2237
g74
(dp2238
sg83
g2223
sg76
(lp2239
g69
(g70
g71
NtRp2240
(dp2241
g74
(dp2242
g82
I5
ssg83
g2236
sg76
(lp2243
g69
(g78
g71
NtRp2244
(dp2245
g74
(dp2246
g82
I4
ssg83
Nsg76
(lp2247
sbasbasbasbag69
(g85
g71
NtRp2248
(dp2249
g74
(dp2250
sg83
g79
sg76
(lp2251
g69
(g90
g71
NtRp2252
(dp2253
g74
(dp2254
g94
g95
ssg83
g2248
sg76
(lp2255
S'raw_args'
p2256
asbag69
(g90
g71
NtRp2257
(dp2258
g74
(dp2259
g101
g102
ssg83
g2248
sg76
(lp2260
S':'
asbag69
(g90
g71
NtRp2261
(dp2262
g74
(dp2263
sg83
g2248
sg76
(lp2264
g69
(g70
g71
NtRp2265
(dp2266
g74
(dp2267
g82
I5
ssg83
g2261
sg76
(lp2268
S''
asbasbasbag69
(g85
g71
NtRp2269
(dp2270
g74
(dp2271
sg83
g79
sg76
(lp2272
g69
(g90
g71
NtRp2273
(dp2274
g74
(dp2275
g94
g95
ssg83
g2269
sg76
(lp2276
S'raw_extension'
p2277
asbag69
(g90
g71
NtRp2278
(dp2279
g74
(dp2280
g101
g102
ssg83
g2269
sg76
(lp2281
S':'
asbag69
(g90
g71
NtRp2282
(dp2283
g74
(dp2284
sg83
g2269
sg76
(lp2285
g69
(g70
g71
NtRp2286
(dp2287
g74
(dp2288
g82
I5
ssg83
g2282
sg76
(lp2289
S'None'
p2290
asbasbasbag69
(g85
g71
NtRp2291
(dp2292
g74
(dp2293
sg83
g79
sg76
(lp2294
g69
(g90
g71
NtRp2295
(dp2296
g74
(dp2297
g94
g95
ssg83
g2291
sg76
(lp2298
S'url'
p2299
asbag69
(g90
g71
NtRp2300
(dp2301
g74
(dp2302
g101
g102
ssg83
g2291
sg76
(lp2303
S':'
asbag69
(g90
g71
NtRp2304
(dp2305
g74
(dp2306
sg83
g2291
sg76
(lp2307
g69
(g70
g71
NtRp2308
(dp2309
g74
(dp2310
g82
I5
ssg83
g2304
sg76
(lp2311
g1140
asbasbasbag69
(g85
g71
NtRp2312
(dp2313
g74
(dp2314
sg83
g79
sg76
(lp2315
g69
(g90
g71
NtRp2316
(dp2317
g74
(dp2318
g94
g95
ssg83
g2312
sg76
(lp2319
S'utcnow'
p2320
asbag69
(g90
g71
NtRp2321
(dp2322
g74
(dp2323
g101
g102
ssg83
g2312
sg76
(lp2324
S':'
asbag69
(g90
g71
NtRp2325
(dp2326
g74
(dp2327
sg83
g2312
sg76
(lp2328
g69
(g70
g71
NtRp2329
(dp2330
g74
(dp2331
g82
I5
ssg83
g2325
sg76
(lp2332
S'datetime.datetime(2013, 1, 7, 21, 39, 3, 446658)'
p2333
asbasbasbag69
(g85
g71
NtRp2334
(dp2335
g74
(dp2336
sg83
g79
sg76
(lp2337
g69
(g90
g71
NtRp2338
(dp2339
g74
(dp2340
g94
g95
ssg83
g2334
sg76
(lp2341
S'uuid'
p2342
asbag69
(g90
g71
NtRp2343
(dp2344
g74
(dp2345
g101
g102
ssg83
g2334
sg76
(lp2346
S':'
asbag69
(g90
g71
NtRp2347
(dp2348
g74
(dp2349
sg83
g2334
sg76
(lp2350
g69
(g70
g71
NtRp2351
(dp2352
g74
(dp2353
g82
I5
ssg83
g2347
sg76
(lp2354
S'sueldos/127.0.0.1.2013-01-07.18-39-03.3bb7d237-8ed5-45f2-ab77-2c8f2e841e3b'
p2355
asbasbasbag69
(g85
g71
NtRp2356
(dp2357
g74
(dp2358
sg83
g79
sg76
(lp2359
g69
(g90
g71
NtRp2360
(dp2361
g74
(dp2362
g94
g95
ssg83
g2356
sg76
(lp2363
S'vars'
p2364
asbag69
(g90
g71
NtRp2365
(dp2366
g74
(dp2367
g101
g102
ssg83
g2356
sg76
(lp2368
S':'
asbag69
(g90
g71
NtRp2369
(dp2370
g74
(dp2371
sg83
g2356
sg76
(lp2372
g69
(g70
g71
NtRp2373
(dp2374
g74
(dp2375
g82
I5
ssg83
g2369
sg76
(lp2376
g69
(g78
g71
NtRp2377
(dp2378
g74
(dp2379
g82
I4
ssg83
Nsg76
(lp2380
sbasbasbasbag69
(g85
g71
NtRp2381
(dp2382
g74
(dp2383
sg83
g79
sg76
(lp2384
g69
(g90
g71
NtRp2385
(dp2386
g74
(dp2387
g94
g95
ssg83
g2381
sg76
(lp2388
S'wsgi'
p2389
asbag69
(g90
g71
NtRp2390
(dp2391
g74
(dp2392
g101
g102
ssg83
g2381
sg76
(lp2393
S':'
asbag69
(g90
g71
NtRp2394
(dp2395
g74
(dp2396
sg83
g2381
sg76
(lp2397
g69
(g70
g71
NtRp2398
(dp2399
g74
(dp2400
g82
I5
ssg83
g2394
sg76
(lp2401
g69
(g78
g71
NtRp2402
(dp2403
g74
(dp2404
g82
I4
ssg83
Nsg76
(lp2405
g69
(g85
g71
NtRp2406
(dp2407
g74
(dp2408
sg83
g2402
sg76
(lp2409
g69
(g90
g71
NtRp2410
(dp2411
g74
(dp2412
g94
g95
ssg83
g2406
sg76
(lp2413
S'environ'
p2414
asbag69
(g90
g71
NtRp2415
(dp2416
g74
(dp2417
g101
g102
ssg83
g2406
sg76
(lp2418
S':'
asbag69
(g90
g71
NtRp2419
(dp2420
g74
(dp2421
sg83
g2406
sg76
(lp2422
g69
(g70
g71
NtRp2423
(dp2424
g74
(dp2425
g82
I4
ssg83
g2419
sg76
(lp2426
g69
(g78
g71
NtRp2427
(dp2428
g74
(dp2429
g82
I3
ssg83
Nsg76
(lp2430
g69
(g85
g71
NtRp2431
(dp2432
g74
(dp2433
sg83
g2427
sg76
(lp2434
g69
(g90
g71
NtRp2435
(dp2436
g74
(dp2437
g94
g95
ssg83
g2431
sg76
(lp2438
S'HTTP_ACCEPT'
p2439
asbag69
(g90
g71
NtRp2440
(dp2441
g74
(dp2442
g101
g102
ssg83
g2431
sg76
(lp2443
S':'
asbag69
(g90
g71
NtRp2444
(dp2445
g74
(dp2446
sg83
g2431
sg76
(lp2447
g69
(g70
g71
NtRp2448
(dp2449
g74
(dp2450
g82
I3
ssg83
g2444
sg76
(lp2451
g854
asbasbasbag69
(g85
g71
NtRp2452
(dp2453
g74
(dp2454
sg83
g2427
sg76
(lp2455
g69
(g90
g71
NtRp2456
(dp2457
g74
(dp2458
g94
g95
ssg83
g2452
sg76
(lp2459
S'HTTP_ACCEPT_ENCODING'
p2460
asbag69
(g90
g71
NtRp2461
(dp2462
g74
(dp2463
g101
g102
ssg83
g2452
sg76
(lp2464
S':'
asbag69
(g90
g71
NtRp2465
(dp2466
g74
(dp2467
sg83
g2452
sg76
(lp2468
g69
(g70
g71
NtRp2469
(dp2470
g74
(dp2471
g82
I3
ssg83
g2465
sg76
(lp2472
g876
asbasbasbag69
(g85
g71
NtRp2473
(dp2474
g74
(dp2475
sg83
g2427
sg76
(lp2476
g69
(g90
g71
NtRp2477
(dp2478
g74
(dp2479
g94
g95
ssg83
g2473
sg76
(lp2480
S'HTTP_ACCEPT_LANGUAGE'
p2481
asbag69
(g90
g71
NtRp2482
(dp2483
g74
(dp2484
g101
g102
ssg83
g2473
sg76
(lp2485
S':'
asbag69
(g90
g71
NtRp2486
(dp2487
g74
(dp2488
sg83
g2473
sg76
(lp2489
g69
(g70
g71
NtRp2490
(dp2491
g74
(dp2492
g82
I3
ssg83
g2486
sg76
(lp2493
g898
asbasbasbag69
(g85
g71
NtRp2494
(dp2495
g74
(dp2496
sg83
g2427
sg76
(lp2497
g69
(g90
g71
NtRp2498
(dp2499
g74
(dp2500
g94
g95
ssg83
g2494
sg76
(lp2501
S'HTTP_CONNECTION'
p2502
asbag69
(g90
g71
NtRp2503
(dp2504
g74
(dp2505
g101
g102
ssg83
g2494
sg76
(lp2506
S':'
asbag69
(g90
g71
NtRp2507
(dp2508
g74
(dp2509
sg83
g2494
sg76
(lp2510
g69
(g70
g71
NtRp2511
(dp2512
g74
(dp2513
g82
I3
ssg83
g2507
sg76
(lp2514
g920
asbasbasbag69
(g85
g71
NtRp2515
(dp2516
g74
(dp2517
sg83
g2427
sg76
(lp2518
g69
(g90
g71
NtRp2519
(dp2520
g74
(dp2521
g94
g95
ssg83
g2515
sg76
(lp2522
S'HTTP_COOKIE'
p2523
asbag69
(g90
g71
NtRp2524
(dp2525
g74
(dp2526
g101
g102
ssg83
g2515
sg76
(lp2527
S':'
asbag69
(g90
g71
NtRp2528
(dp2529
g74
(dp2530
sg83
g2515
sg76
(lp2531
g69
(g70
g71
NtRp2532
(dp2533
g74
(dp2534
g82
I3
ssg83
g2528
sg76
(lp2535
g942
asbasbasbag69
(g85
g71
NtRp2536
(dp2537
g74
(dp2538
sg83
g2427
sg76
(lp2539
g69
(g90
g71
NtRp2540
(dp2541
g74
(dp2542
g94
g95
ssg83
g2536
sg76
(lp2543
S'HTTP_HOST'
p2544
asbag69
(g90
g71
NtRp2545
(dp2546
g74
(dp2547
g101
g102
ssg83
g2536
sg76
(lp2548
S':'
asbag69
(g90
g71
NtRp2549
(dp2550
g74
(dp2551
sg83
g2536
sg76
(lp2552
g69
(g70
g71
NtRp2553
(dp2554
g74
(dp2555
g82
I3
ssg83
g2549
sg76
(lp2556
g964
asbasbasbag69
(g85
g71
NtRp2557
(dp2558
g74
(dp2559
sg83
g2427
sg76
(lp2560
g69
(g90
g71
NtRp2561
(dp2562
g74
(dp2563
g94
g95
ssg83
g2557
sg76
(lp2564
S'HTTP_USER_AGENT'
p2565
asbag69
(g90
g71
NtRp2566
(dp2567
g74
(dp2568
g101
g102
ssg83
g2557
sg76
(lp2569
S':'
asbag69
(g90
g71
NtRp2570
(dp2571
g74
(dp2572
sg83
g2557
sg76
(lp2573
g69
(g70
g71
NtRp2574
(dp2575
g74
(dp2576
g82
I3
ssg83
g2570
sg76
(lp2577
g986
asbasbasbag69
(g85
g71
NtRp2578
(dp2579
g74
(dp2580
sg83
g2427
sg76
(lp2581
g69
(g90
g71
NtRp2582
(dp2583
g74
(dp2584
g94
g95
ssg83
g2578
sg76
(lp2585
S'PATH_INFO'
p2586
asbag69
(g90
g71
NtRp2587
(dp2588
g74
(dp2589
g101
g102
ssg83
g2578
sg76
(lp2590
S':'
asbag69
(g90
g71
NtRp2591
(dp2592
g74
(dp2593
sg83
g2578
sg76
(lp2594
g69
(g70
g71
NtRp2595
(dp2596
g74
(dp2597
g82
I3
ssg83
g2591
sg76
(lp2598
g1140
asbasbasbag69
(g85
g71
NtRp2599
(dp2600
g74
(dp2601
sg83
g2427
sg76
(lp2602
g69
(g90
g71
NtRp2603
(dp2604
g74
(dp2605
g94
g95
ssg83
g2599
sg76
(lp2606
S'QUERY_STRING'
p2607
asbag69
(g90
g71
NtRp2608
(dp2609
g74
(dp2610
g101
g102
ssg83
g2599
sg76
(lp2611
S':'
asbag69
(g90
g71
NtRp2612
(dp2613
g74
(dp2614
sg83
g2599
sg76
(lp2615
g69
(g70
g71
NtRp2616
(dp2617
g74
(dp2618
g82
I3
ssg83
g2612
sg76
(lp2619
S''
asbasbasbag69
(g85
g71
NtRp2620
(dp2621
g74
(dp2622
sg83
g2427
sg76
(lp2623
g69
(g90
g71
NtRp2624
(dp2625
g74
(dp2626
g94
g95
ssg83
g2620
sg76
(lp2627
S'REMOTE_ADDR'
p2628
asbag69
(g90
g71
NtRp2629
(dp2630
g74
(dp2631
g101
g102
ssg83
g2620
sg76
(lp2632
S':'
asbag69
(g90
g71
NtRp2633
(dp2634
g74
(dp2635
sg83
g2620
sg76
(lp2636
g69
(g70
g71
NtRp2637
(dp2638
g74
(dp2639
g82
I3
ssg83
g2633
sg76
(lp2640
g224
asbasbasbag69
(g85
g71
NtRp2641
(dp2642
g74
(dp2643
sg83
g2427
sg76
(lp2644
g69
(g90
g71
NtRp2645
(dp2646
g74
(dp2647
g94
g95
ssg83
g2641
sg76
(lp2648
S'REMOTE_PORT'
p2649
asbag69
(g90
g71
NtRp2650
(dp2651
g74
(dp2652
g101
g102
ssg83
g2641
sg76
(lp2653
S':'
asbag69
(g90
g71
NtRp2654
(dp2655
g74
(dp2656
sg83
g2641
sg76
(lp2657
g69
(g70
g71
NtRp2658
(dp2659
g74
(dp2660
g82
I3
ssg83
g2654
sg76
(lp2661
g1204
asbasbasbag69
(g85
g71
NtRp2662
(dp2663
g74
(dp2664
sg83
g2427
sg76
(lp2665
g69
(g90
g71
NtRp2666
(dp2667
g74
(dp2668
g94
g95
ssg83
g2662
sg76
(lp2669
S'REQUEST_METHOD'
p2670
asbag69
(g90
g71
NtRp2671
(dp2672
g74
(dp2673
g101
g102
ssg83
g2662
sg76
(lp2674
S':'
asbag69
(g90
g71
NtRp2675
(dp2676
g74
(dp2677
sg83
g2662
sg76
(lp2678
g69
(g70
g71
NtRp2679
(dp2680
g74
(dp2681
g82
I3
ssg83
g2675
sg76
(lp2682
g1226
asbasbasbag69
(g85
g71
NtRp2683
(dp2684
g74
(dp2685
sg83
g2427
sg76
(lp2686
g69
(g90
g71
NtRp2687
(dp2688
g74
(dp2689
g94
g95
ssg83
g2683
sg76
(lp2690
S'REQUEST_URI'
p2691
asbag69
(g90
g71
NtRp2692
(dp2693
g74
(dp2694
g101
g102
ssg83
g2683
sg76
(lp2695
S':'
asbag69
(g90
g71
NtRp2696
(dp2697
g74
(dp2698
sg83
g2683
sg76
(lp2699
g69
(g70
g71
NtRp2700
(dp2701
g74
(dp2702
g82
I3
ssg83
g2696
sg76
(lp2703
g1140
asbasbasbag69
(g85
g71
NtRp2704
(dp2705
g74
(dp2706
sg83
g2427
sg76
(lp2707
g69
(g90
g71
NtRp2708
(dp2709
g74
(dp2710
g94
g95
ssg83
g2704
sg76
(lp2711
S'SCRIPT_NAME'
p2712
asbag69
(g90
g71
NtRp2713
(dp2714
g74
(dp2715
g101
g102
ssg83
g2704
sg76
(lp2716
S':'
asbag69
(g90
g71
NtRp2717
(dp2718
g74
(dp2719
sg83
g2704
sg76
(lp2720
g69
(g70
g71
NtRp2721
(dp2722
g74
(dp2723
g82
I3
ssg83
g2717
sg76
(lp2724
S''
asbasbasbag69
(g85
g71
NtRp2725
(dp2726
g74
(dp2727
sg83
g2427
sg76
(lp2728
g69
(g90
g71
NtRp2729
(dp2730
g74
(dp2731
g94
g95
ssg83
g2725
sg76
(lp2732
S'SERVER_NAME'
p2733
asbag69
(g90
g71
NtRp2734
(dp2735
g74
(dp2736
g101
g102
ssg83
g2725
sg76
(lp2737
S':'
asbag69
(g90
g71
NtRp2738
(dp2739
g74
(dp2740
sg83
g2725
sg76
(lp2741
g69
(g70
g71
NtRp2742
(dp2743
g74
(dp2744
g82
I3
ssg83
g2738
sg76
(lp2745
g1290
asbasbasbag69
(g85
g71
NtRp2746
(dp2747
g74
(dp2748
sg83
g2427
sg76
(lp2749
g69
(g90
g71
NtRp2750
(dp2751
g74
(dp2752
g94
g95
ssg83
g2746
sg76
(lp2753
S'SERVER_PORT'
p2754
asbag69
(g90
g71
NtRp2755
(dp2756
g74
(dp2757
g101
g102
ssg83
g2746
sg76
(lp2758
S':'
asbag69
(g90
g71
NtRp2759
(dp2760
g74
(dp2761
sg83
g2746
sg76
(lp2762
g69
(g70
g71
NtRp2763
(dp2764
g74
(dp2765
g82
I3
ssg83
g2759
sg76
(lp2766
g1312
asbasbasbag69
(g85
g71
NtRp2767
(dp2768
g74
(dp2769
sg83
g2427
sg76
(lp2770
g69
(g90
g71
NtRp2771
(dp2772
g74
(dp2773
g94
g95
ssg83
g2767
sg76
(lp2774
S'SERVER_PROTOCOL'
p2775
asbag69
(g90
g71
NtRp2776
(dp2777
g74
(dp2778
g101
g102
ssg83
g2767
sg76
(lp2779
S':'
asbag69
(g90
g71
NtRp2780
(dp2781
g74
(dp2782
sg83
g2767
sg76
(lp2783
g69
(g70
g71
NtRp2784
(dp2785
g74
(dp2786
g82
I3
ssg83
g2780
sg76
(lp2787
g1334
asbasbasbag69
(g85
g71
NtRp2788
(dp2789
g74
(dp2790
sg83
g2427
sg76
(lp2791
g69
(g90
g71
NtRp2792
(dp2793
g74
(dp2794
g94
g95
ssg83
g2788
sg76
(lp2795
S'SERVER_SOFTWARE'
p2796
asbag69
(g90
g71
NtRp2797
(dp2798
g74
(dp2799
g101
g102
ssg83
g2788
sg76
(lp2800
S':'
asbag69
(g90
g71
NtRp2801
(dp2802
g74
(dp2803
sg83
g2788
sg76
(lp2804
g69
(g70
g71
NtRp2805
(dp2806
g74
(dp2807
g82
I3
ssg83
g2801
sg76
(lp2808
g1356
asbasbasbag69
(g85
g71
NtRp2809
(dp2810
g74
(dp2811
sg83
g2427
sg76
(lp2812
g69
(g90
g71
NtRp2813
(dp2814
g74
(dp2815
g94
g95
ssg83
g2809
sg76
(lp2816
S'wsgi.errors'
p2817
asbag69
(g90
g71
NtRp2818
(dp2819
g74
(dp2820
g101
g102
ssg83
g2809
sg76
(lp2821
S':'
asbag69
(g90
g71
NtRp2822
(dp2823
g74
(dp2824
sg83
g2809
sg76
(lp2825
g69
(g70
g71
NtRp2826
(dp2827
g74
(dp2828
g82
I3
ssg83
g2822
sg76
(lp2829
S"<open file '<stderr>', mode 'w' at 0x7f7f1f45b270>"
p2830
asbasbasbag69
(g85
g71
NtRp2831
(dp2832
g74
(dp2833
sg83
g2427
sg76
(lp2834
g69
(g90
g71
NtRp2835
(dp2836
g74
(dp2837
g94
g95
ssg83
g2831
sg76
(lp2838
S'wsgi.file_wrapper'
p2839
asbag69
(g90
g71
NtRp2840
(dp2841
g74
(dp2842
g101
g102
ssg83
g2831
sg76
(lp2843
S':'
asbag69
(g90
g71
NtRp2844
(dp2845
g74
(dp2846
sg83
g2831
sg76
(lp2847
g69
(g70
g71
NtRp2848
(dp2849
g74
(dp2850
g82
I3
ssg83
g2844
sg76
(lp2851
S'<class wsgiref.util.FileWrapper at 0x18a3c80>'
p2852
asbasbasbag69
(g85
g71
NtRp2853
(dp2854
g74
(dp2855
sg83
g2427
sg76
(lp2856
g69
(g90
g71
NtRp2857
(dp2858
g74
(dp2859
g94
g95
ssg83
g2853
sg76
(lp2860
S'wsgi.input'
p2861
asbag69
(g90
g71
NtRp2862
(dp2863
g74
(dp2864
g101
g102
ssg83
g2853
sg76
(lp2865
S':'
asbag69
(g90
g71
NtRp2866
(dp2867
g74
(dp2868
sg83
g2853
sg76
(lp2869
g69
(g70
g71
NtRp2870
(dp2871
g74
(dp2872
g82
I3
ssg83
g2866
sg76
(lp2873
S'<cStringIO.StringO object at 0x2085d18>'
p2874
asbasbasbag69
(g85
g71
NtRp2875
(dp2876
g74
(dp2877
sg83
g2427
sg76
(lp2878
g69
(g90
g71
NtRp2879
(dp2880
g74
(dp2881
g94
g95
ssg83
g2875
sg76
(lp2882
S'wsgi.multiprocess'
p2883
asbag69
(g90
g71
NtRp2884
(dp2885
g74
(dp2886
g101
g102
ssg83
g2875
sg76
(lp2887
S':'
asbag69
(g90
g71
NtRp2888
(dp2889
g74
(dp2890
sg83
g2875
sg76
(lp2891
g69
(g70
g71
NtRp2892
(dp2893
g74
(dp2894
g82
I3
ssg83
g2888
sg76
(lp2895
g112
asbasbasbag69
(g85
g71
NtRp2896
(dp2897
g74
(dp2898
sg83
g2427
sg76
(lp2899
g69
(g90
g71
NtRp2900
(dp2901
g74
(dp2902
g94
g95
ssg83
g2896
sg76
(lp2903
S'wsgi.multithread'
p2904
asbag69
(g90
g71
NtRp2905
(dp2906
g74
(dp2907
g101
g102
ssg83
g2896
sg76
(lp2908
S':'
asbag69
(g90
g71
NtRp2909
(dp2910
g74
(dp2911
sg83
g2896
sg76
(lp2912
g69
(g70
g71
NtRp2913
(dp2914
g74
(dp2915
g82
I3
ssg83
g2909
sg76
(lp2916
g1573
asbasbasbag69
(g85
g71
NtRp2917
(dp2918
g74
(dp2919
sg83
g2427
sg76
(lp2920
g69
(g90
g71
NtRp2921
(dp2922
g74
(dp2923
g94
g95
ssg83
g2917
sg76
(lp2924
S'wsgi.run_once'
p2925
asbag69
(g90
g71
NtRp2926
(dp2927
g74
(dp2928
g101
g102
ssg83
g2917
sg76
(lp2929
S':'
asbag69
(g90
g71
NtRp2930
(dp2931
g74
(dp2932
sg83
g2917
sg76
(lp2933
g69
(g70
g71
NtRp2934
(dp2935
g74
(dp2936
g82
I3
ssg83
g2930
sg76
(lp2937
g112
asbasbasbag69
(g85
g71
NtRp2938
(dp2939
g74
(dp2940
sg83
g2427
sg76
(lp2941
g69
(g90
g71
NtRp2942
(dp2943
g74
(dp2944
g94
g95
ssg83
g2938
sg76
(lp2945
S'wsgi.url_scheme'
p2946
asbag69
(g90
g71
NtRp2947
(dp2948
g74
(dp2949
g101
g102
ssg83
g2938
sg76
(lp2950
S':'
asbag69
(g90
g71
NtRp2951
(dp2952
g74
(dp2953
sg83
g2938
sg76
(lp2954
g69
(g70
g71
NtRp2955
(dp2956
g74
(dp2957
g82
I3
ssg83
g2951
sg76
(lp2958
g1616
asbasbasbag69
(g85
g71
NtRp2959
(dp2960
g74
(dp2961
sg83
g2427
sg76
(lp2962
g69
(g90
g71
NtRp2963
(dp2964
g74
(dp2965
g94
g95
ssg83
g2959
sg76
(lp2966
S'wsgi.version'
p2967
asbag69
(g90
g71
NtRp2968
(dp2969
g74
(dp2970
g101
g102
ssg83
g2959
sg76
(lp2971
S':'
asbag69
(g90
g71
NtRp2972
(dp2973
g74
(dp2974
sg83
g2959
sg76
(lp2975
g69
(g70
g71
NtRp2976
(dp2977
g74
(dp2978
g82
I3
ssg83
g2972
sg76
(lp2979
S'1'
asbasbasbasbasbasbasbasbasbasbasbasbasbsS'frames'
p2980
(lp2981
(dp2982
S'file'
p2983
S'/home/marco/projects/contabilidad/web2py/gluon/restricted.py'
p2984
sS'dump'
p2985
(dp2986
S'code'
p2987
S"'# -*- coding: utf-8 -*-\\n# this file is released ...=crud())\\n\\nresponse._vars=response._caller(index)\\n'"
p2988
sS'layer'
p2989
S"'/home/marco/projects/contabilidad/web2py/applications/sueldos/controllers/default.py'"
p2990
sS'global compile2'
p2991
S'<function compile2>'
p2992
sS'ccode'
p2993
S'undefined'
p2994
ssS'lnum'
p2995
I211
sS'lines'
p2996
(dp2997
I206
S"    environment['__name__'] = '__restricted__'"
p2998
sI207
S'    try:'
p2999
sI208
S'        if isinstance(code, types.CodeType):'
p3000
sI209
S'            ccode = code'
p3001
sI210
S'        else:'
p3002
sI211
S'            ccode = compile2(code, layer)'
p3003
sI212
S'        exec ccode in environment'
p3004
sI213
S'    except HTTP:'
p3005
sI214
S'        raise'
p3006
sI215
S'    except RestrictedError:'
p3007
ssS'call'
p3008
S"(code='# -*- coding: utf-8 -*-\\n# this file is released ...=crud())\\n\\nresponse._vars=response._caller(index)\\n', environment={'A': <class 'gluon.html.A'>, 'Auth': <class 'gluon.tools.Auth'>, 'B': <class 'gluon.html.B'>, 'BEAUTIFY': <class 'gluon.html.BEAUTIFY'>, 'BODY': <class 'gluon.html.BODY'>, 'BR': <class 'gluon.html.BR'>, 'BUTTON': <class 'gluon.html.BUTTON'>, 'CAT': <class 'gluon.html.CAT'>, 'CENTER': <class 'gluon.html.CENTER'>, 'CLEANUP': <class 'gluon.validators.CLEANUP'>, ...}, layer='/home/marco/projects/contabilidad/web2py/applications/sueldos/controllers/default.py')"
p3009
sS'func'
p3010
S'restricted'
p3011
sa(dp3012
g2983
S'/home/marco/projects/contabilidad/web2py/gluon/restricted.py'
p3013
sg2985
(dp3014
S'builtincompile'
p3015
S'<built-in function compile>'
p3016
sS'code'
p3017
S"'# -*- coding: utf-8 -*-\\n# this file is released ...=crud())\\n\\nresponse._vars=response._caller(index)\\n'"
p3018
sS'code.rstrip'
p3019
S'<built-in method rstrip of str object>'
p3020
sS').replace'
p3021
g2994
sS'layer'
p3022
S"'/home/marco/projects/contabilidad/web2py/applications/sueldos/controllers/default.py'"
p3023
ssg2995
I194
sg2996
(dp3024
I192
S"    The +'\\n' is necessary else compile fails when code ends in a comment."
p3025
sI193
S'    """'
p3026
sI194
S"    return compile(code.rstrip().replace('\\r\\n', '\\n') + '\\n', layer, 'exec')"
p3027
sI195
S''
sI196
S''
sI197
S"def restricted(code, environment=None, layer='Unknown'):"
p3028
sI198
S'    """'
p3029
sI189
S''
sI190
S'def compile2(code, layer):'
p3030
sI191
S'    """'
p3031
ssg3008
S"(code='# -*- coding: utf-8 -*-\\n# this file is released ...=crud())\\n\\nresponse._vars=response._caller(index)\\n', layer='/home/marco/projects/contabilidad/web2py/applications/sueldos/controllers/default.py')"
p3032
sg3010
S'compile2'
p3033
sasS'pyver'
p3034
S'Python 2.7.3: /usr/bin/python'
p3035
sS'session'
p3036
g69
(g70
g71
NtRp3037
(dp3038
g74
(dp3039
sg76
(lp3040
g69
(g78
g71
NtRp3041
(dp3042
g74
(dp3043
g82
I5
ssg83
Nsg76
(lp3044
g69
(g85
g71
NtRp3045
(dp3046
g74
(dp3047
sg83
g3041
sg76
(lp3048
g69
(g90
g71
NtRp3049
(dp3050
g74
(dp3051
g94
g95
ssg83
g3045
sg76
(lp3052
S'flash'
p3053
asbag69
(g90
g71
NtRp3054
(dp3055
g74
(dp3056
g101
g102
ssg83
g3045
sg76
(lp3057
S':'
asbag69
(g90
g71
NtRp3058
(dp3059
g74
(dp3060
sg83
g3045
sg76
(lp3061
g69
(g70
g71
NtRp3062
(dp3063
g74
(dp3064
g82
I5
ssg83
g3058
sg76
(lp3065
S'None'
p3066
asbasbasbasbasbsS'etype'
p3067
S"<type 'exceptions.SyntaxError'>"
p3068
sS'date'
p3069
S'Mon Jan  7 18:39:03 2013'
p3070
sS'response'
p3071
g69
(g70
g71
NtRp3072
(dp3073
g74
(dp3074
sg76
(lp3075
g69
(g78
g71
NtRp3076
(dp3077
g74
(dp3078
g82
I5
ssg83
Nsg76
(lp3079
g69
(g85
g71
NtRp3080
(dp3081
g74
(dp3082
sg83
g3076
sg76
(lp3083
g69
(g90
g71
NtRp3084
(dp3085
g74
(dp3086
g94
g95
ssg83
g3080
sg76
(lp3087
g167
asbag69
(g90
g71
NtRp3088
(dp3089
g74
(dp3090
g101
g102
ssg83
g3080
sg76
(lp3091
S':'
asbag69
(g90
g71
NtRp3092
(dp3093
g74
(dp3094
sg83
g3080
sg76
(lp3095
g69
(g70
g71
NtRp3096
(dp3097
g74
(dp3098
g82
I5
ssg83
g3092
sg76
(lp3099
S'<cStringIO.StringO object at 0x1c98928>'
p3100
asbasbasbag69
(g85
g71
NtRp3101
(dp3102
g74
(dp3103
sg83
g3076
sg76
(lp3104
g69
(g90
g71
NtRp3105
(dp3106
g74
(dp3107
g94
g95
ssg83
g3101
sg76
(lp3108
g255
asbag69
(g90
g71
NtRp3109
(dp3110
g74
(dp3111
g101
g102
ssg83
g3101
sg76
(lp3112
S':'
asbag69
(g90
g71
NtRp3113
(dp3114
g74
(dp3115
sg83
g3101
sg76
(lp3116
g69
(g70
g71
NtRp3117
(dp3118
g74
(dp3119
g82
I5
ssg83
g3113
sg76
(lp3120
g69
(g78
g71
NtRp3121
(dp3122
g74
(dp3123
g82
I4
ssg83
Nsg76
(lp3124
g69
(g85
g71
NtRp3125
(dp3126
g74
(dp3127
sg83
g3121
sg76
(lp3128
g69
(g90
g71
NtRp3129
(dp3130
g74
(dp3131
g94
g95
ssg83
g3125
sg76
(lp3132
S'session_id_sueldos'
p3133
asbag69
(g90
g71
NtRp3134
(dp3135
g74
(dp3136
g101
g102
ssg83
g3125
sg76
(lp3137
S':'
asbag69
(g90
g71
NtRp3138
(dp3139
g74
(dp3140
sg83
g3125
sg76
(lp3141
g69
(g70
g71
NtRp3142
(dp3143
g74
(dp3144
g82
I4
ssg83
g3138
sg76
(lp3145
g487
ag69
(g78
g71
NtRp3146
(dp3147
g74
(dp3148
g82
I3
ssg83
Nsg76
(lp3149
g69
(g85
g71
NtRp3150
(dp3151
g74
(dp3152
sg83
g3146
sg76
(lp3153
g69
(g90
g71
NtRp3154
(dp3155
g74
(dp3156
g94
g95
ssg83
g3150
sg76
(lp3157
g306
asbag69
(g90
g71
NtRp3158
(dp3159
g74
(dp3160
g101
g102
ssg83
g3150
sg76
(lp3161
S':'
asbag69
(g90
g71
NtRp3162
(dp3163
g74
(dp3164
sg83
g3150
sg76
(lp3165
g69
(g70
g71
NtRp3166
(dp3167
g74
(dp3168
g82
I3
ssg83
g3162
sg76
(lp3169
S''
asbasbasbag69
(g85
g71
NtRp3170
(dp3171
g74
(dp3172
sg83
g3146
sg76
(lp3173
g69
(g90
g71
NtRp3174
(dp3175
g74
(dp3176
g94
g95
ssg83
g3170
sg76
(lp3177
g327
asbag69
(g90
g71
NtRp3178
(dp3179
g74
(dp3180
g101
g102
ssg83
g3170
sg76
(lp3181
S':'
asbag69
(g90
g71
NtRp3182
(dp3183
g74
(dp3184
sg83
g3170
sg76
(lp3185
g69
(g70
g71
NtRp3186
(dp3187
g74
(dp3188
g82
I3
ssg83
g3182
sg76
(lp3189
S''
asbasbasbag69
(g85
g71
NtRp3190
(dp3191
g74
(dp3192
sg83
g3146
sg76
(lp3193
g69
(g90
g71
NtRp3194
(dp3195
g74
(dp3196
g94
g95
ssg83
g3190
sg76
(lp3197
g348
asbag69
(g90
g71
NtRp3198
(dp3199
g74
(dp3200
g101
g102
ssg83
g3190
sg76
(lp3201
S':'
asbag69
(g90
g71
NtRp3202
(dp3203
g74
(dp3204
sg83
g3190
sg76
(lp3205
g69
(g70
g71
NtRp3206
(dp3207
g74
(dp3208
g82
I3
ssg83
g3202
sg76
(lp3209
S''
asbasbasbag69
(g85
g71
NtRp3210
(dp3211
g74
(dp3212
sg83
g3146
sg76
(lp3213
g69
(g90
g71
NtRp3214
(dp3215
g74
(dp3216
g94
g95
ssg83
g3210
sg76
(lp3217
g369
asbag69
(g90
g71
NtRp3218
(dp3219
g74
(dp3220
g101
g102
ssg83
g3210
sg76
(lp3221
S':'
asbag69
(g90
g71
NtRp3222
(dp3223
g74
(dp3224
sg83
g3210
sg76
(lp3225
g69
(g70
g71
NtRp3226
(dp3227
g74
(dp3228
g82
I3
ssg83
g3222
sg76
(lp3229
S''
asbasbasbag69
(g85
g71
NtRp3230
(dp3231
g74
(dp3232
sg83
g3146
sg76
(lp3233
g69
(g90
g71
NtRp3234
(dp3235
g74
(dp3236
g94
g95
ssg83
g3230
sg76
(lp3237
g390
asbag69
(g90
g71
NtRp3238
(dp3239
g74
(dp3240
g101
g102
ssg83
g3230
sg76
(lp3241
S':'
asbag69
(g90
g71
NtRp3242
(dp3243
g74
(dp3244
sg83
g3230
sg76
(lp3245
g69
(g70
g71
NtRp3246
(dp3247
g74
(dp3248
g82
I3
ssg83
g3242
sg76
(lp3249
S''
asbasbasbag69
(g85
g71
NtRp3250
(dp3251
g74
(dp3252
sg83
g3146
sg76
(lp3253
g69
(g90
g71
NtRp3254
(dp3255
g74
(dp3256
g94
g95
ssg83
g3250
sg76
(lp3257
g411
asbag69
(g90
g71
NtRp3258
(dp3259
g74
(dp3260
g101
g102
ssg83
g3250
sg76
(lp3261
S':'
asbag69
(g90
g71
NtRp3262
(dp3263
g74
(dp3264
sg83
g3250
sg76
(lp3265
g69
(g70
g71
NtRp3266
(dp3267
g74
(dp3268
g82
I3
ssg83
g3262
sg76
(lp3269
S'/'
asbasbasbag69
(g85
g71
NtRp3270
(dp3271
g74
(dp3272
sg83
g3146
sg76
(lp3273
g69
(g90
g71
NtRp3274
(dp3275
g74
(dp3276
g94
g95
ssg83
g3270
sg76
(lp3277
g432
asbag69
(g90
g71
NtRp3278
(dp3279
g74
(dp3280
g101
g102
ssg83
g3270
sg76
(lp3281
S':'
asbag69
(g90
g71
NtRp3282
(dp3283
g74
(dp3284
sg83
g3270
sg76
(lp3285
g69
(g70
g71
NtRp3286
(dp3287
g74
(dp3288
g82
I3
ssg83
g3282
sg76
(lp3289
S''
asbasbasbag69
(g85
g71
NtRp3290
(dp3291
g74
(dp3292
sg83
g3146
sg76
(lp3293
g69
(g90
g71
NtRp3294
(dp3295
g74
(dp3296
g94
g95
ssg83
g3290
sg76
(lp3297
g453
asbag69
(g90
g71
NtRp3298
(dp3299
g74
(dp3300
g101
g102
ssg83
g3290
sg76
(lp3301
S':'
asbag69
(g90
g71
NtRp3302
(dp3303
g74
(dp3304
sg83
g3290
sg76
(lp3305
g69
(g70
g71
NtRp3306
(dp3307
g74
(dp3308
g82
I3
ssg83
g3302
sg76
(lp3309
S''
asbasbasbasbasbasbasbasbasbasbasbag69
(g85
g71
NtRp3310
(dp3311
g74
(dp3312
sg83
g3076
sg76
(lp3313
g69
(g90
g71
NtRp3314
(dp3315
g74
(dp3316
g94
g95
ssg83
g3310
sg76
(lp3317
S'delimiters'
p3318
asbag69
(g90
g71
NtRp3319
(dp3320
g74
(dp3321
g101
g102
ssg83
g3310
sg76
(lp3322
S':'
asbag69
(g90
g71
NtRp3323
(dp3324
g74
(dp3325
sg83
g3310
sg76
(lp3326
g69
(g70
g71
NtRp3327
(dp3328
g74
(dp3329
g82
I5
ssg83
g3323
sg76
(lp3330
g69
(g78
g71
NtRp3331
(dp3332
g74
(dp3333
g82
I4
ssg83
Nsg76
(lp3334
g69
(g85
g71
NtRp3335
(dp3336
g74
(dp3337
sg83
g3331
sg76
(lp3338
g69
(g90
g71
NtRp3339
(dp3340
g74
(dp3341
sg83
g3335
sg76
(lp3342
g69
(g70
g71
NtRp3343
(dp3344
g74
(dp3345
g82
I4
ssg83
g3339
sg76
(lp3346
S'{{'
p3347
asbasbasbag69
(g85
g71
NtRp3348
(dp3349
g74
(dp3350
sg83
g3331
sg76
(lp3351
g69
(g90
g71
NtRp3352
(dp3353
g74
(dp3354
sg83
g3348
sg76
(lp3355
g69
(g70
g71
NtRp3356
(dp3357
g74
(dp3358
g82
I4
ssg83
g3352
sg76
(lp3359
S'}}'
p3360
asbasbasbasbasbasbasbag69
(g85
g71
NtRp3361
(dp3362
g74
(dp3363
sg83
g3076
sg76
(lp3364
g69
(g90
g71
NtRp3365
(dp3366
g74
(dp3367
g94
g95
ssg83
g3361
sg76
(lp3368
S'files'
p3369
asbag69
(g90
g71
NtRp3370
(dp3371
g74
(dp3372
g101
g102
ssg83
g3361
sg76
(lp3373
S':'
asbag69
(g90
g71
NtRp3374
(dp3375
g74
(dp3376
sg83
g3361
sg76
(lp3377
g69
(g70
g71
NtRp3378
(dp3379
g74
(dp3380
g82
I5
ssg83
g3374
sg76
(lp3381
g69
(g78
g71
NtRp3382
(dp3383
g74
(dp3384
g82
I4
ssg83
Nsg76
(lp3385
sbasbasbasbag69
(g85
g71
NtRp3386
(dp3387
g74
(dp3388
sg83
g3076
sg76
(lp3389
g69
(g90
g71
NtRp3390
(dp3391
g74
(dp3392
g94
g95
ssg83
g3386
sg76
(lp3393
S'flash'
p3394
asbag69
(g90
g71
NtRp3395
(dp3396
g74
(dp3397
g101
g102
ssg83
g3386
sg76
(lp3398
S':'
asbag69
(g90
g71
NtRp3399
(dp3400
g74
(dp3401
sg83
g3386
sg76
(lp3402
g69
(g70
g71
NtRp3403
(dp3404
g74
(dp3405
g82
I5
ssg83
g3399
sg76
(lp3406
S''
asbasbasbag69
(g85
g71
NtRp3407
(dp3408
g74
(dp3409
sg83
g3076
sg76
(lp3410
g69
(g90
g71
NtRp3411
(dp3412
g74
(dp3413
g94
g95
ssg83
g3407
sg76
(lp3414
S'generic_patterns'
p3415
asbag69
(g90
g71
NtRp3416
(dp3417
g74
(dp3418
g101
g102
ssg83
g3407
sg76
(lp3419
S':'
asbag69
(g90
g71
NtRp3420
(dp3421
g74
(dp3422
sg83
g3407
sg76
(lp3423
g69
(g70
g71
NtRp3424
(dp3425
g74
(dp3426
g82
I5
ssg83
g3420
sg76
(lp3427
g69
(g78
g71
NtRp3428
(dp3429
g74
(dp3430
g82
I4
ssg83
Nsg76
(lp3431
g69
(g85
g71
NtRp3432
(dp3433
g74
(dp3434
sg83
g3428
sg76
(lp3435
g69
(g90
g71
NtRp3436
(dp3437
g74
(dp3438
sg83
g3432
sg76
(lp3439
g69
(g70
g71
NtRp3440
(dp3441
g74
(dp3442
g82
I4
ssg83
g3436
sg76
(lp3443
S'*'
asbasbasbasbasbasbasbag69
(g85
g71
NtRp3444
(dp3445
g74
(dp3446
sg83
g3076
sg76
(lp3447
g69
(g90
g71
NtRp3448
(dp3449
g74
(dp3450
g94
g95
ssg83
g3444
sg76
(lp3451
S'google_analytics_id'
p3452
asbag69
(g90
g71
NtRp3453
(dp3454
g74
(dp3455
g101
g102
ssg83
g3444
sg76
(lp3456
S':'
asbag69
(g90
g71
NtRp3457
(dp3458
g74
(dp3459
sg83
g3444
sg76
(lp3460
g69
(g70
g71
NtRp3461
(dp3462
g74
(dp3463
g82
I5
ssg83
g3457
sg76
(lp3464
S'None'
p3465
asbasbasbag69
(g85
g71
NtRp3466
(dp3467
g74
(dp3468
sg83
g3076
sg76
(lp3469
g69
(g90
g71
NtRp3470
(dp3471
g74
(dp3472
g94
g95
ssg83
g3466
sg76
(lp3473
S'headers'
p3474
asbag69
(g90
g71
NtRp3475
(dp3476
g74
(dp3477
g101
g102
ssg83
g3466
sg76
(lp3478
S':'
asbag69
(g90
g71
NtRp3479
(dp3480
g74
(dp3481
sg83
g3466
sg76
(lp3482
g69
(g70
g71
NtRp3483
(dp3484
g74
(dp3485
g82
I5
ssg83
g3479
sg76
(lp3486
g69
(g78
g71
NtRp3487
(dp3488
g74
(dp3489
g82
I4
ssg83
Nsg76
(lp3490
g69
(g85
g71
NtRp3491
(dp3492
g74
(dp3493
sg83
g3487
sg76
(lp3494
g69
(g90
g71
NtRp3495
(dp3496
g74
(dp3497
g94
g95
ssg83
g3491
sg76
(lp3498
S'X-Powered-By'
p3499
asbag69
(g90
g71
NtRp3500
(dp3501
g74
(dp3502
g101
g102
ssg83
g3491
sg76
(lp3503
S':'
asbag69
(g90
g71
NtRp3504
(dp3505
g74
(dp3506
sg83
g3491
sg76
(lp3507
g69
(g70
g71
NtRp3508
(dp3509
g74
(dp3510
g82
I4
ssg83
g3504
sg76
(lp3511
S'web2py'
p3512
asbasbasbasbasbasbasbag69
(g85
g71
NtRp3513
(dp3514
g74
(dp3515
sg83
g3076
sg76
(lp3516
g69
(g90
g71
NtRp3517
(dp3518
g74
(dp3519
g94
g95
ssg83
g3513
sg76
(lp3520
S'menu'
p3521
asbag69
(g90
g71
NtRp3522
(dp3523
g74
(dp3524
g101
g102
ssg83
g3513
sg76
(lp3525
S':'
asbag69
(g90
g71
NtRp3526
(dp3527
g74
(dp3528
sg83
g3513
sg76
(lp3529
g69
(g70
g71
NtRp3530
(dp3531
g74
(dp3532
g82
I5
ssg83
g3526
sg76
(lp3533
g69
(g78
g71
NtRp3534
(dp3535
g74
(dp3536
g82
I4
ssg83
Nsg76
(lp3537
g69
(g85
g71
NtRp3538
(dp3539
g74
(dp3540
sg83
g3534
sg76
(lp3541
g69
(g90
g71
NtRp3542
(dp3543
g74
(dp3544
sg83
g3538
sg76
(lp3545
g69
(g70
g71
NtRp3546
(dp3547
g74
(dp3548
g82
I4
ssg83
g3542
sg76
(lp3549
g69
(g78
g71
NtRp3550
(dp3551
g74
(dp3552
g82
I3
ssg83
Nsg76
(lp3553
g69
(g85
g71
NtRp3554
(dp3555
g74
(dp3556
sg83
g3550
sg76
(lp3557
g69
(g90
g71
NtRp3558
(dp3559
g74
(dp3560
sg83
g3554
sg76
(lp3561
g69
(g70
g71
NtRp3562
(dp3563
g74
(dp3564
g82
I3
ssg83
g3558
sg76
(lp3565
cgluon.languages
lazyT_unpickle
p3566
(S's\x04\x00\x00\x00Home'
tRp3567
asbasbasbag69
(g85
g71
NtRp3568
(dp3569
g74
(dp3570
sg83
g3550
sg76
(lp3571
g69
(g90
g71
NtRp3572
(dp3573
g74
(dp3574
sg83
g3568
sg76
(lp3575
g69
(g70
g71
NtRp3576
(dp3577
g74
(dp3578
g82
I3
ssg83
g3572
sg76
(lp3579
g112
asbasbasbag69
(g85
g71
NtRp3580
(dp3581
g74
(dp3582
sg83
g3550
sg76
(lp3583
g69
(g90
g71
NtRp3584
(dp3585
g74
(dp3586
sg83
g3580
sg76
(lp3587
g69
(g70
g71
NtRp3588
(dp3589
g74
(dp3590
g82
I3
ssg83
g3584
sg76
(lp3591
S'/sueldos/default/index'
p3592
asbasbasbag69
(g85
g71
NtRp3593
(dp3594
g74
(dp3595
sg83
g3550
sg76
(lp3596
g69
(g90
g71
NtRp3597
(dp3598
g74
(dp3599
sg83
g3593
sg76
(lp3600
g69
(g70
g71
NtRp3601
(dp3602
g74
(dp3603
g82
I3
ssg83
g3597
sg76
(lp3604
g69
(g78
g71
NtRp3605
(dp3606
g74
(dp3607
g82
I2
ssg83
Nsg76
(lp3608
sbasbasbasbasbasbasbasbag69
(g85
g71
NtRp3609
(dp3610
g74
(dp3611
sg83
g3534
sg76
(lp3612
g69
(g90
g71
NtRp3613
(dp3614
g74
(dp3615
sg83
g3609
sg76
(lp3616
g69
(g70
g71
NtRp3617
(dp3618
g74
(dp3619
g82
I4
ssg83
g3613
sg76
(lp3620
g69
(g78
g71
NtRp3621
(dp3622
g74
(dp3623
g82
I3
ssg83
Nsg76
(lp3624
g69
(g85
g71
NtRp3625
(dp3626
g74
(dp3627
sg83
g3621
sg76
(lp3628
g69
(g90
g71
NtRp3629
(dp3630
g74
(dp3631
sg83
g3625
sg76
(lp3632
g69
(g70
g71
NtRp3633
(dp3634
g74
(dp3635
g82
I3
ssg83
g3629
sg76
(lp3636
g69
(cgluon.html
SPAN
p3637
g71
NtRp3638
(dp3639
g74
(dp3640
S'_class'
p3641
S'highlighted'
p3642
ssg83
Nsg76
(lp3643
g3512
asbasbasbasbag69
(g85
g71
NtRp3644
(dp3645
g74
(dp3646
sg83
g3621
sg76
(lp3647
g69
(g90
g71
NtRp3648
(dp3649
g74
(dp3650
sg83
g3644
sg76
(lp3651
g69
(g70
g71
NtRp3652
(dp3653
g74
(dp3654
g82
I3
ssg83
g3648
sg76
(lp3655
g112
asbasbasbag69
(g85
g71
NtRp3656
(dp3657
g74
(dp3658
sg83
g3621
sg76
(lp3659
g69
(g90
g71
NtRp3660
(dp3661
g74
(dp3662
sg83
g3656
sg76
(lp3663
g69
(g70
g71
NtRp3664
(dp3665
g74
(dp3666
g82
I3
ssg83
g3660
sg76
(lp3667
S'http://web2py.com'
p3668
asbasbasbag69
(g85
g71
NtRp3669
(dp3670
g74
(dp3671
sg83
g3621
sg76
(lp3672
g69
(g90
g71
NtRp3673
(dp3674
g74
(dp3675
sg83
g3669
sg76
(lp3676
g69
(g70
g71
NtRp3677
(dp3678
g74
(dp3679
g82
I3
ssg83
g3673
sg76
(lp3680
g69
(g78
g71
NtRp3681
(dp3682
g74
(dp3683
g82
I2
ssg83
Nsg76
(lp3684
g69
(g85
g71
NtRp3685
(dp3686
g74
(dp3687
sg83
g3681
sg76
(lp3688
g69
(g90
g71
NtRp3689
(dp3690
g74
(dp3691
sg83
g3685
sg76
(lp3692
g69
(g70
g71
NtRp3693
(dp3694
g74
(dp3695
g82
I2
ssg83
g3689
sg76
(lp3696
g69
(g78
g71
NtRp3697
(dp3698
g74
(dp3699
g82
I1
ssg83
Nsg76
(lp3700
g69
(g85
g71
NtRp3701
(dp3702
g74
(dp3703
sg83
g3697
sg76
(lp3704
g69
(g90
g71
NtRp3705
(dp3706
g74
(dp3707
sg83
g3701
sg76
(lp3708
g69
(g70
g71
NtRp3709
(dp3710
g74
(dp3711
g82
I1
ssg83
g3705
sg76
(lp3712
g3566
(S's\x08\x00\x00\x00My Sites'
tRp3713
asbasbasbag69
(g85
g71
NtRp3714
(dp3715
g74
(dp3716
sg83
g3697
sg76
(lp3717
g69
(g90
g71
NtRp3718
(dp3719
g74
(dp3720
sg83
g3714
sg76
(lp3721
g69
(g70
g71
NtRp3722
(dp3723
g74
(dp3724
g82
I1
ssg83
g3718
sg76
(lp3725
I00
asbasbasbag69
(g85
g71
NtRp3726
(dp3727
g74
(dp3728
sg83
g3697
sg76
(lp3729
g69
(g90
g71
NtRp3730
(dp3731
g74
(dp3732
sg83
g3726
sg76
(lp3733
g69
(g70
g71
NtRp3734
(dp3735
g74
(dp3736
g82
I1
ssg83
g3730
sg76
(lp3737
S'/admin/default/site'
p3738
asbasbasbasbasbasbasbag69
(g85
g71
NtRp3739
(dp3740
g74
(dp3741
sg83
g3681
sg76
(lp3742
g69
(g90
g71
NtRp3743
(dp3744
g74
(dp3745
sg83
g3739
sg76
(lp3746
g69
(g70
g71
NtRp3747
(dp3748
g74
(dp3749
g82
I2
ssg83
g3743
sg76
(lp3750
g69
(g78
g71
NtRp3751
(dp3752
g74
(dp3753
g82
I1
ssg83
Nsg76
(lp3754
g69
(g85
g71
NtRp3755
(dp3756
g74
(dp3757
sg83
g3751
sg76
(lp3758
g69
(g90
g71
NtRp3759
(dp3760
g74
(dp3761
sg83
g3755
sg76
(lp3762
g69
(g70
g71
NtRp3763
(dp3764
g74
(dp3765
g82
I1
ssg83
g3759
sg76
(lp3766
g3566
(S's\x08\x00\x00\x00This App'
tRp3767
asbasbasbag69
(g85
g71
NtRp3768
(dp3769
g74
(dp3770
sg83
g3751
sg76
(lp3771
g69
(g90
g71
NtRp3772
(dp3773
g74
(dp3774
sg83
g3768
sg76
(lp3775
g69
(g70
g71
NtRp3776
(dp3777
g74
(dp3778
g82
I1
ssg83
g3772
sg76
(lp3779
I00
asbasbasbag69
(g85
g71
NtRp3780
(dp3781
g74
(dp3782
sg83
g3751
sg76
(lp3783
g69
(g90
g71
NtRp3784
(dp3785
g74
(dp3786
sg83
g3780
sg76
(lp3787
g69
(g70
g71
NtRp3788
(dp3789
g74
(dp3790
g82
I1
ssg83
g3784
sg76
(lp3791
S'/admin/default/design/sueldos'
p3792
asbasbasbag69
(g85
g71
NtRp3793
(dp3794
g74
(dp3795
sg83
g3751
sg76
(lp3796
g69
(g90
g71
NtRp3797
(dp3798
g74
(dp3799
sg83
g3793
sg76
(lp3800
g69
(g70
g71
NtRp3801
(dp3802
g74
(dp3803
g82
I1
ssg83
g3797
sg76
(lp3804
(lp3805
(g3566
(S's\n\x00\x00\x00Controller'
tRp3806
I00
S'/admin/default/edit/sueldos/controllers/default.py'
tp3807
a(g3566
(S's\x04\x00\x00\x00View'
tRp3808
I00
S'/admin/default/edit/sueldos/views/default/index.html'
tp3809
a(g3566
(S's\x06\x00\x00\x00Layout'
tRp3810
I00
S'/admin/default/edit/sueldos/views/layout.html'
tp3811
a(g3566
(S's\n\x00\x00\x00Stylesheet'
tRp3812
I00
S'/admin/default/edit/sueldos/static/css/web2py.css'
tp3813
a(g3566
(S's\x08\x00\x00\x00DB Model'
tRp3814
I00
S'/admin/default/edit/sueldos/models/db.py'
tp3815
a(g3566
(S's\n\x00\x00\x00Menu Model'
tRp3816
I00
S'/admin/default/edit/sueldos/models/menu.py'
tp3817
a(g3566
(S's\x08\x00\x00\x00Database'
tRp3818
I00
S'/sueldos/appadmin/index'
tp3819
a(g3566
(S's\x06\x00\x00\x00Errors'
tRp3820
I00
S'/admin/default/errors/sueldos'
tp3821
a(g3566
(S's\x05\x00\x00\x00About'
tRp3822
I00
S'/admin/default/about/sueldos'
tp3823
aasbasbasbasbasbasbasbag69
(g85
g71
NtRp3824
(dp3825
g74
(dp3826
sg83
g3681
sg76
(lp3827
g69
(g90
g71
NtRp3828
(dp3829
g74
(dp3830
sg83
g3824
sg76
(lp3831
g69
(g70
g71
NtRp3832
(dp3833
g74
(dp3834
g82
I2
ssg83
g3828
sg76
(lp3835
g69
(g78
g71
NtRp3836
(dp3837
g74
(dp3838
g82
I1
ssg83
Nsg76
(lp3839
g69
(g85
g71
NtRp3840
(dp3841
g74
(dp3842
sg83
g3836
sg76
(lp3843
g69
(g90
g71
NtRp3844
(dp3845
g74
(dp3846
sg83
g3840
sg76
(lp3847
g69
(g70
g71
NtRp3848
(dp3849
g74
(dp3850
g82
I1
ssg83
g3844
sg76
(lp3851
S'web2py.com'
p3852
asbasbasbag69
(g85
g71
NtRp3853
(dp3854
g74
(dp3855
sg83
g3836
sg76
(lp3856
g69
(g90
g71
NtRp3857
(dp3858
g74
(dp3859
sg83
g3853
sg76
(lp3860
g69
(g70
g71
NtRp3861
(dp3862
g74
(dp3863
g82
I1
ssg83
g3857
sg76
(lp3864
I00
asbasbasbag69
(g85
g71
NtRp3865
(dp3866
g74
(dp3867
sg83
g3836
sg76
(lp3868
g69
(g90
g71
NtRp3869
(dp3870
g74
(dp3871
sg83
g3865
sg76
(lp3872
g69
(g70
g71
NtRp3873
(dp3874
g74
(dp3875
g82
I1
ssg83
g3869
sg76
(lp3876
S'http://www.web2py.com'
p3877
asbasbasbag69
(g85
g71
NtRp3878
(dp3879
g74
(dp3880
sg83
g3836
sg76
(lp3881
g69
(g90
g71
NtRp3882
(dp3883
g74
(dp3884
sg83
g3878
sg76
(lp3885
g69
(g70
g71
NtRp3886
(dp3887
g74
(dp3888
g82
I1
ssg83
g3882
sg76
(lp3889
(lp3890
(g3566
(S's\x08\x00\x00\x00Download'
tRp3891
I00
S'http://www.web2py.com/examples/default/download'
p3892
tp3893
a(g3566
(S's\x07\x00\x00\x00Support'
tRp3894
I00
S'http://www.web2py.com/examples/default/support'
p3895
tp3896
a(g3566
(S's\x04\x00\x00\x00Demo'
tRp3897
I00
S'http://web2py.com/demo_admin'
p3898
tp3899
a(g3566
(S's\x0e\x00\x00\x00Quick Examples'
tRp3900
I00
S'http://web2py.com/examples/default/examples'
p3901
tp3902
a(g3566
(S's\x03\x00\x00\x00FAQ'
tRp3903
I00
S'http://web2py.com/AlterEgo'
p3904
tp3905
a(g3566
(S's\x06\x00\x00\x00Videos'
tRp3906
I00
S'http://www.web2py.com/examples/default/videos/'
p3907
tp3908
a(g3566
(S's\x11\x00\x00\x00Free Applications'
tRp3909
I00
S'http://web2py.com/appliances'
p3910
tp3911
a(g3566
(S's\x07\x00\x00\x00Plugins'
tRp3912
I00
S'http://web2py.com/plugins'
p3913
tp3914
a(g3566
(S's\x07\x00\x00\x00Layouts'
tRp3915
I00
S'http://web2py.com/layouts'
p3916
tp3917
a(g3566
(S's\x07\x00\x00\x00Recipes'
tRp3918
I00
S'http://web2pyslices.com/'
p3919
tp3920
a(g3566
(S's\x08\x00\x00\x00Semantic'
tRp3921
I00
S'http://web2py.com/semantic'
p3922
tp3923
aasbasbasbasbasbasbasbag69
(g85
g71
NtRp3924
(dp3925
g74
(dp3926
sg83
g3681
sg76
(lp3927
g69
(g90
g71
NtRp3928
(dp3929
g74
(dp3930
sg83
g3924
sg76
(lp3931
g69
(g70
g71
NtRp3932
(dp3933
g74
(dp3934
g82
I2
ssg83
g3928
sg76
(lp3935
g69
(g78
g71
NtRp3936
(dp3937
g74
(dp3938
g82
I1
ssg83
Nsg76
(lp3939
g69
(g85
g71
NtRp3940
(dp3941
g74
(dp3942
sg83
g3936
sg76
(lp3943
g69
(g90
g71
NtRp3944
(dp3945
g74
(dp3946
sg83
g3940
sg76
(lp3947
g69
(g70
g71
NtRp3948
(dp3949
g74
(dp3950
g82
I1
ssg83
g3944
sg76
(lp3951
g3566
(S's\r\x00\x00\x00Documentation'
tRp3952
asbasbasbag69
(g85
g71
NtRp3953
(dp3954
g74
(dp3955
sg83
g3936
sg76
(lp3956
g69
(g90
g71
NtRp3957
(dp3958
g74
(dp3959
sg83
g3953
sg76
(lp3960
g69
(g70
g71
NtRp3961
(dp3962
g74
(dp3963
g82
I1
ssg83
g3957
sg76
(lp3964
I00
asbasbasbag69
(g85
g71
NtRp3965
(dp3966
g74
(dp3967
sg83
g3936
sg76
(lp3968
g69
(g90
g71
NtRp3969
(dp3970
g74
(dp3971
sg83
g3965
sg76
(lp3972
g69
(g70
g71
NtRp3973
(dp3974
g74
(dp3975
g82
I1
ssg83
g3969
sg76
(lp3976
S'http://www.web2py.com/book'
p3977
asbasbasbag69
(g85
g71
NtRp3978
(dp3979
g74
(dp3980
sg83
g3936
sg76
(lp3981
g69
(g90
g71
NtRp3982
(dp3983
g74
(dp3984
sg83
g3978
sg76
(lp3985
g69
(g70
g71
NtRp3986
(dp3987
g74
(dp3988
g82
I1
ssg83
g3982
sg76
(lp3989
(lp3990
(g3566
(S's\x07\x00\x00\x00Preface'
tRp3991
I00
S'http://www.web2py.com/book/default/chapter/00'
p3992
tp3993
a(g3566
(S's\x0c\x00\x00\x00Introduction'
tRp3994
I00
S'http://www.web2py.com/book/default/chapter/01'
p3995
tp3996
a(g3566
(S's\x06\x00\x00\x00Python'
tRp3997
I00
S'http://www.web2py.com/book/default/chapter/02'
p3998
tp3999
a(g3566
(S's\x08\x00\x00\x00Overview'
tRp4000
I00
S'http://www.web2py.com/book/default/chapter/03'
p4001
tp4002
a(g3566
(S's\x08\x00\x00\x00The Core'
tRp4003
I00
S'http://www.web2py.com/book/default/chapter/04'
p4004
tp4005
a(g3566
(S's\t\x00\x00\x00The Views'
tRp4006
I00
S'http://www.web2py.com/book/default/chapter/05'
p4007
tp4008
a(g3566
(S's\x08\x00\x00\x00Database'
tRp4009
I00
S'http://www.web2py.com/book/default/chapter/06'
p4010
tp4011
a(g3566
(S's\x14\x00\x00\x00Forms and Validators'
tRp4012
I00
S'http://www.web2py.com/book/default/chapter/07'
p4013
tp4014
a(g3566
(S's\r\x00\x00\x00Email and SMS'
tRp4015
I00
S'http://www.web2py.com/book/default/chapter/08'
p4016
tp4017
a(g3566
(S's\x0e\x00\x00\x00Access Control'
tRp4018
I00
S'http://www.web2py.com/book/default/chapter/09'
p4019
tp4020
a(g3566
(S's\x08\x00\x00\x00Services'
tRp4021
I00
S'http://www.web2py.com/book/default/chapter/10'
p4022
tp4023
a(g3566
(S's\x0c\x00\x00\x00Ajax Recipes'
tRp4024
I00
S'http://www.web2py.com/book/default/chapter/11'
p4025
tp4026
a(g3566
(S's\x16\x00\x00\x00Components and Plugins'
tRp4027
I00
S'http://www.web2py.com/book/default/chapter/12'
p4028
tp4029
a(g3566
(S's\x12\x00\x00\x00Deployment Recipes'
tRp4030
I00
S'http://www.web2py.com/book/default/chapter/13'
p4031
tp4032
a(g3566
(S's\r\x00\x00\x00Other Recipes'
tRp4033
I00
S'http://www.web2py.com/book/default/chapter/14'
p4034
tp4035
a(g3566
(S's\r\x00\x00\x00Buy this book'
tRp4036
I00
S'http://stores.lulu.com/web2py'
p4037
tp4038
aasbasbasbasbasbasbasbag69
(g85
g71
NtRp4039
(dp4040
g74
(dp4041
sg83
g3681
sg76
(lp4042
g69
(g90
g71
NtRp4043
(dp4044
g74
(dp4045
sg83
g4039
sg76
(lp4046
g69
(g70
g71
NtRp4047
(dp4048
g74
(dp4049
g82
I2
ssg83
g4043
sg76
(lp4050
g69
(g78
g71
NtRp4051
(dp4052
g74
(dp4053
g82
I1
ssg83
Nsg76
(lp4054
g69
(g85
g71
NtRp4055
(dp4056
g74
(dp4057
sg83
g4051
sg76
(lp4058
g69
(g90
g71
NtRp4059
(dp4060
g74
(dp4061
sg83
g4055
sg76
(lp4062
g69
(g70
g71
NtRp4063
(dp4064
g74
(dp4065
g82
I1
ssg83
g4059
sg76
(lp4066
g3566
(S's\t\x00\x00\x00Community'
tRp4067
asbasbasbag69
(g85
g71
NtRp4068
(dp4069
g74
(dp4070
sg83
g4051
sg76
(lp4071
g69
(g90
g71
NtRp4072
(dp4073
g74
(dp4074
sg83
g4068
sg76
(lp4075
g69
(g70
g71
NtRp4076
(dp4077
g74
(dp4078
g82
I1
ssg83
g4072
sg76
(lp4079
I00
asbasbasbag69
(g85
g71
NtRp4080
(dp4081
g74
(dp4082
sg83
g4051
sg76
(lp4083
g69
(g90
g71
NtRp4084
(dp4085
g74
(dp4086
sg83
g4080
sg76
(lp4087
g69
(g70
g71
NtRp4088
(dp4089
g74
(dp4090
g82
I1
ssg83
g4084
sg76
(lp4091
Nasbasbasbag69
(g85
g71
NtRp4092
(dp4093
g74
(dp4094
sg83
g4051
sg76
(lp4095
g69
(g90
g71
NtRp4096
(dp4097
g74
(dp4098
sg83
g4092
sg76
(lp4099
g69
(g70
g71
NtRp4100
(dp4101
g74
(dp4102
g82
I1
ssg83
g4096
sg76
(lp4103
(lp4104
(g3566
(S's\x06\x00\x00\x00Groups'
tRp4105
I00
S'http://www.web2py.com/examples/default/usergroups'
p4106
tp4107
a(g3566
(S's\x07\x00\x00\x00Twitter'
tRp4108
I00
S'http://twitter.com/web2py'
p4109
tp4110
a(g3566
(S's\t\x00\x00\x00Live Chat'
tRp4111
I00
S'http://webchat.freenode.net/?channels=web2py'
p4112
tp4113
aasbasbasbasbasbasbasbag69
(g85
g71
NtRp4114
(dp4115
g74
(dp4116
sg83
g3681
sg76
(lp4117
g69
(g90
g71
NtRp4118
(dp4119
g74
(dp4120
sg83
g4114
sg76
(lp4121
g69
(g70
g71
NtRp4122
(dp4123
g74
(dp4124
g82
I2
ssg83
g4118
sg76
(lp4125
g69
(g78
g71
NtRp4126
(dp4127
g74
(dp4128
g82
I1
ssg83
Nsg76
(lp4129
g69
(g85
g71
NtRp4130
(dp4131
g74
(dp4132
sg83
g4126
sg76
(lp4133
g69
(g90
g71
NtRp4134
(dp4135
g74
(dp4136
sg83
g4130
sg76
(lp4137
g69
(g70
g71
NtRp4138
(dp4139
g74
(dp4140
g82
I1
ssg83
g4134
sg76
(lp4141
g3566
(S's\x07\x00\x00\x00Plugins'
tRp4142
asbasbasbag69
(g85
g71
NtRp4143
(dp4144
g74
(dp4145
sg83
g4126
sg76
(lp4146
g69
(g90
g71
NtRp4147
(dp4148
g74
(dp4149
sg83
g4143
sg76
(lp4150
g69
(g70
g71
NtRp4151
(dp4152
g74
(dp4153
g82
I1
ssg83
g4147
sg76
(lp4154
I00
asbasbasbag69
(g85
g71
NtRp4155
(dp4156
g74
(dp4157
sg83
g4126
sg76
(lp4158
g69
(g90
g71
NtRp4159
(dp4160
g74
(dp4161
sg83
g4155
sg76
(lp4162
g69
(g70
g71
NtRp4163
(dp4164
g74
(dp4165
g82
I1
ssg83
g4159
sg76
(lp4166
Nasbasbasbag69
(g85
g71
NtRp4167
(dp4168
g74
(dp4169
sg83
g4126
sg76
(lp4170
g69
(g90
g71
NtRp4171
(dp4172
g74
(dp4173
sg83
g4167
sg76
(lp4174
g69
(g70
g71
NtRp4175
(dp4176
g74
(dp4177
g82
I1
ssg83
g4171
sg76
(lp4178
(lp4179
(S'plugin_wiki'
p4180
I00
S'http://web2py.com/examples/default/download'
p4181
tp4182
a(g3566
(S's\r\x00\x00\x00Other Plugins'
tRp4183
I00
g3913
tp4184
a(g3566
(S's\x0e\x00\x00\x00Layout Plugins'
tRp4185
I00
g3916
tp4186
aasbasbasbasbasbasbasbasbasbasbasbasbasbasbasbasbasbasbasbag69
(g85
g71
NtRp4187
(dp4188
g74
(dp4189
sg83
g3076
sg76
(lp4190
g69
(g90
g71
NtRp4191
(dp4192
g74
(dp4193
g94
g95
ssg83
g4187
sg76
(lp4194
S'meta'
p4195
asbag69
(g90
g71
NtRp4196
(dp4197
g74
(dp4198
g101
g102
ssg83
g4187
sg76
(lp4199
S':'
asbag69
(g90
g71
NtRp4200
(dp4201
g74
(dp4202
sg83
g4187
sg76
(lp4203
g69
(g70
g71
NtRp4204
(dp4205
g74
(dp4206
g82
I5
ssg83
g4200
sg76
(lp4207
g69
(g78
g71
NtRp4208
(dp4209
g74
(dp4210
g82
I4
ssg83
Nsg76
(lp4211
g69
(g85
g71
NtRp4212
(dp4213
g74
(dp4214
sg83
g4208
sg76
(lp4215
g69
(g90
g71
NtRp4216
(dp4217
g74
(dp4218
g94
g95
ssg83
g4212
sg76
(lp4219
S'author'
p4220
asbag69
(g90
g71
NtRp4221
(dp4222
g74
(dp4223
g101
g102
ssg83
g4212
sg76
(lp4224
S':'
asbag69
(g90
g71
NtRp4225
(dp4226
g74
(dp4227
sg83
g4212
sg76
(lp4228
g69
(g70
g71
NtRp4229
(dp4230
g74
(dp4231
g82
I4
ssg83
g4225
sg76
(lp4232
S'Your Name <you@example.com>'
p4233
asbasbasbag69
(g85
g71
NtRp4234
(dp4235
g74
(dp4236
sg83
g4208
sg76
(lp4237
g69
(g90
g71
NtRp4238
(dp4239
g74
(dp4240
g94
g95
ssg83
g4234
sg76
(lp4241
S'description'
p4242
asbag69
(g90
g71
NtRp4243
(dp4244
g74
(dp4245
g101
g102
ssg83
g4234
sg76
(lp4246
S':'
asbag69
(g90
g71
NtRp4247
(dp4248
g74
(dp4249
sg83
g4234
sg76
(lp4250
g69
(g70
g71
NtRp4251
(dp4252
g74
(dp4253
g82
I4
ssg83
g4247
sg76
(lp4254
S'a cool new app'
p4255
asbasbasbag69
(g85
g71
NtRp4256
(dp4257
g74
(dp4258
sg83
g4208
sg76
(lp4259
g69
(g90
g71
NtRp4260
(dp4261
g74
(dp4262
g94
g95
ssg83
g4256
sg76
(lp4263
S'generator'
p4264
asbag69
(g90
g71
NtRp4265
(dp4266
g74
(dp4267
g101
g102
ssg83
g4256
sg76
(lp4268
S':'
asbag69
(g90
g71
NtRp4269
(dp4270
g74
(dp4271
sg83
g4256
sg76
(lp4272
g69
(g70
g71
NtRp4273
(dp4274
g74
(dp4275
g82
I4
ssg83
g4269
sg76
(lp4276
S'Web2py Web Framework'
p4277
asbasbasbag69
(g85
g71
NtRp4278
(dp4279
g74
(dp4280
sg83
g4208
sg76
(lp4281
g69
(g90
g71
NtRp4282
(dp4283
g74
(dp4284
g94
g95
ssg83
g4278
sg76
(lp4285
S'keywords'
p4286
asbag69
(g90
g71
NtRp4287
(dp4288
g74
(dp4289
g101
g102
ssg83
g4278
sg76
(lp4290
S':'
asbag69
(g90
g71
NtRp4291
(dp4292
g74
(dp4293
sg83
g4278
sg76
(lp4294
g69
(g70
g71
NtRp4295
(dp4296
g74
(dp4297
g82
I4
ssg83
g4291
sg76
(lp4298
S'web2py, python, framework'
p4299
asbasbasbasbasbasbasbag69
(g85
g71
NtRp4300
(dp4301
g74
(dp4302
sg83
g3076
sg76
(lp4303
g69
(g90
g71
NtRp4304
(dp4305
g74
(dp4306
g94
g95
ssg83
g4300
sg76
(lp4307
S'models_to_run'
p4308
asbag69
(g90
g71
NtRp4309
(dp4310
g74
(dp4311
g101
g102
ssg83
g4300
sg76
(lp4312
S':'
asbag69
(g90
g71
NtRp4313
(dp4314
g74
(dp4315
sg83
g4300
sg76
(lp4316
g69
(g70
g71
NtRp4317
(dp4318
g74
(dp4319
g82
I5
ssg83
g4313
sg76
(lp4320
g69
(g78
g71
NtRp4321
(dp4322
g74
(dp4323
g82
I4
ssg83
Nsg76
(lp4324
g69
(g85
g71
NtRp4325
(dp4326
g74
(dp4327
sg83
g4321
sg76
(lp4328
g69
(g90
g71
NtRp4329
(dp4330
g74
(dp4331
sg83
g4325
sg76
(lp4332
g69
(g70
g71
NtRp4333
(dp4334
g74
(dp4335
g82
I4
ssg83
g4329
sg76
(lp4336
S'^\\w+\\.py$'
p4337
asbasbasbag69
(g85
g71
NtRp4338
(dp4339
g74
(dp4340
sg83
g4321
sg76
(lp4341
g69
(g90
g71
NtRp4342
(dp4343
g74
(dp4344
sg83
g4338
sg76
(lp4345
g69
(g70
g71
NtRp4346
(dp4347
g74
(dp4348
g82
I4
ssg83
g4342
sg76
(lp4349
S'^default/\\w+\\.py$'
p4350
asbasbasbag69
(g85
g71
NtRp4351
(dp4352
g74
(dp4353
sg83
g4321
sg76
(lp4354
g69
(g90
g71
NtRp4355
(dp4356
g74
(dp4357
sg83
g4351
sg76
(lp4358
g69
(g70
g71
NtRp4359
(dp4360
g74
(dp4361
g82
I4
ssg83
g4355
sg76
(lp4362
S'^default/index/\\w+\\.py$'
p4363
asbasbasbasbasbasbasbag69
(g85
g71
NtRp4364
(dp4365
g74
(dp4366
sg83
g3076
sg76
(lp4367
g69
(g90
g71
NtRp4368
(dp4369
g74
(dp4370
g94
g95
ssg83
g4364
sg76
(lp4371
S'postprocessing'
p4372
asbag69
(g90
g71
NtRp4373
(dp4374
g74
(dp4375
g101
g102
ssg83
g4364
sg76
(lp4376
S':'
asbag69
(g90
g71
NtRp4377
(dp4378
g74
(dp4379
sg83
g4364
sg76
(lp4380
g69
(g70
g71
NtRp4381
(dp4382
g74
(dp4383
g82
I5
ssg83
g4377
sg76
(lp4384
g69
(g78
g71
NtRp4385
(dp4386
g74
(dp4387
g82
I4
ssg83
Nsg76
(lp4388
sbasbasbasbag69
(g85
g71
NtRp4389
(dp4390
g74
(dp4391
sg83
g3076
sg76
(lp4392
g69
(g90
g71
NtRp4393
(dp4394
g74
(dp4395
g94
g95
ssg83
g4389
sg76
(lp4396
S'session_cookie_expires'
p4397
asbag69
(g90
g71
NtRp4398
(dp4399
g74
(dp4400
g101
g102
ssg83
g4389
sg76
(lp4401
S':'
asbag69
(g90
g71
NtRp4402
(dp4403
g74
(dp4404
sg83
g4389
sg76
(lp4405
g69
(g70
g71
NtRp4406
(dp4407
g74
(dp4408
g82
I5
ssg83
g4402
sg76
(lp4409
S'None'
p4410
asbasbasbag69
(g85
g71
NtRp4411
(dp4412
g74
(dp4413
sg83
g3076
sg76
(lp4414
g69
(g90
g71
NtRp4415
(dp4416
g74
(dp4417
g94
g95
ssg83
g4411
sg76
(lp4418
S'session_data_name'
p4419
asbag69
(g90
g71
NtRp4420
(dp4421
g74
(dp4422
g101
g102
ssg83
g4411
sg76
(lp4423
S':'
asbag69
(g90
g71
NtRp4424
(dp4425
g74
(dp4426
sg83
g4411
sg76
(lp4427
g69
(g70
g71
NtRp4428
(dp4429
g74
(dp4430
g82
I5
ssg83
g4424
sg76
(lp4431
S'session_data_sueldos'
p4432
asbasbasbag69
(g85
g71
NtRp4433
(dp4434
g74
(dp4435
sg83
g3076
sg76
(lp4436
g69
(g90
g71
NtRp4437
(dp4438
g74
(dp4439
g94
g95
ssg83
g4433
sg76
(lp4440
S'session_file'
p4441
asbag69
(g90
g71
NtRp4442
(dp4443
g74
(dp4444
g101
g102
ssg83
g4433
sg76
(lp4445
S':'
asbag69
(g90
g71
NtRp4446
(dp4447
g74
(dp4448
sg83
g4433
sg76
(lp4449
g69
(g70
g71
NtRp4450
(dp4451
g74
(dp4452
g82
I5
ssg83
g4446
sg76
(lp4453
S"<open file '/home/marco/projects/contabilidad/web2py/applications/sueldos/sessions/127.0.0.1-b5ab5c43-cb03-494e-8551-1bb3b74c2938', mode 'rb+' at 0x19035d0>"
p4454
asbasbasbag69
(g85
g71
NtRp4455
(dp4456
g74
(dp4457
sg83
g3076
sg76
(lp4458
g69
(g90
g71
NtRp4459
(dp4460
g74
(dp4461
g94
g95
ssg83
g4455
sg76
(lp4462
S'session_filename'
p4463
asbag69
(g90
g71
NtRp4464
(dp4465
g74
(dp4466
g101
g102
ssg83
g4455
sg76
(lp4467
S':'
asbag69
(g90
g71
NtRp4468
(dp4469
g74
(dp4470
sg83
g4455
sg76
(lp4471
g69
(g70
g71
NtRp4472
(dp4473
g74
(dp4474
g82
I5
ssg83
g4468
sg76
(lp4475
S'/home/marco/projects/contabilidad/web2py/applications/sueldos/sessions/127.0.0.1-b5ab5c43-cb03-494e-8551-1bb3b74c2938'
p4476
asbasbasbag69
(g85
g71
NtRp4477
(dp4478
g74
(dp4479
sg83
g3076
sg76
(lp4480
g69
(g90
g71
NtRp4481
(dp4482
g74
(dp4483
g94
g95
ssg83
g4477
sg76
(lp4484
S'session_id'
p4485
asbag69
(g90
g71
NtRp4486
(dp4487
g74
(dp4488
g101
g102
ssg83
g4477
sg76
(lp4489
S':'
asbag69
(g90
g71
NtRp4490
(dp4491
g74
(dp4492
sg83
g4477
sg76
(lp4493
g69
(g70
g71
NtRp4494
(dp4495
g74
(dp4496
g82
I5
ssg83
g4490
sg76
(lp4497
g487
asbasbasbag69
(g85
g71
NtRp4498
(dp4499
g74
(dp4500
sg83
g3076
sg76
(lp4501
g69
(g90
g71
NtRp4502
(dp4503
g74
(dp4504
g94
g95
ssg83
g4498
sg76
(lp4505
S'session_id_name'
p4506
asbag69
(g90
g71
NtRp4507
(dp4508
g74
(dp4509
g101
g102
ssg83
g4498
sg76
(lp4510
S':'
asbag69
(g90
g71
NtRp4511
(dp4512
g74
(dp4513
sg83
g4498
sg76
(lp4514
g69
(g70
g71
NtRp4515
(dp4516
g74
(dp4517
g82
I5
ssg83
g4511
sg76
(lp4518
g3133
asbasbasbag69
(g85
g71
NtRp4519
(dp4520
g74
(dp4521
sg83
g3076
sg76
(lp4522
g69
(g90
g71
NtRp4523
(dp4524
g74
(dp4525
g94
g95
ssg83
g4519
sg76
(lp4526
S'session_locked'
p4527
asbag69
(g90
g71
NtRp4528
(dp4529
g74
(dp4530
g101
g102
ssg83
g4519
sg76
(lp4531
S':'
asbag69
(g90
g71
NtRp4532
(dp4533
g74
(dp4534
sg83
g4519
sg76
(lp4535
g69
(g70
g71
NtRp4536
(dp4537
g74
(dp4538
g82
I5
ssg83
g4532
sg76
(lp4539
g1573
asbasbasbag69
(g85
g71
NtRp4540
(dp4541
g74
(dp4542
sg83
g3076
sg76
(lp4543
g69
(g90
g71
NtRp4544
(dp4545
g74
(dp4546
g94
g95
ssg83
g4540
sg76
(lp4547
S'session_new'
p4548
asbag69
(g90
g71
NtRp4549
(dp4550
g74
(dp4551
g101
g102
ssg83
g4540
sg76
(lp4552
S':'
asbag69
(g90
g71
NtRp4553
(dp4554
g74
(dp4555
sg83
g4540
sg76
(lp4556
g69
(g70
g71
NtRp4557
(dp4558
g74
(dp4559
g82
I5
ssg83
g4553
sg76
(lp4560
g112
asbasbasbag69
(g85
g71
NtRp4561
(dp4562
g74
(dp4563
sg83
g3076
sg76
(lp4564
g69
(g90
g71
NtRp4565
(dp4566
g74
(dp4567
g94
g95
ssg83
g4561
sg76
(lp4568
S'session_storage_type'
p4569
asbag69
(g90
g71
NtRp4570
(dp4571
g74
(dp4572
g101
g102
ssg83
g4561
sg76
(lp4573
S':'
asbag69
(g90
g71
NtRp4574
(dp4575
g74
(dp4576
sg83
g4561
sg76
(lp4577
g69
(g70
g71
NtRp4578
(dp4579
g74
(dp4580
g82
I5
ssg83
g4574
sg76
(lp4581
g2983
asbasbasbag69
(g85
g71
NtRp4582
(dp4583
g74
(dp4584
sg83
g3076
sg76
(lp4585
g69
(g90
g71
NtRp4586
(dp4587
g74
(dp4588
g94
g95
ssg83
g4582
sg76
(lp4589
S'status'
p4590
asbag69
(g90
g71
NtRp4591
(dp4592
g74
(dp4593
g101
g102
ssg83
g4582
sg76
(lp4594
S':'
asbag69
(g90
g71
NtRp4595
(dp4596
g74
(dp4597
sg83
g4582
sg76
(lp4598
g69
(g70
g71
NtRp4599
(dp4600
g74
(dp4601
g82
I5
ssg83
g4595
sg76
(lp4602
S'200'
p4603
asbasbasbag69
(g85
g71
NtRp4604
(dp4605
g74
(dp4606
sg83
g3076
sg76
(lp4607
g69
(g90
g71
NtRp4608
(dp4609
g74
(dp4610
g94
g95
ssg83
g4604
sg76
(lp4611
S'subtitle'
p4612
asbag69
(g90
g71
NtRp4613
(dp4614
g74
(dp4615
g101
g102
ssg83
g4604
sg76
(lp4616
S':'
asbag69
(g90
g71
NtRp4617
(dp4618
g74
(dp4619
sg83
g4604
sg76
(lp4620
g69
(g70
g71
NtRp4621
(dp4622
g74
(dp4623
g82
I5
ssg83
g4617
sg76
(lp4624
g3566
(S's,\x00\x00\x00Sistema de liquidacion de sueldos y jornales'
tRp4625
asbasbasbag69
(g85
g71
NtRp4626
(dp4627
g74
(dp4628
sg83
g3076
sg76
(lp4629
g69
(g90
g71
NtRp4630
(dp4631
g74
(dp4632
g94
g95
ssg83
g4626
sg76
(lp4633
S'title'
p4634
asbag69
(g90
g71
NtRp4635
(dp4636
g74
(dp4637
g101
g102
ssg83
g4626
sg76
(lp4638
S':'
asbag69
(g90
g71
NtRp4639
(dp4640
g74
(dp4641
sg83
g4626
sg76
(lp4642
g69
(g70
g71
NtRp4643
(dp4644
g74
(dp4645
g82
I5
ssg83
g4639
sg76
(lp4646
S'Sueldos'
p4647
asbasbasbag69
(g85
g71
NtRp4648
(dp4649
g74
(dp4650
sg83
g3076
sg76
(lp4651
g69
(g90
g71
NtRp4652
(dp4653
g74
(dp4654
g94
g95
ssg83
g4648
sg76
(lp4655
S'view'
p4656
asbag69
(g90
g71
NtRp4657
(dp4658
g74
(dp4659
g101
g102
ssg83
g4648
sg76
(lp4660
S':'
asbag69
(g90
g71
NtRp4661
(dp4662
g74
(dp4663
sg83
g4648
sg76
(lp4664
g69
(g70
g71
NtRp4665
(dp4666
g74
(dp4667
g82
I5
ssg83
g4661
sg76
(lp4668
S'default/index.html'
p4669
asbasbasbasbasbsS'locals'
p4670
(dp4671
g4
S"'/home/marco/projects/contabilidad/web2py/applications/sueldos/controllers/default.py'"
p4672
sg6
S"'# -*- coding: utf-8 -*-\\n# this file is released ...=crud())\\n\\nresponse._vars=response._caller(index)\\n'"
p4673
sssS'traceback'
p4674
S'Traceback (most recent call last):\n  File "/home/marco/projects/contabilidad/web2py/gluon/restricted.py", line 211, in restricted\n    ccode = compile2(code, layer)\n  File "/home/marco/projects/contabilidad/web2py/gluon/restricted.py", line 194, in compile2\n    return compile(code.rstrip().replace(\'\\r\\n\', \'\\n\') + \'\\n\', layer, \'exec\')\n  File "/home/marco/projects/contabilidad/web2py/applications/sueldos/controllers/default.py", line 24\n    def clientes()\n                 ^\nSyntaxError: invalid syntax\n'
p4675
s.