(dp1
S'output'
p2
S"<type 'exceptions.NameError'> global name 'IS_INTEGER' is not defined"
p3
sS'layer'
p4
S'/home/marco/projects/contabilidad/web2py/applications/sueldos/controllers/vistas.py'
p5
sS'code'
p6
S"# -*- coding: utf-8 -*-\n\ndef personal():\n    form = SQLFORM.grid(db.empleados, ui='jquery-ui', user_signature=False)\n    return dict(form=form)\n\ndef escalas():\n    # if request.vars.gremio:\n    #     lista=db(db.categorias.gremio==int(param)).select()\n    # else:\n    lista=request.vars.gremio\n    # nueva=crud.create(db.categorias, next=URL('vistas','escalas', vars=dict(gremio=request.vars.gremio, sindicato=request.vars.sindicato)))\n\n    # if nueva.process().accepted:\n    #     session.flash='La categoria ha sido agregada'\n    # elif nueva.errors:\n    #     response.flash='El formulario tiene errores'\n        \n    return dict(lista=lista)\n\ndef importes():\n    if IS_INTEGER(request.vars.gremio):\n        lista=db(db.valores.gremio==request.vars.gremio).select()\n    else:\n        param=int(request.vars.gremio.pop())\n        lista=db(db.valores.gremio==param).select()\n    nuevo=SQLFORM(db.valores)\n\n    if nuevo.process().accepted:\n        session.flash='El importe ha sido agregado'\n        redirect(URL('vistas','importes?gremio='+ str(request.vars.gremio)+'&sindicato='+ str(request.vars.sindicato)))\n    elif nuevo.errors:\n        response.flash='El formulario tiene errores'\n    return dict(listado=lista, nuevo=nuevo)\n\nresponse._vars=response._caller(importes)\n"
p7
sS'snapshot'
p8
(dp9
S'exception'
p10
(dp11
S'__hash__'
p12
S"<method-wrapper '__hash__' of exceptions.NameError object>"
p13
sS'__setattr__'
p14
S"<method-wrapper '__setattr__' of exceptions.NameError object>"
p15
sS'__reduce_ex__'
p16
S'<built-in method __reduce_ex__ of exceptions.NameError object>'
p17
sS'__getslice__'
p18
S"<method-wrapper '__getslice__' of exceptions.NameError object>"
p19
sS'__getitem__'
p20
S"<method-wrapper '__getitem__' of exceptions.NameError object>"
p21
sS'__setstate__'
p22
S'<built-in method __setstate__ of exceptions.NameError object>'
p23
sS'args'
p24
S'("global name \'IS_INTEGER\' is not defined",)'
p25
sS'__reduce__'
p26
S'<built-in method __reduce__ of exceptions.NameError object>'
p27
sS'__str__'
p28
S"<method-wrapper '__str__' of exceptions.NameError object>"
p29
sS'__format__'
p30
S'<built-in method __format__ of exceptions.NameError object>'
p31
sS'__getattribute__'
p32
S"<method-wrapper '__getattribute__' of exceptions.NameError object>"
p33
sS'__class__'
p34
S"<type 'exceptions.NameError'>"
p35
sS'__unicode__'
p36
S'<built-in method __unicode__ of exceptions.NameError object>'
p37
sS'__delattr__'
p38
S"<method-wrapper '__delattr__' of exceptions.NameError object>"
p39
sS'__subclasshook__'
p40
S'<built-in method __subclasshook__ of type object>'
p41
sS'__repr__'
p42
S"<method-wrapper '__repr__' of exceptions.NameError object>"
p43
sS'__dict__'
p44
S'{}'
p45
sS'__sizeof__'
p46
S'<built-in method __sizeof__ of exceptions.NameError object>'
p47
sS'__doc__'
p48
S"'Name not found globally.'"
p49
sS'__init__'
p50
S"<method-wrapper '__init__' of exceptions.NameError object>"
p51
sS'__new__'
p52
S'<built-in method __new__ of type object>'
p53
ssS'evalue'
p54
S"global name 'IS_INTEGER' is not defined"
p55
sS'request'
p56
ccopy_reg
_reconstructor
p57
(cgluon.html
BEAUTIFY
p58
c__builtin__
object
p59
NtRp60
(dp61
S'attributes'
p62
(dp63
sS'components'
p64
(lp65
g57
(cgluon.html
TABLE
p66
g59
NtRp67
(dp68
g62
(dp69
S'level'
p70
I5
ssS'parent'
p71
Nsg64
(lp72
g57
(cgluon.html
TR
p73
g59
NtRp74
(dp75
g62
(dp76
sg71
g67
sg64
(lp77
g57
(cgluon.html
TD
p78
g59
NtRp79
(dp80
g62
(dp81
S'_style'
p82
S'font-weight:bold;vertical-align:top'
p83
ssg71
g74
sg64
(lp84
S'ajax'
p85
asbag57
(g78
g59
NtRp86
(dp87
g62
(dp88
S'_valign'
p89
S'top'
p90
ssg71
g74
sg64
(lp91
S':'
asbag57
(g78
g59
NtRp92
(dp93
g62
(dp94
sg71
g74
sg64
(lp95
g57
(g58
g59
NtRp96
(dp97
g62
(dp98
g70
I5
ssg71
g92
sg64
(lp99
S'False'
p100
asbasbasbag57
(g73
g59
NtRp101
(dp102
g62
(dp103
sg71
g67
sg64
(lp104
g57
(g78
g59
NtRp105
(dp106
g62
(dp107
g82
g83
ssg71
g101
sg64
(lp108
S'application'
p109
asbag57
(g78
g59
NtRp110
(dp111
g62
(dp112
g89
g90
ssg71
g101
sg64
(lp113
S':'
asbag57
(g78
g59
NtRp114
(dp115
g62
(dp116
sg71
g101
sg64
(lp117
g57
(g58
g59
NtRp118
(dp119
g62
(dp120
g70
I5
ssg71
g114
sg64
(lp121
S'sueldos'
p122
asbasbasbag57
(g73
g59
NtRp123
(dp124
g62
(dp125
sg71
g67
sg64
(lp126
g57
(g78
g59
NtRp127
(dp128
g62
(dp129
g82
g83
ssg71
g123
sg64
(lp130
g24
asbag57
(g78
g59
NtRp131
(dp132
g62
(dp133
g89
g90
ssg71
g123
sg64
(lp134
S':'
asbag57
(g78
g59
NtRp135
(dp136
g62
(dp137
sg71
g123
sg64
(lp138
g57
(g58
g59
NtRp139
(dp140
g62
(dp141
g70
I5
ssg71
g135
sg64
(lp142
g57
(g66
g59
NtRp143
(dp144
g62
(dp145
g70
I4
ssg71
Nsg64
(lp146
sbasbasbasbag57
(g73
g59
NtRp147
(dp148
g62
(dp149
sg71
g67
sg64
(lp150
g57
(g78
g59
NtRp151
(dp152
g62
(dp153
g82
g83
ssg71
g147
sg64
(lp154
S'body'
p155
asbag57
(g78
g59
NtRp156
(dp157
g62
(dp158
g89
g90
ssg71
g147
sg64
(lp159
S':'
asbag57
(g78
g59
NtRp160
(dp161
g62
(dp162
sg71
g147
sg64
(lp163
g57
(g58
g59
NtRp164
(dp165
g62
(dp166
g70
I5
ssg71
g160
sg64
(lp167
S'<cStringIO.StringO object at 0x4a03110>'
p168
asbasbasbag57
(g73
g59
NtRp169
(dp170
g62
(dp171
sg71
g67
sg64
(lp172
g57
(g78
g59
NtRp173
(dp174
g62
(dp175
g82
g83
ssg71
g169
sg64
(lp176
S'cid'
p177
asbag57
(g78
g59
NtRp178
(dp179
g62
(dp180
g89
g90
ssg71
g169
sg64
(lp181
S':'
asbag57
(g78
g59
NtRp182
(dp183
g62
(dp184
sg71
g169
sg64
(lp185
g57
(g58
g59
NtRp186
(dp187
g62
(dp188
g70
I5
ssg71
g182
sg64
(lp189
S'None'
p190
asbasbasbag57
(g73
g59
NtRp191
(dp192
g62
(dp193
sg71
g67
sg64
(lp194
g57
(g78
g59
NtRp195
(dp196
g62
(dp197
g82
g83
ssg71
g191
sg64
(lp198
S'client'
p199
asbag57
(g78
g59
NtRp200
(dp201
g62
(dp202
g89
g90
ssg71
g191
sg64
(lp203
S':'
asbag57
(g78
g59
NtRp204
(dp205
g62
(dp206
sg71
g191
sg64
(lp207
g57
(g58
g59
NtRp208
(dp209
g62
(dp210
g70
I5
ssg71
g204
sg64
(lp211
S'127.0.0.1'
p212
asbasbasbag57
(g73
g59
NtRp213
(dp214
g62
(dp215
sg71
g67
sg64
(lp216
g57
(g78
g59
NtRp217
(dp218
g62
(dp219
g82
g83
ssg71
g213
sg64
(lp220
S'controller'
p221
asbag57
(g78
g59
NtRp222
(dp223
g62
(dp224
g89
g90
ssg71
g213
sg64
(lp225
S':'
asbag57
(g78
g59
NtRp226
(dp227
g62
(dp228
sg71
g213
sg64
(lp229
g57
(g58
g59
NtRp230
(dp231
g62
(dp232
g70
I5
ssg71
g226
sg64
(lp233
S'vistas'
p234
asbasbasbag57
(g73
g59
NtRp235
(dp236
g62
(dp237
sg71
g67
sg64
(lp238
g57
(g78
g59
NtRp239
(dp240
g62
(dp241
g82
g83
ssg71
g235
sg64
(lp242
S'cookies'
p243
asbag57
(g78
g59
NtRp244
(dp245
g62
(dp246
g89
g90
ssg71
g235
sg64
(lp247
S':'
asbag57
(g78
g59
NtRp248
(dp249
g62
(dp250
sg71
g235
sg64
(lp251
g57
(g58
g59
NtRp252
(dp253
g62
(dp254
g70
I5
ssg71
g248
sg64
(lp255
g57
(g66
g59
NtRp256
(dp257
g62
(dp258
g70
I4
ssg71
Nsg64
(lp259
g57
(g73
g59
NtRp260
(dp261
g62
(dp262
sg71
g256
sg64
(lp263
g57
(g78
g59
NtRp264
(dp265
g62
(dp266
g82
g83
ssg71
g260
sg64
(lp267
S'session_id_admin'
p268
asbag57
(g78
g59
NtRp269
(dp270
g62
(dp271
g89
g90
ssg71
g260
sg64
(lp272
S':'
asbag57
(g78
g59
NtRp273
(dp274
g62
(dp275
sg71
g260
sg64
(lp276
g57
(g58
g59
NtRp277
(dp278
g62
(dp279
g70
I4
ssg71
g273
sg64
(lp280
S'127.0.0.1-02abd043-fc6c-40a0-be95-723d18a22c5d'
p281
ag57
(g66
g59
NtRp282
(dp283
g62
(dp284
g70
I3
ssg71
Nsg64
(lp285
g57
(g73
g59
NtRp286
(dp287
g62
(dp288
sg71
g282
sg64
(lp289
g57
(g78
g59
NtRp290
(dp291
g62
(dp292
g82
g83
ssg71
g286
sg64
(lp293
S'comment'
p294
asbag57
(g78
g59
NtRp295
(dp296
g62
(dp297
g89
g90
ssg71
g286
sg64
(lp298
S':'
asbag57
(g78
g59
NtRp299
(dp300
g62
(dp301
sg71
g286
sg64
(lp302
g57
(g58
g59
NtRp303
(dp304
g62
(dp305
g70
I3
ssg71
g299
sg64
(lp306
S''
asbasbasbag57
(g73
g59
NtRp307
(dp308
g62
(dp309
sg71
g282
sg64
(lp310
g57
(g78
g59
NtRp311
(dp312
g62
(dp313
g82
g83
ssg71
g307
sg64
(lp314
S'domain'
p315
asbag57
(g78
g59
NtRp316
(dp317
g62
(dp318
g89
g90
ssg71
g307
sg64
(lp319
S':'
asbag57
(g78
g59
NtRp320
(dp321
g62
(dp322
sg71
g307
sg64
(lp323
g57
(g58
g59
NtRp324
(dp325
g62
(dp326
g70
I3
ssg71
g320
sg64
(lp327
S''
asbasbasbag57
(g73
g59
NtRp328
(dp329
g62
(dp330
sg71
g282
sg64
(lp331
g57
(g78
g59
NtRp332
(dp333
g62
(dp334
g82
g83
ssg71
g328
sg64
(lp335
S'expires'
p336
asbag57
(g78
g59
NtRp337
(dp338
g62
(dp339
g89
g90
ssg71
g328
sg64
(lp340
S':'
asbag57
(g78
g59
NtRp341
(dp342
g62
(dp343
sg71
g328
sg64
(lp344
g57
(g58
g59
NtRp345
(dp346
g62
(dp347
g70
I3
ssg71
g341
sg64
(lp348
S''
asbasbasbag57
(g73
g59
NtRp349
(dp350
g62
(dp351
sg71
g282
sg64
(lp352
g57
(g78
g59
NtRp353
(dp354
g62
(dp355
g82
g83
ssg71
g349
sg64
(lp356
S'httponly'
p357
asbag57
(g78
g59
NtRp358
(dp359
g62
(dp360
g89
g90
ssg71
g349
sg64
(lp361
S':'
asbag57
(g78
g59
NtRp362
(dp363
g62
(dp364
sg71
g349
sg64
(lp365
g57
(g58
g59
NtRp366
(dp367
g62
(dp368
g70
I3
ssg71
g362
sg64
(lp369
S''
asbasbasbag57
(g73
g59
NtRp370
(dp371
g62
(dp372
sg71
g282
sg64
(lp373
g57
(g78
g59
NtRp374
(dp375
g62
(dp376
g82
g83
ssg71
g370
sg64
(lp377
S'max-age'
p378
asbag57
(g78
g59
NtRp379
(dp380
g62
(dp381
g89
g90
ssg71
g370
sg64
(lp382
S':'
asbag57
(g78
g59
NtRp383
(dp384
g62
(dp385
sg71
g370
sg64
(lp386
g57
(g58
g59
NtRp387
(dp388
g62
(dp389
g70
I3
ssg71
g383
sg64
(lp390
S''
asbasbasbag57
(g73
g59
NtRp391
(dp392
g62
(dp393
sg71
g282
sg64
(lp394
g57
(g78
g59
NtRp395
(dp396
g62
(dp397
g82
g83
ssg71
g391
sg64
(lp398
S'path'
p399
asbag57
(g78
g59
NtRp400
(dp401
g62
(dp402
g89
g90
ssg71
g391
sg64
(lp403
S':'
asbag57
(g78
g59
NtRp404
(dp405
g62
(dp406
sg71
g391
sg64
(lp407
g57
(g58
g59
NtRp408
(dp409
g62
(dp410
g70
I3
ssg71
g404
sg64
(lp411
S''
asbasbasbag57
(g73
g59
NtRp412
(dp413
g62
(dp414
sg71
g282
sg64
(lp415
g57
(g78
g59
NtRp416
(dp417
g62
(dp418
g82
g83
ssg71
g412
sg64
(lp419
S'secure'
p420
asbag57
(g78
g59
NtRp421
(dp422
g62
(dp423
g89
g90
ssg71
g412
sg64
(lp424
S':'
asbag57
(g78
g59
NtRp425
(dp426
g62
(dp427
sg71
g412
sg64
(lp428
g57
(g58
g59
NtRp429
(dp430
g62
(dp431
g70
I3
ssg71
g425
sg64
(lp432
S''
asbasbasbag57
(g73
g59
NtRp433
(dp434
g62
(dp435
sg71
g282
sg64
(lp436
g57
(g78
g59
NtRp437
(dp438
g62
(dp439
g82
g83
ssg71
g433
sg64
(lp440
S'version'
p441
asbag57
(g78
g59
NtRp442
(dp443
g62
(dp444
g89
g90
ssg71
g433
sg64
(lp445
S':'
asbag57
(g78
g59
NtRp446
(dp447
g62
(dp448
sg71
g433
sg64
(lp449
g57
(g58
g59
NtRp450
(dp451
g62
(dp452
g70
I3
ssg71
g446
sg64
(lp453
S''
asbasbasbasbasbasbasbag57
(g73
g59
NtRp454
(dp455
g62
(dp456
sg71
g256
sg64
(lp457
g57
(g78
g59
NtRp458
(dp459
g62
(dp460
g82
g83
ssg71
g454
sg64
(lp461
S'session_id_sueldos'
p462
asbag57
(g78
g59
NtRp463
(dp464
g62
(dp465
g89
g90
ssg71
g454
sg64
(lp466
S':'
asbag57
(g78
g59
NtRp467
(dp468
g62
(dp469
sg71
g454
sg64
(lp470
g57
(g58
g59
NtRp471
(dp472
g62
(dp473
g70
I4
ssg71
g467
sg64
(lp474
S'127.0.0.1-05ce4365-dc54-4394-bd3e-60890d75bc96'
p475
ag57
(g66
g59
NtRp476
(dp477
g62
(dp478
g70
I3
ssg71
Nsg64
(lp479
g57
(g73
g59
NtRp480
(dp481
g62
(dp482
sg71
g476
sg64
(lp483
g57
(g78
g59
NtRp484
(dp485
g62
(dp486
g82
g83
ssg71
g480
sg64
(lp487
g294
asbag57
(g78
g59
NtRp488
(dp489
g62
(dp490
g89
g90
ssg71
g480
sg64
(lp491
S':'
asbag57
(g78
g59
NtRp492
(dp493
g62
(dp494
sg71
g480
sg64
(lp495
g57
(g58
g59
NtRp496
(dp497
g62
(dp498
g70
I3
ssg71
g492
sg64
(lp499
S''
asbasbasbag57
(g73
g59
NtRp500
(dp501
g62
(dp502
sg71
g476
sg64
(lp503
g57
(g78
g59
NtRp504
(dp505
g62
(dp506
g82
g83
ssg71
g500
sg64
(lp507
g315
asbag57
(g78
g59
NtRp508
(dp509
g62
(dp510
g89
g90
ssg71
g500
sg64
(lp511
S':'
asbag57
(g78
g59
NtRp512
(dp513
g62
(dp514
sg71
g500
sg64
(lp515
g57
(g58
g59
NtRp516
(dp517
g62
(dp518
g70
I3
ssg71
g512
sg64
(lp519
S''
asbasbasbag57
(g73
g59
NtRp520
(dp521
g62
(dp522
sg71
g476
sg64
(lp523
g57
(g78
g59
NtRp524
(dp525
g62
(dp526
g82
g83
ssg71
g520
sg64
(lp527
g336
asbag57
(g78
g59
NtRp528
(dp529
g62
(dp530
g89
g90
ssg71
g520
sg64
(lp531
S':'
asbag57
(g78
g59
NtRp532
(dp533
g62
(dp534
sg71
g520
sg64
(lp535
g57
(g58
g59
NtRp536
(dp537
g62
(dp538
g70
I3
ssg71
g532
sg64
(lp539
S''
asbasbasbag57
(g73
g59
NtRp540
(dp541
g62
(dp542
sg71
g476
sg64
(lp543
g57
(g78
g59
NtRp544
(dp545
g62
(dp546
g82
g83
ssg71
g540
sg64
(lp547
g357
asbag57
(g78
g59
NtRp548
(dp549
g62
(dp550
g89
g90
ssg71
g540
sg64
(lp551
S':'
asbag57
(g78
g59
NtRp552
(dp553
g62
(dp554
sg71
g540
sg64
(lp555
g57
(g58
g59
NtRp556
(dp557
g62
(dp558
g70
I3
ssg71
g552
sg64
(lp559
S''
asbasbasbag57
(g73
g59
NtRp560
(dp561
g62
(dp562
sg71
g476
sg64
(lp563
g57
(g78
g59
NtRp564
(dp565
g62
(dp566
g82
g83
ssg71
g560
sg64
(lp567
g378
asbag57
(g78
g59
NtRp568
(dp569
g62
(dp570
g89
g90
ssg71
g560
sg64
(lp571
S':'
asbag57
(g78
g59
NtRp572
(dp573
g62
(dp574
sg71
g560
sg64
(lp575
g57
(g58
g59
NtRp576
(dp577
g62
(dp578
g70
I3
ssg71
g572
sg64
(lp579
S''
asbasbasbag57
(g73
g59
NtRp580
(dp581
g62
(dp582
sg71
g476
sg64
(lp583
g57
(g78
g59
NtRp584
(dp585
g62
(dp586
g82
g83
ssg71
g580
sg64
(lp587
g399
asbag57
(g78
g59
NtRp588
(dp589
g62
(dp590
g89
g90
ssg71
g580
sg64
(lp591
S':'
asbag57
(g78
g59
NtRp592
(dp593
g62
(dp594
sg71
g580
sg64
(lp595
g57
(g58
g59
NtRp596
(dp597
g62
(dp598
g70
I3
ssg71
g592
sg64
(lp599
S''
asbasbasbag57
(g73
g59
NtRp600
(dp601
g62
(dp602
sg71
g476
sg64
(lp603
g57
(g78
g59
NtRp604
(dp605
g62
(dp606
g82
g83
ssg71
g600
sg64
(lp607
g420
asbag57
(g78
g59
NtRp608
(dp609
g62
(dp610
g89
g90
ssg71
g600
sg64
(lp611
S':'
asbag57
(g78
g59
NtRp612
(dp613
g62
(dp614
sg71
g600
sg64
(lp615
g57
(g58
g59
NtRp616
(dp617
g62
(dp618
g70
I3
ssg71
g612
sg64
(lp619
S''
asbasbasbag57
(g73
g59
NtRp620
(dp621
g62
(dp622
sg71
g476
sg64
(lp623
g57
(g78
g59
NtRp624
(dp625
g62
(dp626
g82
g83
ssg71
g620
sg64
(lp627
g441
asbag57
(g78
g59
NtRp628
(dp629
g62
(dp630
g89
g90
ssg71
g620
sg64
(lp631
S':'
asbag57
(g78
g59
NtRp632
(dp633
g62
(dp634
sg71
g620
sg64
(lp635
g57
(g58
g59
NtRp636
(dp637
g62
(dp638
g70
I3
ssg71
g632
sg64
(lp639
S''
asbasbasbasbasbasbasbasbasbasbasbag57
(g73
g59
NtRp640
(dp641
g62
(dp642
sg71
g67
sg64
(lp643
g57
(g78
g59
NtRp644
(dp645
g62
(dp646
g82
g83
ssg71
g640
sg64
(lp647
S'env'
p648
asbag57
(g78
g59
NtRp649
(dp650
g62
(dp651
g89
g90
ssg71
g640
sg64
(lp652
S':'
asbag57
(g78
g59
NtRp653
(dp654
g62
(dp655
sg71
g640
sg64
(lp656
g57
(g58
g59
NtRp657
(dp658
g62
(dp659
g70
I5
ssg71
g653
sg64
(lp660
g57
(g66
g59
NtRp661
(dp662
g62
(dp663
g70
I4
ssg71
Nsg64
(lp664
g57
(g73
g59
NtRp665
(dp666
g62
(dp667
sg71
g661
sg64
(lp668
g57
(g78
g59
NtRp669
(dp670
g62
(dp671
g82
g83
ssg71
g665
sg64
(lp672
S'app_folders'
p673
asbag57
(g78
g59
NtRp674
(dp675
g62
(dp676
g89
g90
ssg71
g665
sg64
(lp677
S':'
asbag57
(g78
g59
NtRp678
(dp679
g62
(dp680
sg71
g665
sg64
(lp681
g57
(g58
g59
NtRp682
(dp683
g62
(dp684
g70
I4
ssg71
g678
sg64
(lp685
S"set(['/home/marco/projects/contabilidad/web2py/applications/admin/', '/home/marco/projects/contabilidad/web2py/applications/sueldos/'])"
p686
asbasbasbag57
(g73
g59
NtRp687
(dp688
g62
(dp689
sg71
g661
sg64
(lp690
g57
(g78
g59
NtRp691
(dp692
g62
(dp693
g82
g83
ssg71
g687
sg64
(lp694
S'applications_parent'
p695
asbag57
(g78
g59
NtRp696
(dp697
g62
(dp698
g89
g90
ssg71
g687
sg64
(lp699
S':'
asbag57
(g78
g59
NtRp700
(dp701
g62
(dp702
sg71
g687
sg64
(lp703
g57
(g58
g59
NtRp704
(dp705
g62
(dp706
g70
I4
ssg71
g700
sg64
(lp707
S'/home/marco/projects/contabilidad/web2py'
p708
asbasbasbag57
(g73
g59
NtRp709
(dp710
g62
(dp711
sg71
g661
sg64
(lp712
g57
(g78
g59
NtRp713
(dp714
g62
(dp715
g82
g83
ssg71
g709
sg64
(lp716
S'cmd_args'
p717
asbag57
(g78
g59
NtRp718
(dp719
g62
(dp720
g89
g90
ssg71
g709
sg64
(lp721
S':'
asbag57
(g78
g59
NtRp722
(dp723
g62
(dp724
sg71
g709
sg64
(lp725
g57
(g58
g59
NtRp726
(dp727
g62
(dp728
g70
I4
ssg71
g722
sg64
(lp729
g57
(g66
g59
NtRp730
(dp731
g62
(dp732
g70
I3
ssg71
Nsg64
(lp733
sbasbasbasbag57
(g73
g59
NtRp734
(dp735
g62
(dp736
sg71
g661
sg64
(lp737
g57
(g78
g59
NtRp738
(dp739
g62
(dp740
g82
g83
ssg71
g734
sg64
(lp741
S'cmd_options'
p742
asbag57
(g78
g59
NtRp743
(dp744
g62
(dp745
g89
g90
ssg71
g734
sg64
(lp746
S':'
asbag57
(g78
g59
NtRp747
(dp748
g62
(dp749
sg71
g734
sg64
(lp750
g57
(g58
g59
NtRp751
(dp752
g62
(dp753
g70
I4
ssg71
g747
sg64
(lp754
S"<Values at 0x2e6b5a8: {'verbose': False, 'ip': '127.0.0.1', 'with_scheduler': False, 'ips': [], 'shutdown_timeout': 5, 'taskbar': False, 'port': 8000, 'maxthreads': None, 'softcron': False, 'server_name': 'malena', 'bpython': False, 'nogui': False, 'pid_filename': 'httpserver.pid', 'extcron': False, 'runcron': False, 'run_system_tests': False, 'test': None, 'folder': '/home/marco/projects/contabilidad/web2py', 'config': '', 'minthreads': None, 'winservice': '', 'shell': None, 'run': '', 'log_filename': 'httpserver.log', 'debuglevel': 30, 'args': [''], 'socket_timeout': 5, 'ssl_ca_certificate': None, 'scheduler': None, 'profiler_filename': None, 'ssl_private_key': '', 'scheduler_groups': None, 'password': 'asd', 'request_queue_size': 5, 'ssl_certificate': '', 'cronjob': False, 'numthreads': None, 'quiet': False, 'interfaces': None, 'import_models': False, 'timeout': 10, 'plain': False, 'nobanner': False}>"
p755
asbasbasbag57
(g73
g59
NtRp756
(dp757
g62
(dp758
sg71
g661
sg64
(lp759
g57
(g78
g59
NtRp760
(dp761
g62
(dp762
g82
g83
ssg71
g756
sg64
(lp763
S'db_sessions'
p764
asbag57
(g78
g59
NtRp765
(dp766
g62
(dp767
g89
g90
ssg71
g756
sg64
(lp768
S':'
asbag57
(g78
g59
NtRp769
(dp770
g62
(dp771
sg71
g756
sg64
(lp772
g57
(g58
g59
NtRp773
(dp774
g62
(dp775
g70
I4
ssg71
g769
sg64
(lp776
S'set([])'
p777
asbasbasbag57
(g73
g59
NtRp778
(dp779
g62
(dp780
sg71
g661
sg64
(lp781
g57
(g78
g59
NtRp782
(dp783
g62
(dp784
g82
g83
ssg71
g778
sg64
(lp785
S'debugging'
p786
asbag57
(g78
g59
NtRp787
(dp788
g62
(dp789
g89
g90
ssg71
g778
sg64
(lp790
S':'
asbag57
(g78
g59
NtRp791
(dp792
g62
(dp793
sg71
g778
sg64
(lp794
g57
(g58
g59
NtRp795
(dp796
g62
(dp797
g70
I4
ssg71
g791
sg64
(lp798
g100
asbasbasbag57
(g73
g59
NtRp799
(dp800
g62
(dp801
sg71
g661
sg64
(lp802
g57
(g78
g59
NtRp803
(dp804
g62
(dp805
g82
g83
ssg71
g799
sg64
(lp806
S'gluon_parent'
p807
asbag57
(g78
g59
NtRp808
(dp809
g62
(dp810
g89
g90
ssg71
g799
sg64
(lp811
S':'
asbag57
(g78
g59
NtRp812
(dp813
g62
(dp814
sg71
g799
sg64
(lp815
g57
(g58
g59
NtRp816
(dp817
g62
(dp818
g70
I4
ssg71
g812
sg64
(lp819
S'/home/marco/projects/contabilidad/web2py'
p820
asbasbasbag57
(g73
g59
NtRp821
(dp822
g62
(dp823
sg71
g661
sg64
(lp824
g57
(g78
g59
NtRp825
(dp826
g62
(dp827
g82
g83
ssg71
g821
sg64
(lp828
S'http_accept'
p829
asbag57
(g78
g59
NtRp830
(dp831
g62
(dp832
g89
g90
ssg71
g821
sg64
(lp833
S':'
asbag57
(g78
g59
NtRp834
(dp835
g62
(dp836
sg71
g821
sg64
(lp837
g57
(g58
g59
NtRp838
(dp839
g62
(dp840
g70
I4
ssg71
g834
sg64
(lp841
S'text/html,application/xhtml+xml,application/xml;q=0.9,*/*;q=0.8'
p842
asbasbasbag57
(g73
g59
NtRp843
(dp844
g62
(dp845
sg71
g661
sg64
(lp846
g57
(g78
g59
NtRp847
(dp848
g62
(dp849
g82
g83
ssg71
g843
sg64
(lp850
S'http_accept_encoding'
p851
asbag57
(g78
g59
NtRp852
(dp853
g62
(dp854
g89
g90
ssg71
g843
sg64
(lp855
S':'
asbag57
(g78
g59
NtRp856
(dp857
g62
(dp858
sg71
g843
sg64
(lp859
g57
(g58
g59
NtRp860
(dp861
g62
(dp862
g70
I4
ssg71
g856
sg64
(lp863
S'gzip, deflate'
p864
asbasbasbag57
(g73
g59
NtRp865
(dp866
g62
(dp867
sg71
g661
sg64
(lp868
g57
(g78
g59
NtRp869
(dp870
g62
(dp871
g82
g83
ssg71
g865
sg64
(lp872
S'http_accept_language'
p873
asbag57
(g78
g59
NtRp874
(dp875
g62
(dp876
g89
g90
ssg71
g865
sg64
(lp877
S':'
asbag57
(g78
g59
NtRp878
(dp879
g62
(dp880
sg71
g865
sg64
(lp881
g57
(g58
g59
NtRp882
(dp883
g62
(dp884
g70
I4
ssg71
g878
sg64
(lp885
S'en-US,en;q=0.5'
p886
asbasbasbag57
(g73
g59
NtRp887
(dp888
g62
(dp889
sg71
g661
sg64
(lp890
g57
(g78
g59
NtRp891
(dp892
g62
(dp893
g82
g83
ssg71
g887
sg64
(lp894
S'http_connection'
p895
asbag57
(g78
g59
NtRp896
(dp897
g62
(dp898
g89
g90
ssg71
g887
sg64
(lp899
S':'
asbag57
(g78
g59
NtRp900
(dp901
g62
(dp902
sg71
g887
sg64
(lp903
g57
(g58
g59
NtRp904
(dp905
g62
(dp906
g70
I4
ssg71
g900
sg64
(lp907
S'keep-alive'
p908
asbasbasbag57
(g73
g59
NtRp909
(dp910
g62
(dp911
sg71
g661
sg64
(lp912
g57
(g78
g59
NtRp913
(dp914
g62
(dp915
g82
g83
ssg71
g909
sg64
(lp916
S'http_cookie'
p917
asbag57
(g78
g59
NtRp918
(dp919
g62
(dp920
g89
g90
ssg71
g909
sg64
(lp921
S':'
asbag57
(g78
g59
NtRp922
(dp923
g62
(dp924
sg71
g909
sg64
(lp925
g57
(g58
g59
NtRp926
(dp927
g62
(dp928
g70
I4
ssg71
g922
sg64
(lp929
S'session_id_sueldos=127.0.0.1-05ce4365-dc54-4394-bd3e-60890d75bc96; session_id_admin=127.0.0.1-02abd043-fc6c-40a0-be95-723d18a22c5d'
p930
asbasbasbag57
(g73
g59
NtRp931
(dp932
g62
(dp933
sg71
g661
sg64
(lp934
g57
(g78
g59
NtRp935
(dp936
g62
(dp937
g82
g83
ssg71
g931
sg64
(lp938
S'http_host'
p939
asbag57
(g78
g59
NtRp940
(dp941
g62
(dp942
g89
g90
ssg71
g931
sg64
(lp943
S':'
asbag57
(g78
g59
NtRp944
(dp945
g62
(dp946
sg71
g931
sg64
(lp947
g57
(g58
g59
NtRp948
(dp949
g62
(dp950
g70
I4
ssg71
g944
sg64
(lp951
S'127.0.0.1:8000'
p952
asbasbasbag57
(g73
g59
NtRp953
(dp954
g62
(dp955
sg71
g661
sg64
(lp956
g57
(g78
g59
NtRp957
(dp958
g62
(dp959
g82
g83
ssg71
g953
sg64
(lp960
S'http_referer'
p961
asbag57
(g78
g59
NtRp962
(dp963
g62
(dp964
g89
g90
ssg71
g953
sg64
(lp965
S':'
asbag57
(g78
g59
NtRp966
(dp967
g62
(dp968
sg71
g953
sg64
(lp969
g57
(g58
g59
NtRp970
(dp971
g62
(dp972
g70
I4
ssg71
g966
sg64
(lp973
S'http://127.0.0.1:8000/sueldos/default/convenios'
p974
asbasbasbag57
(g73
g59
NtRp975
(dp976
g62
(dp977
sg71
g661
sg64
(lp978
g57
(g78
g59
NtRp979
(dp980
g62
(dp981
g82
g83
ssg71
g975
sg64
(lp982
S'http_user_agent'
p983
asbag57
(g78
g59
NtRp984
(dp985
g62
(dp986
g89
g90
ssg71
g975
sg64
(lp987
S':'
asbag57
(g78
g59
NtRp988
(dp989
g62
(dp990
sg71
g975
sg64
(lp991
g57
(g58
g59
NtRp992
(dp993
g62
(dp994
g70
I4
ssg71
g988
sg64
(lp995
S'Mozilla/5.0 (X11; Linux x86_64; rv:18.0) Gecko/20100101 Firefox/18.0 Iceweasel/18.0'
p996
asbasbasbag57
(g73
g59
NtRp997
(dp998
g62
(dp999
sg71
g661
sg64
(lp1000
g57
(g78
g59
NtRp1001
(dp1002
g62
(dp1003
g82
g83
ssg71
g997
sg64
(lp1004
S'is_jython'
p1005
asbag57
(g78
g59
NtRp1006
(dp1007
g62
(dp1008
g89
g90
ssg71
g997
sg64
(lp1009
S':'
asbag57
(g78
g59
NtRp1010
(dp1011
g62
(dp1012
sg71
g997
sg64
(lp1013
g57
(g58
g59
NtRp1014
(dp1015
g62
(dp1016
g70
I4
ssg71
g1010
sg64
(lp1017
g100
asbasbasbag57
(g73
g59
NtRp1018
(dp1019
g62
(dp1020
sg71
g661
sg64
(lp1021
g57
(g78
g59
NtRp1022
(dp1023
g62
(dp1024
g82
g83
ssg71
g1018
sg64
(lp1025
S'is_pypy'
p1026
asbag57
(g78
g59
NtRp1027
(dp1028
g62
(dp1029
g89
g90
ssg71
g1018
sg64
(lp1030
S':'
asbag57
(g78
g59
NtRp1031
(dp1032
g62
(dp1033
sg71
g1018
sg64
(lp1034
g57
(g58
g59
NtRp1035
(dp1036
g62
(dp1037
g70
I4
ssg71
g1031
sg64
(lp1038
g100
asbasbasbag57
(g73
g59
NtRp1039
(dp1040
g62
(dp1041
sg71
g661
sg64
(lp1042
g57
(g78
g59
NtRp1043
(dp1044
g62
(dp1045
g82
g83
ssg71
g1039
sg64
(lp1046
S'local_hosts'
p1047
asbag57
(g78
g59
NtRp1048
(dp1049
g62
(dp1050
g89
g90
ssg71
g1039
sg64
(lp1051
S':'
asbag57
(g78
g59
NtRp1052
(dp1053
g62
(dp1054
sg71
g1039
sg64
(lp1055
g57
(g58
g59
NtRp1056
(dp1057
g62
(dp1058
g70
I4
ssg71
g1052
sg64
(lp1059
g57
(g66
g59
NtRp1060
(dp1061
g62
(dp1062
g70
I3
ssg71
Nsg64
(lp1063
g57
(g73
g59
NtRp1064
(dp1065
g62
(dp1066
sg71
g1060
sg64
(lp1067
g57
(g78
g59
NtRp1068
(dp1069
g62
(dp1070
sg71
g1064
sg64
(lp1071
g57
(g58
g59
NtRp1072
(dp1073
g62
(dp1074
g70
I3
ssg71
g1068
sg64
(lp1075
S'malena'
p1076
asbasbasbag57
(g73
g59
NtRp1077
(dp1078
g62
(dp1079
sg71
g1060
sg64
(lp1080
g57
(g78
g59
NtRp1081
(dp1082
g62
(dp1083
sg71
g1077
sg64
(lp1084
g57
(g58
g59
NtRp1085
(dp1086
g62
(dp1087
g70
I3
ssg71
g1081
sg64
(lp1088
S'::1'
p1089
asbasbasbag57
(g73
g59
NtRp1090
(dp1091
g62
(dp1092
sg71
g1060
sg64
(lp1093
g57
(g78
g59
NtRp1094
(dp1095
g62
(dp1096
sg71
g1090
sg64
(lp1097
g57
(g58
g59
NtRp1098
(dp1099
g62
(dp1100
g70
I3
ssg71
g1094
sg64
(lp1101
S'127.0.1.1'
p1102
asbasbasbag57
(g73
g59
NtRp1103
(dp1104
g62
(dp1105
sg71
g1060
sg64
(lp1106
g57
(g78
g59
NtRp1107
(dp1108
g62
(dp1109
sg71
g1103
sg64
(lp1110
g57
(g58
g59
NtRp1111
(dp1112
g62
(dp1113
g70
I3
ssg71
g1107
sg64
(lp1114
S'::ffff:127.0.0.1'
p1115
asbasbasbag57
(g73
g59
NtRp1116
(dp1117
g62
(dp1118
sg71
g1060
sg64
(lp1119
g57
(g78
g59
NtRp1120
(dp1121
g62
(dp1122
sg71
g1116
sg64
(lp1123
g57
(g58
g59
NtRp1124
(dp1125
g62
(dp1126
g70
I3
ssg71
g1120
sg64
(lp1127
S'127.0.0.1'
p1128
asbasbasbasbasbasbasbag57
(g73
g59
NtRp1129
(dp1130
g62
(dp1131
sg71
g661
sg64
(lp1132
g57
(g78
g59
NtRp1133
(dp1134
g62
(dp1135
g82
g83
ssg71
g1129
sg64
(lp1136
S'path_info'
p1137
asbag57
(g78
g59
NtRp1138
(dp1139
g62
(dp1140
g89
g90
ssg71
g1129
sg64
(lp1141
S':'
asbag57
(g78
g59
NtRp1142
(dp1143
g62
(dp1144
sg71
g1129
sg64
(lp1145
g57
(g58
g59
NtRp1146
(dp1147
g62
(dp1148
g70
I4
ssg71
g1142
sg64
(lp1149
S'/sueldos/vistas/importes'
p1150
asbasbasbag57
(g73
g59
NtRp1151
(dp1152
g62
(dp1153
sg71
g661
sg64
(lp1154
g57
(g78
g59
NtRp1155
(dp1156
g62
(dp1157
g82
g83
ssg71
g1151
sg64
(lp1158
S'query_string'
p1159
asbag57
(g78
g59
NtRp1160
(dp1161
g62
(dp1162
g89
g90
ssg71
g1151
sg64
(lp1163
S':'
asbag57
(g78
g59
NtRp1164
(dp1165
g62
(dp1166
sg71
g1151
sg64
(lp1167
g57
(g58
g59
NtRp1168
(dp1169
g62
(dp1170
g70
I4
ssg71
g1164
sg64
(lp1171
S'gremio=1&sindicato=ALIMENTACI%C3%93N'
p1172
asbasbasbag57
(g73
g59
NtRp1173
(dp1174
g62
(dp1175
sg71
g661
sg64
(lp1176
g57
(g78
g59
NtRp1177
(dp1178
g62
(dp1179
g82
g83
ssg71
g1173
sg64
(lp1180
S'remote_addr'
p1181
asbag57
(g78
g59
NtRp1182
(dp1183
g62
(dp1184
g89
g90
ssg71
g1173
sg64
(lp1185
S':'
asbag57
(g78
g59
NtRp1186
(dp1187
g62
(dp1188
sg71
g1173
sg64
(lp1189
g57
(g58
g59
NtRp1190
(dp1191
g62
(dp1192
g70
I4
ssg71
g1186
sg64
(lp1193
g212
asbasbasbag57
(g73
g59
NtRp1194
(dp1195
g62
(dp1196
sg71
g661
sg64
(lp1197
g57
(g78
g59
NtRp1198
(dp1199
g62
(dp1200
g82
g83
ssg71
g1194
sg64
(lp1201
S'remote_port'
p1202
asbag57
(g78
g59
NtRp1203
(dp1204
g62
(dp1205
g89
g90
ssg71
g1194
sg64
(lp1206
S':'
asbag57
(g78
g59
NtRp1207
(dp1208
g62
(dp1209
sg71
g1194
sg64
(lp1210
g57
(g58
g59
NtRp1211
(dp1212
g62
(dp1213
g70
I4
ssg71
g1207
sg64
(lp1214
S'51886'
p1215
asbasbasbag57
(g73
g59
NtRp1216
(dp1217
g62
(dp1218
sg71
g661
sg64
(lp1219
g57
(g78
g59
NtRp1220
(dp1221
g62
(dp1222
g82
g83
ssg71
g1216
sg64
(lp1223
S'request_method'
p1224
asbag57
(g78
g59
NtRp1225
(dp1226
g62
(dp1227
g89
g90
ssg71
g1216
sg64
(lp1228
S':'
asbag57
(g78
g59
NtRp1229
(dp1230
g62
(dp1231
sg71
g1216
sg64
(lp1232
g57
(g58
g59
NtRp1233
(dp1234
g62
(dp1235
g70
I4
ssg71
g1229
sg64
(lp1236
S'GET'
p1237
asbasbasbag57
(g73
g59
NtRp1238
(dp1239
g62
(dp1240
sg71
g661
sg64
(lp1241
g57
(g78
g59
NtRp1242
(dp1243
g62
(dp1244
g82
g83
ssg71
g1238
sg64
(lp1245
S'request_uri'
p1246
asbag57
(g78
g59
NtRp1247
(dp1248
g62
(dp1249
g89
g90
ssg71
g1238
sg64
(lp1250
S':'
asbag57
(g78
g59
NtRp1251
(dp1252
g62
(dp1253
sg71
g1238
sg64
(lp1254
g57
(g58
g59
NtRp1255
(dp1256
g62
(dp1257
g70
I4
ssg71
g1251
sg64
(lp1258
S'/sueldos/vistas/importes?gremio=1&sindicato=ALIMENTACI%C3%93N'
p1259
asbasbasbag57
(g73
g59
NtRp1260
(dp1261
g62
(dp1262
sg71
g661
sg64
(lp1263
g57
(g78
g59
NtRp1264
(dp1265
g62
(dp1266
g82
g83
ssg71
g1260
sg64
(lp1267
S'script_name'
p1268
asbag57
(g78
g59
NtRp1269
(dp1270
g62
(dp1271
g89
g90
ssg71
g1260
sg64
(lp1272
S':'
asbag57
(g78
g59
NtRp1273
(dp1274
g62
(dp1275
sg71
g1260
sg64
(lp1276
g57
(g58
g59
NtRp1277
(dp1278
g62
(dp1279
g70
I4
ssg71
g1273
sg64
(lp1280
S''
asbasbasbag57
(g73
g59
NtRp1281
(dp1282
g62
(dp1283
sg71
g661
sg64
(lp1284
g57
(g78
g59
NtRp1285
(dp1286
g62
(dp1287
g82
g83
ssg71
g1281
sg64
(lp1288
S'server_name'
p1289
asbag57
(g78
g59
NtRp1290
(dp1291
g62
(dp1292
g89
g90
ssg71
g1281
sg64
(lp1293
S':'
asbag57
(g78
g59
NtRp1294
(dp1295
g62
(dp1296
sg71
g1281
sg64
(lp1297
g57
(g58
g59
NtRp1298
(dp1299
g62
(dp1300
g70
I4
ssg71
g1294
sg64
(lp1301
S'malena'
p1302
asbasbasbag57
(g73
g59
NtRp1303
(dp1304
g62
(dp1305
sg71
g661
sg64
(lp1306
g57
(g78
g59
NtRp1307
(dp1308
g62
(dp1309
g82
g83
ssg71
g1303
sg64
(lp1310
S'server_port'
p1311
asbag57
(g78
g59
NtRp1312
(dp1313
g62
(dp1314
g89
g90
ssg71
g1303
sg64
(lp1315
S':'
asbag57
(g78
g59
NtRp1316
(dp1317
g62
(dp1318
sg71
g1303
sg64
(lp1319
g57
(g58
g59
NtRp1320
(dp1321
g62
(dp1322
g70
I4
ssg71
g1316
sg64
(lp1323
S'8000'
p1324
asbasbasbag57
(g73
g59
NtRp1325
(dp1326
g62
(dp1327
sg71
g661
sg64
(lp1328
g57
(g78
g59
NtRp1329
(dp1330
g62
(dp1331
g82
g83
ssg71
g1325
sg64
(lp1332
S'server_protocol'
p1333
asbag57
(g78
g59
NtRp1334
(dp1335
g62
(dp1336
g89
g90
ssg71
g1325
sg64
(lp1337
S':'
asbag57
(g78
g59
NtRp1338
(dp1339
g62
(dp1340
sg71
g1325
sg64
(lp1341
g57
(g58
g59
NtRp1342
(dp1343
g62
(dp1344
g70
I4
ssg71
g1338
sg64
(lp1345
S'HTTP/1.1'
p1346
asbasbasbag57
(g73
g59
NtRp1347
(dp1348
g62
(dp1349
sg71
g661
sg64
(lp1350
g57
(g78
g59
NtRp1351
(dp1352
g62
(dp1353
g82
g83
ssg71
g1347
sg64
(lp1354
S'server_software'
p1355
asbag57
(g78
g59
NtRp1356
(dp1357
g62
(dp1358
g89
g90
ssg71
g1347
sg64
(lp1359
S':'
asbag57
(g78
g59
NtRp1360
(dp1361
g62
(dp1362
sg71
g1347
sg64
(lp1363
g57
(g58
g59
NtRp1364
(dp1365
g62
(dp1366
g70
I4
ssg71
g1360
sg64
(lp1367
S'Rocket 1.2.6'
p1368
asbasbasbag57
(g73
g59
NtRp1369
(dp1370
g62
(dp1371
sg71
g661
sg64
(lp1372
g57
(g78
g59
NtRp1373
(dp1374
g62
(dp1375
g82
g83
ssg71
g1369
sg64
(lp1376
S'web2py_path'
p1377
asbag57
(g78
g59
NtRp1378
(dp1379
g62
(dp1380
g89
g90
ssg71
g1369
sg64
(lp1381
S':'
asbag57
(g78
g59
NtRp1382
(dp1383
g62
(dp1384
sg71
g1369
sg64
(lp1385
g57
(g58
g59
NtRp1386
(dp1387
g62
(dp1388
g70
I4
ssg71
g1382
sg64
(lp1389
g708
asbasbasbag57
(g73
g59
NtRp1390
(dp1391
g62
(dp1392
sg71
g661
sg64
(lp1393
g57
(g78
g59
NtRp1394
(dp1395
g62
(dp1396
g82
g83
ssg71
g1390
sg64
(lp1397
S'web2py_version'
p1398
asbag57
(g78
g59
NtRp1399
(dp1400
g62
(dp1401
g89
g90
ssg71
g1390
sg64
(lp1402
S':'
asbag57
(g78
g59
NtRp1403
(dp1404
g62
(dp1405
sg71
g1390
sg64
(lp1406
g57
(g58
g59
NtRp1407
(dp1408
g62
(dp1409
g70
I4
ssg71
g1403
sg64
(lp1410
g57
(g66
g59
NtRp1411
(dp1412
g62
(dp1413
g70
I3
ssg71
Nsg64
(lp1414
g57
(g73
g59
NtRp1415
(dp1416
g62
(dp1417
sg71
g1411
sg64
(lp1418
g57
(g78
g59
NtRp1419
(dp1420
g62
(dp1421
sg71
g1415
sg64
(lp1422
g57
(g58
g59
NtRp1423
(dp1424
g62
(dp1425
g70
I3
ssg71
g1419
sg64
(lp1426
S'2'
asbasbasbag57
(g73
g59
NtRp1427
(dp1428
g62
(dp1429
sg71
g1411
sg64
(lp1430
g57
(g78
g59
NtRp1431
(dp1432
g62
(dp1433
sg71
g1427
sg64
(lp1434
g57
(g58
g59
NtRp1435
(dp1436
g62
(dp1437
g70
I3
ssg71
g1431
sg64
(lp1438
S'4'
asbasbasbag57
(g73
g59
NtRp1439
(dp1440
g62
(dp1441
sg71
g1411
sg64
(lp1442
g57
(g78
g59
NtRp1443
(dp1444
g62
(dp1445
sg71
g1439
sg64
(lp1446
g57
(g58
g59
NtRp1447
(dp1448
g62
(dp1449
g70
I3
ssg71
g1443
sg64
(lp1450
S'1'
asbasbasbag57
(g73
g59
NtRp1451
(dp1452
g62
(dp1453
sg71
g1411
sg64
(lp1454
g57
(g78
g59
NtRp1455
(dp1456
g62
(dp1457
sg71
g1451
sg64
(lp1458
g57
(g58
g59
NtRp1459
(dp1460
g62
(dp1461
g70
I3
ssg71
g1455
sg64
(lp1462
S'alpha.2'
p1463
asbasbasbag57
(g73
g59
NtRp1464
(dp1465
g62
(dp1466
sg71
g1411
sg64
(lp1467
g57
(g78
g59
NtRp1468
(dp1469
g62
(dp1470
sg71
g1464
sg64
(lp1471
g57
(g58
g59
NtRp1472
(dp1473
g62
(dp1474
g70
I3
ssg71
g1468
sg64
(lp1475
S'datetime.datetime(2013, 1, 10, 21, 26, 18)'
p1476
asbasbasbasbasbasbasbag57
(g73
g59
NtRp1477
(dp1478
g62
(dp1479
sg71
g661
sg64
(lp1480
g57
(g78
g59
NtRp1481
(dp1482
g62
(dp1483
g82
g83
ssg71
g1477
sg64
(lp1484
S'wsgi_errors'
p1485
asbag57
(g78
g59
NtRp1486
(dp1487
g62
(dp1488
g89
g90
ssg71
g1477
sg64
(lp1489
S':'
asbag57
(g78
g59
NtRp1490
(dp1491
g62
(dp1492
sg71
g1477
sg64
(lp1493
g57
(g58
g59
NtRp1494
(dp1495
g62
(dp1496
g70
I4
ssg71
g1490
sg64
(lp1497
S"<open file '<stderr>', mode 'w' at 0x7fa88a0fa270>"
p1498
asbasbasbag57
(g73
g59
NtRp1499
(dp1500
g62
(dp1501
sg71
g661
sg64
(lp1502
g57
(g78
g59
NtRp1503
(dp1504
g62
(dp1505
g82
g83
ssg71
g1499
sg64
(lp1506
S'wsgi_file_wrapper'
p1507
asbag57
(g78
g59
NtRp1508
(dp1509
g62
(dp1510
g89
g90
ssg71
g1499
sg64
(lp1511
S':'
asbag57
(g78
g59
NtRp1512
(dp1513
g62
(dp1514
sg71
g1499
sg64
(lp1515
g57
(g58
g59
NtRp1516
(dp1517
g62
(dp1518
g70
I4
ssg71
g1512
sg64
(lp1519
S'<class wsgiref.util.FileWrapper at 0x2dd24c8>'
p1520
asbasbasbag57
(g73
g59
NtRp1521
(dp1522
g62
(dp1523
sg71
g661
sg64
(lp1524
g57
(g78
g59
NtRp1525
(dp1526
g62
(dp1527
g82
g83
ssg71
g1521
sg64
(lp1528
S'wsgi_input'
p1529
asbag57
(g78
g59
NtRp1530
(dp1531
g62
(dp1532
g89
g90
ssg71
g1521
sg64
(lp1533
S':'
asbag57
(g78
g59
NtRp1534
(dp1535
g62
(dp1536
sg71
g1521
sg64
(lp1537
g57
(g58
g59
NtRp1538
(dp1539
g62
(dp1540
g70
I4
ssg71
g1534
sg64
(lp1541
S'<socket._fileobject object at 0x3eb5650>'
p1542
asbasbasbag57
(g73
g59
NtRp1543
(dp1544
g62
(dp1545
sg71
g661
sg64
(lp1546
g57
(g78
g59
NtRp1547
(dp1548
g62
(dp1549
g82
g83
ssg71
g1543
sg64
(lp1550
S'wsgi_multiprocess'
p1551
asbag57
(g78
g59
NtRp1552
(dp1553
g62
(dp1554
g89
g90
ssg71
g1543
sg64
(lp1555
S':'
asbag57
(g78
g59
NtRp1556
(dp1557
g62
(dp1558
sg71
g1543
sg64
(lp1559
g57
(g58
g59
NtRp1560
(dp1561
g62
(dp1562
g70
I4
ssg71
g1556
sg64
(lp1563
g100
asbasbasbag57
(g73
g59
NtRp1564
(dp1565
g62
(dp1566
sg71
g661
sg64
(lp1567
g57
(g78
g59
NtRp1568
(dp1569
g62
(dp1570
g82
g83
ssg71
g1564
sg64
(lp1571
S'wsgi_multithread'
p1572
asbag57
(g78
g59
NtRp1573
(dp1574
g62
(dp1575
g89
g90
ssg71
g1564
sg64
(lp1576
S':'
asbag57
(g78
g59
NtRp1577
(dp1578
g62
(dp1579
sg71
g1564
sg64
(lp1580
g57
(g58
g59
NtRp1581
(dp1582
g62
(dp1583
g70
I4
ssg71
g1577
sg64
(lp1584
S'True'
p1585
asbasbasbag57
(g73
g59
NtRp1586
(dp1587
g62
(dp1588
sg71
g661
sg64
(lp1589
g57
(g78
g59
NtRp1590
(dp1591
g62
(dp1592
g82
g83
ssg71
g1586
sg64
(lp1593
S'wsgi_run_once'
p1594
asbag57
(g78
g59
NtRp1595
(dp1596
g62
(dp1597
g89
g90
ssg71
g1586
sg64
(lp1598
S':'
asbag57
(g78
g59
NtRp1599
(dp1600
g62
(dp1601
sg71
g1586
sg64
(lp1602
g57
(g58
g59
NtRp1603
(dp1604
g62
(dp1605
g70
I4
ssg71
g1599
sg64
(lp1606
g100
asbasbasbag57
(g73
g59
NtRp1607
(dp1608
g62
(dp1609
sg71
g661
sg64
(lp1610
g57
(g78
g59
NtRp1611
(dp1612
g62
(dp1613
g82
g83
ssg71
g1607
sg64
(lp1614
S'wsgi_url_scheme'
p1615
asbag57
(g78
g59
NtRp1616
(dp1617
g62
(dp1618
g89
g90
ssg71
g1607
sg64
(lp1619
S':'
asbag57
(g78
g59
NtRp1620
(dp1621
g62
(dp1622
sg71
g1607
sg64
(lp1623
g57
(g58
g59
NtRp1624
(dp1625
g62
(dp1626
g70
I4
ssg71
g1620
sg64
(lp1627
S'http'
p1628
asbasbasbag57
(g73
g59
NtRp1629
(dp1630
g62
(dp1631
sg71
g661
sg64
(lp1632
g57
(g78
g59
NtRp1633
(dp1634
g62
(dp1635
g82
g83
ssg71
g1629
sg64
(lp1636
S'wsgi_version'
p1637
asbag57
(g78
g59
NtRp1638
(dp1639
g62
(dp1640
g89
g90
ssg71
g1629
sg64
(lp1641
S':'
asbag57
(g78
g59
NtRp1642
(dp1643
g62
(dp1644
sg71
g1629
sg64
(lp1645
g57
(g58
g59
NtRp1646
(dp1647
g62
(dp1648
g70
I4
ssg71
g1642
sg64
(lp1649
g57
(g66
g59
NtRp1650
(dp1651
g62
(dp1652
g70
I3
ssg71
Nsg64
(lp1653
g57
(g73
g59
NtRp1654
(dp1655
g62
(dp1656
sg71
g1650
sg64
(lp1657
g57
(g78
g59
NtRp1658
(dp1659
g62
(dp1660
sg71
g1654
sg64
(lp1661
g57
(g58
g59
NtRp1662
(dp1663
g62
(dp1664
g70
I3
ssg71
g1658
sg64
(lp1665
S'1'
asbasbasbag57
(g73
g59
NtRp1666
(dp1667
g62
(dp1668
sg71
g1650
sg64
(lp1669
g57
(g78
g59
NtRp1670
(dp1671
g62
(dp1672
sg71
g1666
sg64
(lp1673
g57
(g58
g59
NtRp1674
(dp1675
g62
(dp1676
g70
I3
ssg71
g1670
sg64
(lp1677
S'0'
asbasbasbasbasbasbasbasbasbasbasbag57
(g73
g59
NtRp1678
(dp1679
g62
(dp1680
sg71
g67
sg64
(lp1681
g57
(g78
g59
NtRp1682
(dp1683
g62
(dp1684
g82
g83
ssg71
g1678
sg64
(lp1685
S'extension'
p1686
asbag57
(g78
g59
NtRp1687
(dp1688
g62
(dp1689
g89
g90
ssg71
g1678
sg64
(lp1690
S':'
asbag57
(g78
g59
NtRp1691
(dp1692
g62
(dp1693
sg71
g1678
sg64
(lp1694
g57
(g58
g59
NtRp1695
(dp1696
g62
(dp1697
g70
I5
ssg71
g1691
sg64
(lp1698
S'html'
p1699
asbasbasbag57
(g73
g59
NtRp1700
(dp1701
g62
(dp1702
sg71
g67
sg64
(lp1703
g57
(g78
g59
NtRp1704
(dp1705
g62
(dp1706
g82
g83
ssg71
g1700
sg64
(lp1707
S'folder'
p1708
asbag57
(g78
g59
NtRp1709
(dp1710
g62
(dp1711
g89
g90
ssg71
g1700
sg64
(lp1712
S':'
asbag57
(g78
g59
NtRp1713
(dp1714
g62
(dp1715
sg71
g1700
sg64
(lp1716
g57
(g58
g59
NtRp1717
(dp1718
g62
(dp1719
g70
I5
ssg71
g1713
sg64
(lp1720
S'/home/marco/projects/contabilidad/web2py/applications/sueldos/'
p1721
asbasbasbag57
(g73
g59
NtRp1722
(dp1723
g62
(dp1724
sg71
g67
sg64
(lp1725
g57
(g78
g59
NtRp1726
(dp1727
g62
(dp1728
g82
g83
ssg71
g1722
sg64
(lp1729
S'function'
p1730
asbag57
(g78
g59
NtRp1731
(dp1732
g62
(dp1733
g89
g90
ssg71
g1722
sg64
(lp1734
S':'
asbag57
(g78
g59
NtRp1735
(dp1736
g62
(dp1737
sg71
g1722
sg64
(lp1738
g57
(g58
g59
NtRp1739
(dp1740
g62
(dp1741
g70
I5
ssg71
g1735
sg64
(lp1742
S'importes'
p1743
asbasbasbag57
(g73
g59
NtRp1744
(dp1745
g62
(dp1746
sg71
g67
sg64
(lp1747
g57
(g78
g59
NtRp1748
(dp1749
g62
(dp1750
g82
g83
ssg71
g1744
sg64
(lp1751
S'get_vars'
p1752
asbag57
(g78
g59
NtRp1753
(dp1754
g62
(dp1755
g89
g90
ssg71
g1744
sg64
(lp1756
S':'
asbag57
(g78
g59
NtRp1757
(dp1758
g62
(dp1759
sg71
g1744
sg64
(lp1760
g57
(g58
g59
NtRp1761
(dp1762
g62
(dp1763
g70
I5
ssg71
g1757
sg64
(lp1764
g57
(g66
g59
NtRp1765
(dp1766
g62
(dp1767
g70
I4
ssg71
Nsg64
(lp1768
g57
(g73
g59
NtRp1769
(dp1770
g62
(dp1771
sg71
g1765
sg64
(lp1772
g57
(g78
g59
NtRp1773
(dp1774
g62
(dp1775
g82
g83
ssg71
g1769
sg64
(lp1776
S'gremio'
p1777
asbag57
(g78
g59
NtRp1778
(dp1779
g62
(dp1780
g89
g90
ssg71
g1769
sg64
(lp1781
S':'
asbag57
(g78
g59
NtRp1782
(dp1783
g62
(dp1784
sg71
g1769
sg64
(lp1785
g57
(g58
g59
NtRp1786
(dp1787
g62
(dp1788
g70
I4
ssg71
g1782
sg64
(lp1789
S'1'
asbasbasbag57
(g73
g59
NtRp1790
(dp1791
g62
(dp1792
sg71
g1765
sg64
(lp1793
g57
(g78
g59
NtRp1794
(dp1795
g62
(dp1796
g82
g83
ssg71
g1790
sg64
(lp1797
S'sindicato'
p1798
asbag57
(g78
g59
NtRp1799
(dp1800
g62
(dp1801
g89
g90
ssg71
g1790
sg64
(lp1802
S':'
asbag57
(g78
g59
NtRp1803
(dp1804
g62
(dp1805
sg71
g1790
sg64
(lp1806
g57
(g58
g59
NtRp1807
(dp1808
g62
(dp1809
g70
I4
ssg71
g1803
sg64
(lp1810
S'ALIMENTACI\xc3\x93N'
p1811
asbasbasbasbasbasbasbag57
(g73
g59
NtRp1812
(dp1813
g62
(dp1814
sg71
g67
sg64
(lp1815
g57
(g78
g59
NtRp1816
(dp1817
g62
(dp1818
g82
g83
ssg71
g1812
sg64
(lp1819
S'global_settings'
p1820
asbag57
(g78
g59
NtRp1821
(dp1822
g62
(dp1823
g89
g90
ssg71
g1812
sg64
(lp1824
S':'
asbag57
(g78
g59
NtRp1825
(dp1826
g62
(dp1827
sg71
g1812
sg64
(lp1828
g57
(g58
g59
NtRp1829
(dp1830
g62
(dp1831
g70
I5
ssg71
g1825
sg64
(lp1832
g57
(g66
g59
NtRp1833
(dp1834
g62
(dp1835
g70
I4
ssg71
Nsg64
(lp1836
g57
(g73
g59
NtRp1837
(dp1838
g62
(dp1839
sg71
g1833
sg64
(lp1840
g57
(g78
g59
NtRp1841
(dp1842
g62
(dp1843
g82
g83
ssg71
g1837
sg64
(lp1844
g673
asbag57
(g78
g59
NtRp1845
(dp1846
g62
(dp1847
g89
g90
ssg71
g1837
sg64
(lp1848
S':'
asbag57
(g78
g59
NtRp1849
(dp1850
g62
(dp1851
sg71
g1837
sg64
(lp1852
g57
(g58
g59
NtRp1853
(dp1854
g62
(dp1855
g70
I4
ssg71
g1849
sg64
(lp1856
S"set(['/home/marco/projects/contabilidad/web2py/applications/admin/', '/home/marco/projects/contabilidad/web2py/applications/sueldos/'])"
p1857
asbasbasbag57
(g73
g59
NtRp1858
(dp1859
g62
(dp1860
sg71
g1833
sg64
(lp1861
g57
(g78
g59
NtRp1862
(dp1863
g62
(dp1864
g82
g83
ssg71
g1858
sg64
(lp1865
g695
asbag57
(g78
g59
NtRp1866
(dp1867
g62
(dp1868
g89
g90
ssg71
g1858
sg64
(lp1869
S':'
asbag57
(g78
g59
NtRp1870
(dp1871
g62
(dp1872
sg71
g1858
sg64
(lp1873
g57
(g58
g59
NtRp1874
(dp1875
g62
(dp1876
g70
I4
ssg71
g1870
sg64
(lp1877
g708
asbasbasbag57
(g73
g59
NtRp1878
(dp1879
g62
(dp1880
sg71
g1833
sg64
(lp1881
g57
(g78
g59
NtRp1882
(dp1883
g62
(dp1884
g82
g83
ssg71
g1878
sg64
(lp1885
g717
asbag57
(g78
g59
NtRp1886
(dp1887
g62
(dp1888
g89
g90
ssg71
g1878
sg64
(lp1889
S':'
asbag57
(g78
g59
NtRp1890
(dp1891
g62
(dp1892
sg71
g1878
sg64
(lp1893
g57
(g58
g59
NtRp1894
(dp1895
g62
(dp1896
g70
I4
ssg71
g1890
sg64
(lp1897
g57
(g66
g59
NtRp1898
(dp1899
g62
(dp1900
g70
I3
ssg71
Nsg64
(lp1901
sbasbasbasbag57
(g73
g59
NtRp1902
(dp1903
g62
(dp1904
sg71
g1833
sg64
(lp1905
g57
(g78
g59
NtRp1906
(dp1907
g62
(dp1908
g82
g83
ssg71
g1902
sg64
(lp1909
g742
asbag57
(g78
g59
NtRp1910
(dp1911
g62
(dp1912
g89
g90
ssg71
g1902
sg64
(lp1913
S':'
asbag57
(g78
g59
NtRp1914
(dp1915
g62
(dp1916
sg71
g1902
sg64
(lp1917
g57
(g58
g59
NtRp1918
(dp1919
g62
(dp1920
g70
I4
ssg71
g1914
sg64
(lp1921
S"<Values at 0x2e6b5a8: {'verbose': False, 'ip': '127.0.0.1', 'with_scheduler': False, 'ips': [], 'shutdown_timeout': 5, 'taskbar': False, 'port': 8000, 'maxthreads': None, 'softcron': False, 'server_name': 'malena', 'bpython': False, 'nogui': False, 'pid_filename': 'httpserver.pid', 'extcron': False, 'runcron': False, 'run_system_tests': False, 'test': None, 'folder': '/home/marco/projects/contabilidad/web2py', 'config': '', 'minthreads': None, 'winservice': '', 'shell': None, 'run': '', 'log_filename': 'httpserver.log', 'debuglevel': 30, 'args': [''], 'socket_timeout': 5, 'ssl_ca_certificate': None, 'scheduler': None, 'profiler_filename': None, 'ssl_private_key': '', 'scheduler_groups': None, 'password': 'asd', 'request_queue_size': 5, 'ssl_certificate': '', 'cronjob': False, 'numthreads': None, 'quiet': False, 'interfaces': None, 'import_models': False, 'timeout': 10, 'plain': False, 'nobanner': False}>"
p1922
asbasbasbag57
(g73
g59
NtRp1923
(dp1924
g62
(dp1925
sg71
g1833
sg64
(lp1926
g57
(g78
g59
NtRp1927
(dp1928
g62
(dp1929
g82
g83
ssg71
g1923
sg64
(lp1930
g764
asbag57
(g78
g59
NtRp1931
(dp1932
g62
(dp1933
g89
g90
ssg71
g1923
sg64
(lp1934
S':'
asbag57
(g78
g59
NtRp1935
(dp1936
g62
(dp1937
sg71
g1923
sg64
(lp1938
g57
(g58
g59
NtRp1939
(dp1940
g62
(dp1941
g70
I4
ssg71
g1935
sg64
(lp1942
S'set([])'
p1943
asbasbasbag57
(g73
g59
NtRp1944
(dp1945
g62
(dp1946
sg71
g1833
sg64
(lp1947
g57
(g78
g59
NtRp1948
(dp1949
g62
(dp1950
g82
g83
ssg71
g1944
sg64
(lp1951
g786
asbag57
(g78
g59
NtRp1952
(dp1953
g62
(dp1954
g89
g90
ssg71
g1944
sg64
(lp1955
S':'
asbag57
(g78
g59
NtRp1956
(dp1957
g62
(dp1958
sg71
g1944
sg64
(lp1959
g57
(g58
g59
NtRp1960
(dp1961
g62
(dp1962
g70
I4
ssg71
g1956
sg64
(lp1963
g100
asbasbasbag57
(g73
g59
NtRp1964
(dp1965
g62
(dp1966
sg71
g1833
sg64
(lp1967
g57
(g78
g59
NtRp1968
(dp1969
g62
(dp1970
g82
g83
ssg71
g1964
sg64
(lp1971
g807
asbag57
(g78
g59
NtRp1972
(dp1973
g62
(dp1974
g89
g90
ssg71
g1964
sg64
(lp1975
S':'
asbag57
(g78
g59
NtRp1976
(dp1977
g62
(dp1978
sg71
g1964
sg64
(lp1979
g57
(g58
g59
NtRp1980
(dp1981
g62
(dp1982
g70
I4
ssg71
g1976
sg64
(lp1983
g820
asbasbasbag57
(g73
g59
NtRp1984
(dp1985
g62
(dp1986
sg71
g1833
sg64
(lp1987
g57
(g78
g59
NtRp1988
(dp1989
g62
(dp1990
g82
g83
ssg71
g1984
sg64
(lp1991
g1005
asbag57
(g78
g59
NtRp1992
(dp1993
g62
(dp1994
g89
g90
ssg71
g1984
sg64
(lp1995
S':'
asbag57
(g78
g59
NtRp1996
(dp1997
g62
(dp1998
sg71
g1984
sg64
(lp1999
g57
(g58
g59
NtRp2000
(dp2001
g62
(dp2002
g70
I4
ssg71
g1996
sg64
(lp2003
g100
asbasbasbag57
(g73
g59
NtRp2004
(dp2005
g62
(dp2006
sg71
g1833
sg64
(lp2007
g57
(g78
g59
NtRp2008
(dp2009
g62
(dp2010
g82
g83
ssg71
g2004
sg64
(lp2011
g1026
asbag57
(g78
g59
NtRp2012
(dp2013
g62
(dp2014
g89
g90
ssg71
g2004
sg64
(lp2015
S':'
asbag57
(g78
g59
NtRp2016
(dp2017
g62
(dp2018
sg71
g2004
sg64
(lp2019
g57
(g58
g59
NtRp2020
(dp2021
g62
(dp2022
g70
I4
ssg71
g2016
sg64
(lp2023
g100
asbasbasbag57
(g73
g59
NtRp2024
(dp2025
g62
(dp2026
sg71
g1833
sg64
(lp2027
g57
(g78
g59
NtRp2028
(dp2029
g62
(dp2030
g82
g83
ssg71
g2024
sg64
(lp2031
g1047
asbag57
(g78
g59
NtRp2032
(dp2033
g62
(dp2034
g89
g90
ssg71
g2024
sg64
(lp2035
S':'
asbag57
(g78
g59
NtRp2036
(dp2037
g62
(dp2038
sg71
g2024
sg64
(lp2039
g57
(g58
g59
NtRp2040
(dp2041
g62
(dp2042
g70
I4
ssg71
g2036
sg64
(lp2043
g57
(g66
g59
NtRp2044
(dp2045
g62
(dp2046
g70
I3
ssg71
Nsg64
(lp2047
g57
(g73
g59
NtRp2048
(dp2049
g62
(dp2050
sg71
g2044
sg64
(lp2051
g57
(g78
g59
NtRp2052
(dp2053
g62
(dp2054
sg71
g2048
sg64
(lp2055
g57
(g58
g59
NtRp2056
(dp2057
g62
(dp2058
g70
I3
ssg71
g2052
sg64
(lp2059
g1076
asbasbasbag57
(g73
g59
NtRp2060
(dp2061
g62
(dp2062
sg71
g2044
sg64
(lp2063
g57
(g78
g59
NtRp2064
(dp2065
g62
(dp2066
sg71
g2060
sg64
(lp2067
g57
(g58
g59
NtRp2068
(dp2069
g62
(dp2070
g70
I3
ssg71
g2064
sg64
(lp2071
g1089
asbasbasbag57
(g73
g59
NtRp2072
(dp2073
g62
(dp2074
sg71
g2044
sg64
(lp2075
g57
(g78
g59
NtRp2076
(dp2077
g62
(dp2078
sg71
g2072
sg64
(lp2079
g57
(g58
g59
NtRp2080
(dp2081
g62
(dp2082
g70
I3
ssg71
g2076
sg64
(lp2083
g1102
asbasbasbag57
(g73
g59
NtRp2084
(dp2085
g62
(dp2086
sg71
g2044
sg64
(lp2087
g57
(g78
g59
NtRp2088
(dp2089
g62
(dp2090
sg71
g2084
sg64
(lp2091
g57
(g58
g59
NtRp2092
(dp2093
g62
(dp2094
g70
I3
ssg71
g2088
sg64
(lp2095
g1115
asbasbasbag57
(g73
g59
NtRp2096
(dp2097
g62
(dp2098
sg71
g2044
sg64
(lp2099
g57
(g78
g59
NtRp2100
(dp2101
g62
(dp2102
sg71
g2096
sg64
(lp2103
g57
(g58
g59
NtRp2104
(dp2105
g62
(dp2106
g70
I3
ssg71
g2100
sg64
(lp2107
g1128
asbasbasbasbasbasbasbag57
(g73
g59
NtRp2108
(dp2109
g62
(dp2110
sg71
g1833
sg64
(lp2111
g57
(g78
g59
NtRp2112
(dp2113
g62
(dp2114
g82
g83
ssg71
g2108
sg64
(lp2115
g1398
asbag57
(g78
g59
NtRp2116
(dp2117
g62
(dp2118
g89
g90
ssg71
g2108
sg64
(lp2119
S':'
asbag57
(g78
g59
NtRp2120
(dp2121
g62
(dp2122
sg71
g2108
sg64
(lp2123
g57
(g58
g59
NtRp2124
(dp2125
g62
(dp2126
g70
I4
ssg71
g2120
sg64
(lp2127
g57
(g66
g59
NtRp2128
(dp2129
g62
(dp2130
g70
I3
ssg71
Nsg64
(lp2131
g57
(g73
g59
NtRp2132
(dp2133
g62
(dp2134
sg71
g2128
sg64
(lp2135
g57
(g78
g59
NtRp2136
(dp2137
g62
(dp2138
sg71
g2132
sg64
(lp2139
g57
(g58
g59
NtRp2140
(dp2141
g62
(dp2142
g70
I3
ssg71
g2136
sg64
(lp2143
S'2'
asbasbasbag57
(g73
g59
NtRp2144
(dp2145
g62
(dp2146
sg71
g2128
sg64
(lp2147
g57
(g78
g59
NtRp2148
(dp2149
g62
(dp2150
sg71
g2144
sg64
(lp2151
g57
(g58
g59
NtRp2152
(dp2153
g62
(dp2154
g70
I3
ssg71
g2148
sg64
(lp2155
S'4'
asbasbasbag57
(g73
g59
NtRp2156
(dp2157
g62
(dp2158
sg71
g2128
sg64
(lp2159
g57
(g78
g59
NtRp2160
(dp2161
g62
(dp2162
sg71
g2156
sg64
(lp2163
g57
(g58
g59
NtRp2164
(dp2165
g62
(dp2166
g70
I3
ssg71
g2160
sg64
(lp2167
S'1'
asbasbasbag57
(g73
g59
NtRp2168
(dp2169
g62
(dp2170
sg71
g2128
sg64
(lp2171
g57
(g78
g59
NtRp2172
(dp2173
g62
(dp2174
sg71
g2168
sg64
(lp2175
g57
(g58
g59
NtRp2176
(dp2177
g62
(dp2178
g70
I3
ssg71
g2172
sg64
(lp2179
g1463
asbasbasbag57
(g73
g59
NtRp2180
(dp2181
g62
(dp2182
sg71
g2128
sg64
(lp2183
g57
(g78
g59
NtRp2184
(dp2185
g62
(dp2186
sg71
g2180
sg64
(lp2187
g57
(g58
g59
NtRp2188
(dp2189
g62
(dp2190
g70
I3
ssg71
g2184
sg64
(lp2191
S'datetime.datetime(2013, 1, 10, 21, 26, 18)'
p2192
asbasbasbasbasbasbasbasbasbasbasbag57
(g73
g59
NtRp2193
(dp2194
g62
(dp2195
sg71
g67
sg64
(lp2196
g57
(g78
g59
NtRp2197
(dp2198
g62
(dp2199
g82
g83
ssg71
g2193
sg64
(lp2200
S'is_https'
p2201
asbag57
(g78
g59
NtRp2202
(dp2203
g62
(dp2204
g89
g90
ssg71
g2193
sg64
(lp2205
S':'
asbag57
(g78
g59
NtRp2206
(dp2207
g62
(dp2208
sg71
g2193
sg64
(lp2209
g57
(g58
g59
NtRp2210
(dp2211
g62
(dp2212
g70
I5
ssg71
g2206
sg64
(lp2213
g100
asbasbasbag57
(g73
g59
NtRp2214
(dp2215
g62
(dp2216
sg71
g67
sg64
(lp2217
g57
(g78
g59
NtRp2218
(dp2219
g62
(dp2220
g82
g83
ssg71
g2214
sg64
(lp2221
S'is_local'
p2222
asbag57
(g78
g59
NtRp2223
(dp2224
g62
(dp2225
g89
g90
ssg71
g2214
sg64
(lp2226
S':'
asbag57
(g78
g59
NtRp2227
(dp2228
g62
(dp2229
sg71
g2214
sg64
(lp2230
g57
(g58
g59
NtRp2231
(dp2232
g62
(dp2233
g70
I5
ssg71
g2227
sg64
(lp2234
g1585
asbasbasbag57
(g73
g59
NtRp2235
(dp2236
g62
(dp2237
sg71
g67
sg64
(lp2238
g57
(g78
g59
NtRp2239
(dp2240
g62
(dp2241
g82
g83
ssg71
g2235
sg64
(lp2242
S'is_restful'
p2243
asbag57
(g78
g59
NtRp2244
(dp2245
g62
(dp2246
g89
g90
ssg71
g2235
sg64
(lp2247
S':'
asbag57
(g78
g59
NtRp2248
(dp2249
g62
(dp2250
sg71
g2235
sg64
(lp2251
g57
(g58
g59
NtRp2252
(dp2253
g62
(dp2254
g70
I5
ssg71
g2248
sg64
(lp2255
g100
asbasbasbag57
(g73
g59
NtRp2256
(dp2257
g62
(dp2258
sg71
g67
sg64
(lp2259
g57
(g78
g59
NtRp2260
(dp2261
g62
(dp2262
g82
g83
ssg71
g2256
sg64
(lp2263
S'now'
p2264
asbag57
(g78
g59
NtRp2265
(dp2266
g62
(dp2267
g89
g90
ssg71
g2256
sg64
(lp2268
S':'
asbag57
(g78
g59
NtRp2269
(dp2270
g62
(dp2271
sg71
g2256
sg64
(lp2272
g57
(g58
g59
NtRp2273
(dp2274
g62
(dp2275
g70
I5
ssg71
g2269
sg64
(lp2276
S'datetime.datetime(2013, 1, 22, 16, 46, 19, 950748)'
p2277
asbasbasbag57
(g73
g59
NtRp2278
(dp2279
g62
(dp2280
sg71
g67
sg64
(lp2281
g57
(g78
g59
NtRp2282
(dp2283
g62
(dp2284
g82
g83
ssg71
g2278
sg64
(lp2285
S'post_vars'
p2286
asbag57
(g78
g59
NtRp2287
(dp2288
g62
(dp2289
g89
g90
ssg71
g2278
sg64
(lp2290
S':'
asbag57
(g78
g59
NtRp2291
(dp2292
g62
(dp2293
sg71
g2278
sg64
(lp2294
g57
(g58
g59
NtRp2295
(dp2296
g62
(dp2297
g70
I5
ssg71
g2291
sg64
(lp2298
g57
(g66
g59
NtRp2299
(dp2300
g62
(dp2301
g70
I4
ssg71
Nsg64
(lp2302
sbasbasbasbag57
(g73
g59
NtRp2303
(dp2304
g62
(dp2305
sg71
g67
sg64
(lp2306
g57
(g78
g59
NtRp2307
(dp2308
g62
(dp2309
g82
g83
ssg71
g2303
sg64
(lp2310
S'raw_args'
p2311
asbag57
(g78
g59
NtRp2312
(dp2313
g62
(dp2314
g89
g90
ssg71
g2303
sg64
(lp2315
S':'
asbag57
(g78
g59
NtRp2316
(dp2317
g62
(dp2318
sg71
g2303
sg64
(lp2319
g57
(g58
g59
NtRp2320
(dp2321
g62
(dp2322
g70
I5
ssg71
g2316
sg64
(lp2323
S''
asbasbasbag57
(g73
g59
NtRp2324
(dp2325
g62
(dp2326
sg71
g67
sg64
(lp2327
g57
(g78
g59
NtRp2328
(dp2329
g62
(dp2330
g82
g83
ssg71
g2324
sg64
(lp2331
S'raw_extension'
p2332
asbag57
(g78
g59
NtRp2333
(dp2334
g62
(dp2335
g89
g90
ssg71
g2324
sg64
(lp2336
S':'
asbag57
(g78
g59
NtRp2337
(dp2338
g62
(dp2339
sg71
g2324
sg64
(lp2340
g57
(g58
g59
NtRp2341
(dp2342
g62
(dp2343
g70
I5
ssg71
g2337
sg64
(lp2344
S'None'
p2345
asbasbasbag57
(g73
g59
NtRp2346
(dp2347
g62
(dp2348
sg71
g67
sg64
(lp2349
g57
(g78
g59
NtRp2350
(dp2351
g62
(dp2352
g82
g83
ssg71
g2346
sg64
(lp2353
S'url'
p2354
asbag57
(g78
g59
NtRp2355
(dp2356
g62
(dp2357
g89
g90
ssg71
g2346
sg64
(lp2358
S':'
asbag57
(g78
g59
NtRp2359
(dp2360
g62
(dp2361
sg71
g2346
sg64
(lp2362
g57
(g58
g59
NtRp2363
(dp2364
g62
(dp2365
g70
I5
ssg71
g2359
sg64
(lp2366
g1150
asbasbasbag57
(g73
g59
NtRp2367
(dp2368
g62
(dp2369
sg71
g67
sg64
(lp2370
g57
(g78
g59
NtRp2371
(dp2372
g62
(dp2373
g82
g83
ssg71
g2367
sg64
(lp2374
S'utcnow'
p2375
asbag57
(g78
g59
NtRp2376
(dp2377
g62
(dp2378
g89
g90
ssg71
g2367
sg64
(lp2379
S':'
asbag57
(g78
g59
NtRp2380
(dp2381
g62
(dp2382
sg71
g2367
sg64
(lp2383
g57
(g58
g59
NtRp2384
(dp2385
g62
(dp2386
g70
I5
ssg71
g2380
sg64
(lp2387
S'datetime.datetime(2013, 1, 22, 19, 46, 19, 950780)'
p2388
asbasbasbag57
(g73
g59
NtRp2389
(dp2390
g62
(dp2391
sg71
g67
sg64
(lp2392
g57
(g78
g59
NtRp2393
(dp2394
g62
(dp2395
g82
g83
ssg71
g2389
sg64
(lp2396
S'uuid'
p2397
asbag57
(g78
g59
NtRp2398
(dp2399
g62
(dp2400
g89
g90
ssg71
g2389
sg64
(lp2401
S':'
asbag57
(g78
g59
NtRp2402
(dp2403
g62
(dp2404
sg71
g2389
sg64
(lp2405
g57
(g58
g59
NtRp2406
(dp2407
g62
(dp2408
g70
I5
ssg71
g2402
sg64
(lp2409
S'sueldos/127.0.0.1.2013-01-22.16-46-19.f653c138-03ca-4b50-b7e8-168fde55a198'
p2410
asbasbasbag57
(g73
g59
NtRp2411
(dp2412
g62
(dp2413
sg71
g67
sg64
(lp2414
g57
(g78
g59
NtRp2415
(dp2416
g62
(dp2417
g82
g83
ssg71
g2411
sg64
(lp2418
S'vars'
p2419
asbag57
(g78
g59
NtRp2420
(dp2421
g62
(dp2422
g89
g90
ssg71
g2411
sg64
(lp2423
S':'
asbag57
(g78
g59
NtRp2424
(dp2425
g62
(dp2426
sg71
g2411
sg64
(lp2427
g57
(g58
g59
NtRp2428
(dp2429
g62
(dp2430
g70
I5
ssg71
g2424
sg64
(lp2431
g57
(g66
g59
NtRp2432
(dp2433
g62
(dp2434
g70
I4
ssg71
Nsg64
(lp2435
g57
(g73
g59
NtRp2436
(dp2437
g62
(dp2438
sg71
g2432
sg64
(lp2439
g57
(g78
g59
NtRp2440
(dp2441
g62
(dp2442
g82
g83
ssg71
g2436
sg64
(lp2443
g1777
asbag57
(g78
g59
NtRp2444
(dp2445
g62
(dp2446
g89
g90
ssg71
g2436
sg64
(lp2447
S':'
asbag57
(g78
g59
NtRp2448
(dp2449
g62
(dp2450
sg71
g2436
sg64
(lp2451
g57
(g58
g59
NtRp2452
(dp2453
g62
(dp2454
g70
I4
ssg71
g2448
sg64
(lp2455
S'1'
asbasbasbag57
(g73
g59
NtRp2456
(dp2457
g62
(dp2458
sg71
g2432
sg64
(lp2459
g57
(g78
g59
NtRp2460
(dp2461
g62
(dp2462
g82
g83
ssg71
g2456
sg64
(lp2463
g1798
asbag57
(g78
g59
NtRp2464
(dp2465
g62
(dp2466
g89
g90
ssg71
g2456
sg64
(lp2467
S':'
asbag57
(g78
g59
NtRp2468
(dp2469
g62
(dp2470
sg71
g2456
sg64
(lp2471
g57
(g58
g59
NtRp2472
(dp2473
g62
(dp2474
g70
I4
ssg71
g2468
sg64
(lp2475
g1811
asbasbasbasbasbasbasbag57
(g73
g59
NtRp2476
(dp2477
g62
(dp2478
sg71
g67
sg64
(lp2479
g57
(g78
g59
NtRp2480
(dp2481
g62
(dp2482
g82
g83
ssg71
g2476
sg64
(lp2483
S'wsgi'
p2484
asbag57
(g78
g59
NtRp2485
(dp2486
g62
(dp2487
g89
g90
ssg71
g2476
sg64
(lp2488
S':'
asbag57
(g78
g59
NtRp2489
(dp2490
g62
(dp2491
sg71
g2476
sg64
(lp2492
g57
(g58
g59
NtRp2493
(dp2494
g62
(dp2495
g70
I5
ssg71
g2489
sg64
(lp2496
g57
(g66
g59
NtRp2497
(dp2498
g62
(dp2499
g70
I4
ssg71
Nsg64
(lp2500
g57
(g73
g59
NtRp2501
(dp2502
g62
(dp2503
sg71
g2497
sg64
(lp2504
g57
(g78
g59
NtRp2505
(dp2506
g62
(dp2507
g82
g83
ssg71
g2501
sg64
(lp2508
S'environ'
p2509
asbag57
(g78
g59
NtRp2510
(dp2511
g62
(dp2512
g89
g90
ssg71
g2501
sg64
(lp2513
S':'
asbag57
(g78
g59
NtRp2514
(dp2515
g62
(dp2516
sg71
g2501
sg64
(lp2517
g57
(g58
g59
NtRp2518
(dp2519
g62
(dp2520
g70
I4
ssg71
g2514
sg64
(lp2521
g57
(g66
g59
NtRp2522
(dp2523
g62
(dp2524
g70
I3
ssg71
Nsg64
(lp2525
g57
(g73
g59
NtRp2526
(dp2527
g62
(dp2528
sg71
g2522
sg64
(lp2529
g57
(g78
g59
NtRp2530
(dp2531
g62
(dp2532
g82
g83
ssg71
g2526
sg64
(lp2533
S'HTTP_ACCEPT'
p2534
asbag57
(g78
g59
NtRp2535
(dp2536
g62
(dp2537
g89
g90
ssg71
g2526
sg64
(lp2538
S':'
asbag57
(g78
g59
NtRp2539
(dp2540
g62
(dp2541
sg71
g2526
sg64
(lp2542
g57
(g58
g59
NtRp2543
(dp2544
g62
(dp2545
g70
I3
ssg71
g2539
sg64
(lp2546
g842
asbasbasbag57
(g73
g59
NtRp2547
(dp2548
g62
(dp2549
sg71
g2522
sg64
(lp2550
g57
(g78
g59
NtRp2551
(dp2552
g62
(dp2553
g82
g83
ssg71
g2547
sg64
(lp2554
S'HTTP_ACCEPT_ENCODING'
p2555
asbag57
(g78
g59
NtRp2556
(dp2557
g62
(dp2558
g89
g90
ssg71
g2547
sg64
(lp2559
S':'
asbag57
(g78
g59
NtRp2560
(dp2561
g62
(dp2562
sg71
g2547
sg64
(lp2563
g57
(g58
g59
NtRp2564
(dp2565
g62
(dp2566
g70
I3
ssg71
g2560
sg64
(lp2567
g864
asbasbasbag57
(g73
g59
NtRp2568
(dp2569
g62
(dp2570
sg71
g2522
sg64
(lp2571
g57
(g78
g59
NtRp2572
(dp2573
g62
(dp2574
g82
g83
ssg71
g2568
sg64
(lp2575
S'HTTP_ACCEPT_LANGUAGE'
p2576
asbag57
(g78
g59
NtRp2577
(dp2578
g62
(dp2579
g89
g90
ssg71
g2568
sg64
(lp2580
S':'
asbag57
(g78
g59
NtRp2581
(dp2582
g62
(dp2583
sg71
g2568
sg64
(lp2584
g57
(g58
g59
NtRp2585
(dp2586
g62
(dp2587
g70
I3
ssg71
g2581
sg64
(lp2588
g886
asbasbasbag57
(g73
g59
NtRp2589
(dp2590
g62
(dp2591
sg71
g2522
sg64
(lp2592
g57
(g78
g59
NtRp2593
(dp2594
g62
(dp2595
g82
g83
ssg71
g2589
sg64
(lp2596
S'HTTP_CONNECTION'
p2597
asbag57
(g78
g59
NtRp2598
(dp2599
g62
(dp2600
g89
g90
ssg71
g2589
sg64
(lp2601
S':'
asbag57
(g78
g59
NtRp2602
(dp2603
g62
(dp2604
sg71
g2589
sg64
(lp2605
g57
(g58
g59
NtRp2606
(dp2607
g62
(dp2608
g70
I3
ssg71
g2602
sg64
(lp2609
g908
asbasbasbag57
(g73
g59
NtRp2610
(dp2611
g62
(dp2612
sg71
g2522
sg64
(lp2613
g57
(g78
g59
NtRp2614
(dp2615
g62
(dp2616
g82
g83
ssg71
g2610
sg64
(lp2617
S'HTTP_COOKIE'
p2618
asbag57
(g78
g59
NtRp2619
(dp2620
g62
(dp2621
g89
g90
ssg71
g2610
sg64
(lp2622
S':'
asbag57
(g78
g59
NtRp2623
(dp2624
g62
(dp2625
sg71
g2610
sg64
(lp2626
g57
(g58
g59
NtRp2627
(dp2628
g62
(dp2629
g70
I3
ssg71
g2623
sg64
(lp2630
g930
asbasbasbag57
(g73
g59
NtRp2631
(dp2632
g62
(dp2633
sg71
g2522
sg64
(lp2634
g57
(g78
g59
NtRp2635
(dp2636
g62
(dp2637
g82
g83
ssg71
g2631
sg64
(lp2638
S'HTTP_HOST'
p2639
asbag57
(g78
g59
NtRp2640
(dp2641
g62
(dp2642
g89
g90
ssg71
g2631
sg64
(lp2643
S':'
asbag57
(g78
g59
NtRp2644
(dp2645
g62
(dp2646
sg71
g2631
sg64
(lp2647
g57
(g58
g59
NtRp2648
(dp2649
g62
(dp2650
g70
I3
ssg71
g2644
sg64
(lp2651
g952
asbasbasbag57
(g73
g59
NtRp2652
(dp2653
g62
(dp2654
sg71
g2522
sg64
(lp2655
g57
(g78
g59
NtRp2656
(dp2657
g62
(dp2658
g82
g83
ssg71
g2652
sg64
(lp2659
S'HTTP_REFERER'
p2660
asbag57
(g78
g59
NtRp2661
(dp2662
g62
(dp2663
g89
g90
ssg71
g2652
sg64
(lp2664
S':'
asbag57
(g78
g59
NtRp2665
(dp2666
g62
(dp2667
sg71
g2652
sg64
(lp2668
g57
(g58
g59
NtRp2669
(dp2670
g62
(dp2671
g70
I3
ssg71
g2665
sg64
(lp2672
g974
asbasbasbag57
(g73
g59
NtRp2673
(dp2674
g62
(dp2675
sg71
g2522
sg64
(lp2676
g57
(g78
g59
NtRp2677
(dp2678
g62
(dp2679
g82
g83
ssg71
g2673
sg64
(lp2680
S'HTTP_USER_AGENT'
p2681
asbag57
(g78
g59
NtRp2682
(dp2683
g62
(dp2684
g89
g90
ssg71
g2673
sg64
(lp2685
S':'
asbag57
(g78
g59
NtRp2686
(dp2687
g62
(dp2688
sg71
g2673
sg64
(lp2689
g57
(g58
g59
NtRp2690
(dp2691
g62
(dp2692
g70
I3
ssg71
g2686
sg64
(lp2693
g996
asbasbasbag57
(g73
g59
NtRp2694
(dp2695
g62
(dp2696
sg71
g2522
sg64
(lp2697
g57
(g78
g59
NtRp2698
(dp2699
g62
(dp2700
g82
g83
ssg71
g2694
sg64
(lp2701
S'PATH_INFO'
p2702
asbag57
(g78
g59
NtRp2703
(dp2704
g62
(dp2705
g89
g90
ssg71
g2694
sg64
(lp2706
S':'
asbag57
(g78
g59
NtRp2707
(dp2708
g62
(dp2709
sg71
g2694
sg64
(lp2710
g57
(g58
g59
NtRp2711
(dp2712
g62
(dp2713
g70
I3
ssg71
g2707
sg64
(lp2714
g1150
asbasbasbag57
(g73
g59
NtRp2715
(dp2716
g62
(dp2717
sg71
g2522
sg64
(lp2718
g57
(g78
g59
NtRp2719
(dp2720
g62
(dp2721
g82
g83
ssg71
g2715
sg64
(lp2722
S'QUERY_STRING'
p2723
asbag57
(g78
g59
NtRp2724
(dp2725
g62
(dp2726
g89
g90
ssg71
g2715
sg64
(lp2727
S':'
asbag57
(g78
g59
NtRp2728
(dp2729
g62
(dp2730
sg71
g2715
sg64
(lp2731
g57
(g58
g59
NtRp2732
(dp2733
g62
(dp2734
g70
I3
ssg71
g2728
sg64
(lp2735
g1172
asbasbasbag57
(g73
g59
NtRp2736
(dp2737
g62
(dp2738
sg71
g2522
sg64
(lp2739
g57
(g78
g59
NtRp2740
(dp2741
g62
(dp2742
g82
g83
ssg71
g2736
sg64
(lp2743
S'REMOTE_ADDR'
p2744
asbag57
(g78
g59
NtRp2745
(dp2746
g62
(dp2747
g89
g90
ssg71
g2736
sg64
(lp2748
S':'
asbag57
(g78
g59
NtRp2749
(dp2750
g62
(dp2751
sg71
g2736
sg64
(lp2752
g57
(g58
g59
NtRp2753
(dp2754
g62
(dp2755
g70
I3
ssg71
g2749
sg64
(lp2756
g212
asbasbasbag57
(g73
g59
NtRp2757
(dp2758
g62
(dp2759
sg71
g2522
sg64
(lp2760
g57
(g78
g59
NtRp2761
(dp2762
g62
(dp2763
g82
g83
ssg71
g2757
sg64
(lp2764
S'REMOTE_PORT'
p2765
asbag57
(g78
g59
NtRp2766
(dp2767
g62
(dp2768
g89
g90
ssg71
g2757
sg64
(lp2769
S':'
asbag57
(g78
g59
NtRp2770
(dp2771
g62
(dp2772
sg71
g2757
sg64
(lp2773
g57
(g58
g59
NtRp2774
(dp2775
g62
(dp2776
g70
I3
ssg71
g2770
sg64
(lp2777
g1215
asbasbasbag57
(g73
g59
NtRp2778
(dp2779
g62
(dp2780
sg71
g2522
sg64
(lp2781
g57
(g78
g59
NtRp2782
(dp2783
g62
(dp2784
g82
g83
ssg71
g2778
sg64
(lp2785
S'REQUEST_METHOD'
p2786
asbag57
(g78
g59
NtRp2787
(dp2788
g62
(dp2789
g89
g90
ssg71
g2778
sg64
(lp2790
S':'
asbag57
(g78
g59
NtRp2791
(dp2792
g62
(dp2793
sg71
g2778
sg64
(lp2794
g57
(g58
g59
NtRp2795
(dp2796
g62
(dp2797
g70
I3
ssg71
g2791
sg64
(lp2798
g1237
asbasbasbag57
(g73
g59
NtRp2799
(dp2800
g62
(dp2801
sg71
g2522
sg64
(lp2802
g57
(g78
g59
NtRp2803
(dp2804
g62
(dp2805
g82
g83
ssg71
g2799
sg64
(lp2806
S'REQUEST_URI'
p2807
asbag57
(g78
g59
NtRp2808
(dp2809
g62
(dp2810
g89
g90
ssg71
g2799
sg64
(lp2811
S':'
asbag57
(g78
g59
NtRp2812
(dp2813
g62
(dp2814
sg71
g2799
sg64
(lp2815
g57
(g58
g59
NtRp2816
(dp2817
g62
(dp2818
g70
I3
ssg71
g2812
sg64
(lp2819
g1259
asbasbasbag57
(g73
g59
NtRp2820
(dp2821
g62
(dp2822
sg71
g2522
sg64
(lp2823
g57
(g78
g59
NtRp2824
(dp2825
g62
(dp2826
g82
g83
ssg71
g2820
sg64
(lp2827
S'SCRIPT_NAME'
p2828
asbag57
(g78
g59
NtRp2829
(dp2830
g62
(dp2831
g89
g90
ssg71
g2820
sg64
(lp2832
S':'
asbag57
(g78
g59
NtRp2833
(dp2834
g62
(dp2835
sg71
g2820
sg64
(lp2836
g57
(g58
g59
NtRp2837
(dp2838
g62
(dp2839
g70
I3
ssg71
g2833
sg64
(lp2840
S''
asbasbasbag57
(g73
g59
NtRp2841
(dp2842
g62
(dp2843
sg71
g2522
sg64
(lp2844
g57
(g78
g59
NtRp2845
(dp2846
g62
(dp2847
g82
g83
ssg71
g2841
sg64
(lp2848
S'SERVER_NAME'
p2849
asbag57
(g78
g59
NtRp2850
(dp2851
g62
(dp2852
g89
g90
ssg71
g2841
sg64
(lp2853
S':'
asbag57
(g78
g59
NtRp2854
(dp2855
g62
(dp2856
sg71
g2841
sg64
(lp2857
g57
(g58
g59
NtRp2858
(dp2859
g62
(dp2860
g70
I3
ssg71
g2854
sg64
(lp2861
g1302
asbasbasbag57
(g73
g59
NtRp2862
(dp2863
g62
(dp2864
sg71
g2522
sg64
(lp2865
g57
(g78
g59
NtRp2866
(dp2867
g62
(dp2868
g82
g83
ssg71
g2862
sg64
(lp2869
S'SERVER_PORT'
p2870
asbag57
(g78
g59
NtRp2871
(dp2872
g62
(dp2873
g89
g90
ssg71
g2862
sg64
(lp2874
S':'
asbag57
(g78
g59
NtRp2875
(dp2876
g62
(dp2877
sg71
g2862
sg64
(lp2878
g57
(g58
g59
NtRp2879
(dp2880
g62
(dp2881
g70
I3
ssg71
g2875
sg64
(lp2882
g1324
asbasbasbag57
(g73
g59
NtRp2883
(dp2884
g62
(dp2885
sg71
g2522
sg64
(lp2886
g57
(g78
g59
NtRp2887
(dp2888
g62
(dp2889
g82
g83
ssg71
g2883
sg64
(lp2890
S'SERVER_PROTOCOL'
p2891
asbag57
(g78
g59
NtRp2892
(dp2893
g62
(dp2894
g89
g90
ssg71
g2883
sg64
(lp2895
S':'
asbag57
(g78
g59
NtRp2896
(dp2897
g62
(dp2898
sg71
g2883
sg64
(lp2899
g57
(g58
g59
NtRp2900
(dp2901
g62
(dp2902
g70
I3
ssg71
g2896
sg64
(lp2903
g1346
asbasbasbag57
(g73
g59
NtRp2904
(dp2905
g62
(dp2906
sg71
g2522
sg64
(lp2907
g57
(g78
g59
NtRp2908
(dp2909
g62
(dp2910
g82
g83
ssg71
g2904
sg64
(lp2911
S'SERVER_SOFTWARE'
p2912
asbag57
(g78
g59
NtRp2913
(dp2914
g62
(dp2915
g89
g90
ssg71
g2904
sg64
(lp2916
S':'
asbag57
(g78
g59
NtRp2917
(dp2918
g62
(dp2919
sg71
g2904
sg64
(lp2920
g57
(g58
g59
NtRp2921
(dp2922
g62
(dp2923
g70
I3
ssg71
g2917
sg64
(lp2924
g1368
asbasbasbag57
(g73
g59
NtRp2925
(dp2926
g62
(dp2927
sg71
g2522
sg64
(lp2928
g57
(g78
g59
NtRp2929
(dp2930
g62
(dp2931
g82
g83
ssg71
g2925
sg64
(lp2932
S'wsgi.errors'
p2933
asbag57
(g78
g59
NtRp2934
(dp2935
g62
(dp2936
g89
g90
ssg71
g2925
sg64
(lp2937
S':'
asbag57
(g78
g59
NtRp2938
(dp2939
g62
(dp2940
sg71
g2925
sg64
(lp2941
g57
(g58
g59
NtRp2942
(dp2943
g62
(dp2944
g70
I3
ssg71
g2938
sg64
(lp2945
S"<open file '<stderr>', mode 'w' at 0x7fa88a0fa270>"
p2946
asbasbasbag57
(g73
g59
NtRp2947
(dp2948
g62
(dp2949
sg71
g2522
sg64
(lp2950
g57
(g78
g59
NtRp2951
(dp2952
g62
(dp2953
g82
g83
ssg71
g2947
sg64
(lp2954
S'wsgi.file_wrapper'
p2955
asbag57
(g78
g59
NtRp2956
(dp2957
g62
(dp2958
g89
g90
ssg71
g2947
sg64
(lp2959
S':'
asbag57
(g78
g59
NtRp2960
(dp2961
g62
(dp2962
sg71
g2947
sg64
(lp2963
g57
(g58
g59
NtRp2964
(dp2965
g62
(dp2966
g70
I3
ssg71
g2960
sg64
(lp2967
S'<class wsgiref.util.FileWrapper at 0x2dd24c8>'
p2968
asbasbasbag57
(g73
g59
NtRp2969
(dp2970
g62
(dp2971
sg71
g2522
sg64
(lp2972
g57
(g78
g59
NtRp2973
(dp2974
g62
(dp2975
g82
g83
ssg71
g2969
sg64
(lp2976
S'wsgi.input'
p2977
asbag57
(g78
g59
NtRp2978
(dp2979
g62
(dp2980
g89
g90
ssg71
g2969
sg64
(lp2981
S':'
asbag57
(g78
g59
NtRp2982
(dp2983
g62
(dp2984
sg71
g2969
sg64
(lp2985
g57
(g58
g59
NtRp2986
(dp2987
g62
(dp2988
g70
I3
ssg71
g2982
sg64
(lp2989
S'<cStringIO.StringO object at 0x4a03110>'
p2990
asbasbasbag57
(g73
g59
NtRp2991
(dp2992
g62
(dp2993
sg71
g2522
sg64
(lp2994
g57
(g78
g59
NtRp2995
(dp2996
g62
(dp2997
g82
g83
ssg71
g2991
sg64
(lp2998
S'wsgi.multiprocess'
p2999
asbag57
(g78
g59
NtRp3000
(dp3001
g62
(dp3002
g89
g90
ssg71
g2991
sg64
(lp3003
S':'
asbag57
(g78
g59
NtRp3004
(dp3005
g62
(dp3006
sg71
g2991
sg64
(lp3007
g57
(g58
g59
NtRp3008
(dp3009
g62
(dp3010
g70
I3
ssg71
g3004
sg64
(lp3011
g100
asbasbasbag57
(g73
g59
NtRp3012
(dp3013
g62
(dp3014
sg71
g2522
sg64
(lp3015
g57
(g78
g59
NtRp3016
(dp3017
g62
(dp3018
g82
g83
ssg71
g3012
sg64
(lp3019
S'wsgi.multithread'
p3020
asbag57
(g78
g59
NtRp3021
(dp3022
g62
(dp3023
g89
g90
ssg71
g3012
sg64
(lp3024
S':'
asbag57
(g78
g59
NtRp3025
(dp3026
g62
(dp3027
sg71
g3012
sg64
(lp3028
g57
(g58
g59
NtRp3029
(dp3030
g62
(dp3031
g70
I3
ssg71
g3025
sg64
(lp3032
g1585
asbasbasbag57
(g73
g59
NtRp3033
(dp3034
g62
(dp3035
sg71
g2522
sg64
(lp3036
g57
(g78
g59
NtRp3037
(dp3038
g62
(dp3039
g82
g83
ssg71
g3033
sg64
(lp3040
S'wsgi.run_once'
p3041
asbag57
(g78
g59
NtRp3042
(dp3043
g62
(dp3044
g89
g90
ssg71
g3033
sg64
(lp3045
S':'
asbag57
(g78
g59
NtRp3046
(dp3047
g62
(dp3048
sg71
g3033
sg64
(lp3049
g57
(g58
g59
NtRp3050
(dp3051
g62
(dp3052
g70
I3
ssg71
g3046
sg64
(lp3053
g100
asbasbasbag57
(g73
g59
NtRp3054
(dp3055
g62
(dp3056
sg71
g2522
sg64
(lp3057
g57
(g78
g59
NtRp3058
(dp3059
g62
(dp3060
g82
g83
ssg71
g3054
sg64
(lp3061
S'wsgi.url_scheme'
p3062
asbag57
(g78
g59
NtRp3063
(dp3064
g62
(dp3065
g89
g90
ssg71
g3054
sg64
(lp3066
S':'
asbag57
(g78
g59
NtRp3067
(dp3068
g62
(dp3069
sg71
g3054
sg64
(lp3070
g57
(g58
g59
NtRp3071
(dp3072
g62
(dp3073
g70
I3
ssg71
g3067
sg64
(lp3074
g1628
asbasbasbag57
(g73
g59
NtRp3075
(dp3076
g62
(dp3077
sg71
g2522
sg64
(lp3078
g57
(g78
g59
NtRp3079
(dp3080
g62
(dp3081
g82
g83
ssg71
g3075
sg64
(lp3082
S'wsgi.version'
p3083
asbag57
(g78
g59
NtRp3084
(dp3085
g62
(dp3086
g89
g90
ssg71
g3075
sg64
(lp3087
S':'
asbag57
(g78
g59
NtRp3088
(dp3089
g62
(dp3090
sg71
g3075
sg64
(lp3091
g57
(g58
g59
NtRp3092
(dp3093
g62
(dp3094
g70
I3
ssg71
g3088
sg64
(lp3095
S'1'
asbasbasbasbasbasbasbasbasbasbasbasbasbsS'frames'
p3096
(lp3097
(dp3098
S'file'
p3099
S'/home/marco/projects/contabilidad/web2py/gluon/restricted.py'
p3100
sS'dump'
p3101
(dp3102
S'environment'
p3103
S"{'A': <class 'gluon.html.A'>, 'Auth': <class 'gluon.tools.Auth'>, 'B': <class 'gluon.html.B'>, 'BEAUTIFY': <class 'gluon.html.BEAUTIFY'>, 'BODY': <class 'gluon.html.BODY'>, 'BR': <class 'gluon.html.BR'>, 'BUTTON': <class 'gluon.html.BUTTON'>, 'CAT': <class 'gluon.html.CAT'>, 'CENTER': <class 'gluon.html.CENTER'>, 'CLEANUP': <class 'gluon.validators.CLEANUP'>, ...}"
p3104
sS'ccode'
p3105
S'<code object <module> at 0x3ee8830, file "/home/...lications/sueldos/controllers/vistas.py", line 3>'
p3106
ssS'lnum'
p3107
I212
sS'lines'
p3108
(dp3109
I207
S'    try:'
p3110
sI208
S'        if isinstance(code, types.CodeType):'
p3111
sI209
S'            ccode = code'
p3112
sI210
S'        else:'
p3113
sI211
S'            ccode = compile2(code, layer)'
p3114
sI212
S'        exec ccode in environment'
p3115
sI213
S'    except HTTP:'
p3116
sI214
S'        raise'
p3117
sI215
S'    except RestrictedError:'
p3118
sI216
S'        # do not encapsulate (obfuscate) the original RestrictedError'
p3119
ssS'call'
p3120
S"(code='# -*- coding: utf-8 -*-\\n\\ndef personal():\\n    for...uevo)\\n\\nresponse._vars=response._caller(importes)\\n', environment={'A': <class 'gluon.html.A'>, 'Auth': <class 'gluon.tools.Auth'>, 'B': <class 'gluon.html.B'>, 'BEAUTIFY': <class 'gluon.html.BEAUTIFY'>, 'BODY': <class 'gluon.html.BODY'>, 'BR': <class 'gluon.html.BR'>, 'BUTTON': <class 'gluon.html.BUTTON'>, 'CAT': <class 'gluon.html.CAT'>, 'CENTER': <class 'gluon.html.CENTER'>, 'CLEANUP': <class 'gluon.validators.CLEANUP'>, ...}, layer='/home/marco/projects/contabilidad/web2py/applications/sueldos/controllers/vistas.py')"
p3121
sS'func'
p3122
S'restricted'
p3123
sa(dp3124
g3099
S'/home/marco/projects/contabilidad/web2py/applications/sueldos/controllers/vistas.py'
p3125
sg3101
(dp3126
sg3107
I36
sg3108
(dp3127
I32
S'    elif nuevo.errors:'
p3128
sI33
S"        response.flash='El formulario tiene errores'"
p3129
sI34
S'    return dict(listado=lista, nuevo=nuevo)'
p3130
sI25
S'        param=int(request.vars.gremio.pop())'
p3131
sI26
S'        lista=db(db.valores.gremio==param).select()'
p3132
sI27
S'    nuevo=SQLFORM(db.valores)'
p3133
sI28
S''
sI29
S'    if nuevo.process().accepted:'
p3134
sI30
S"        session.flash='El importe ha sido agregado'"
p3135
sI31
S"        redirect(URL('vistas','importes?gremio='+ str(request.vars.gremio)+'&sindicato='+ str(request.vars.sindicato)))"
p3136
ssg3120
S'()'
p3137
sg3122
S'<module>'
p3138
sa(dp3139
g3099
S'/home/marco/projects/contabilidad/web2py/gluon/globals.py'
p3140
sg3101
(dp3141
S'self'
p3142
S'undefined'
p3143
sS'f'
S'<function importes>'
p3144
ssg3107
I193
sg3108
(dp3145
I192
S'        self._vars = None'
p3146
sI193
S'        self._caller = lambda f: f()'
p3147
sI194
S'        self._view_environment = None'
p3148
sI195
S'        self._custom_commit = None'
p3149
sI196
S'        self._custom_rollback = None'
p3150
sI197
S''
sI188
S'        self.menu = []             # used by the default view layout'
p3151
sI189
S'        self.files = []            # used by web2py_ajax.html'
p3152
sI190
S'        self.generic_patterns = []  # patterns to allow generic views'
p3153
sI191
S"        self.delimiters = ('{{', '}}')"
p3154
ssg3120
S'(f=<function importes>)'
p3155
sg3122
S'<lambda>'
p3156
sa(dp3157
g3099
S'/home/marco/projects/contabilidad/web2py/applications/sueldos/controllers/vistas.py'
p3158
sg3101
(dp3159
S'global request'
p3160
S"<Storage {'function': 'importes', 'body': <cStri...plications/sueldos/', 'post_vars': <Storage {}>}>"
p3161
sS'request.vars'
p3162
S"<Storage {'gremio': '1', 'sindicato': 'ALIMENTACI\\xc3\\x93N'}>"
p3163
sS'IS_INTEGER'
p3164
g3143
sS'request.vars.gremio'
p3165
S"'1'"
p3166
ssg3107
I22
sg3108
(dp3167
I17
S"    #     response.flash='El formulario tiene errores'"
p3168
sI18
S''
sI19
S'    return dict(lista=lista)'
p3169
sI20
S''
sI21
S'def importes():'
p3170
sI22
S'    if IS_INTEGER(request.vars.gremio):'
p3171
sI23
S'        lista=db(db.valores.gremio==request.vars.gremio).select()'
p3172
sI24
S'    else:'
p3173
sI25
S'        param=int(request.vars.gremio.pop())'
p3174
sI26
S'        lista=db(db.valores.gremio==param).select()'
p3175
ssg3120
S'()'
p3176
sg3122
S'importes'
p3177
sasS'pyver'
p3178
S'Python 2.7.3: /usr/bin/python'
p3179
sS'session'
p3180
g57
(g58
g59
NtRp3181
(dp3182
g62
(dp3183
sg64
(lp3184
g57
(g66
g59
NtRp3185
(dp3186
g62
(dp3187
g70
I5
ssg71
Nsg64
(lp3188
g57
(g73
g59
NtRp3189
(dp3190
g62
(dp3191
sg71
g3185
sg64
(lp3192
g57
(g78
g59
NtRp3193
(dp3194
g62
(dp3195
g82
g83
ssg71
g3189
sg64
(lp3196
S'flash'
p3197
asbag57
(g78
g59
NtRp3198
(dp3199
g62
(dp3200
g89
g90
ssg71
g3189
sg64
(lp3201
S':'
asbag57
(g78
g59
NtRp3202
(dp3203
g62
(dp3204
sg71
g3189
sg64
(lp3205
g57
(g58
g59
NtRp3206
(dp3207
g62
(dp3208
g70
I5
ssg71
g3202
sg64
(lp3209
S'None'
p3210
asbasbasbasbasbsS'etype'
p3211
S"<type 'exceptions.NameError'>"
p3212
sS'date'
p3213
S'Tue Jan 22 16:46:19 2013'
p3214
sS'response'
p3215
g57
(g58
g59
NtRp3216
(dp3217
g62
(dp3218
sg64
(lp3219
g57
(g66
g59
NtRp3220
(dp3221
g62
(dp3222
g70
I5
ssg71
Nsg64
(lp3223
g57
(g73
g59
NtRp3224
(dp3225
g62
(dp3226
sg71
g3220
sg64
(lp3227
g57
(g78
g59
NtRp3228
(dp3229
g62
(dp3230
g82
g83
ssg71
g3224
sg64
(lp3231
g155
asbag57
(g78
g59
NtRp3232
(dp3233
g62
(dp3234
g89
g90
ssg71
g3224
sg64
(lp3235
S':'
asbag57
(g78
g59
NtRp3236
(dp3237
g62
(dp3238
sg71
g3224
sg64
(lp3239
g57
(g58
g59
NtRp3240
(dp3241
g62
(dp3242
g70
I5
ssg71
g3236
sg64
(lp3243
S'<cStringIO.StringO object at 0x4a035e0>'
p3244
asbasbasbag57
(g73
g59
NtRp3245
(dp3246
g62
(dp3247
sg71
g3220
sg64
(lp3248
g57
(g78
g59
NtRp3249
(dp3250
g62
(dp3251
g82
g83
ssg71
g3245
sg64
(lp3252
g243
asbag57
(g78
g59
NtRp3253
(dp3254
g62
(dp3255
g89
g90
ssg71
g3245
sg64
(lp3256
S':'
asbag57
(g78
g59
NtRp3257
(dp3258
g62
(dp3259
sg71
g3245
sg64
(lp3260
g57
(g58
g59
NtRp3261
(dp3262
g62
(dp3263
g70
I5
ssg71
g3257
sg64
(lp3264
g57
(g66
g59
NtRp3265
(dp3266
g62
(dp3267
g70
I4
ssg71
Nsg64
(lp3268
g57
(g73
g59
NtRp3269
(dp3270
g62
(dp3271
sg71
g3265
sg64
(lp3272
g57
(g78
g59
NtRp3273
(dp3274
g62
(dp3275
g82
g83
ssg71
g3269
sg64
(lp3276
S'session_id_sueldos'
p3277
asbag57
(g78
g59
NtRp3278
(dp3279
g62
(dp3280
g89
g90
ssg71
g3269
sg64
(lp3281
S':'
asbag57
(g78
g59
NtRp3282
(dp3283
g62
(dp3284
sg71
g3269
sg64
(lp3285
g57
(g58
g59
NtRp3286
(dp3287
g62
(dp3288
g70
I4
ssg71
g3282
sg64
(lp3289
g475
ag57
(g66
g59
NtRp3290
(dp3291
g62
(dp3292
g70
I3
ssg71
Nsg64
(lp3293
g57
(g73
g59
NtRp3294
(dp3295
g62
(dp3296
sg71
g3290
sg64
(lp3297
g57
(g78
g59
NtRp3298
(dp3299
g62
(dp3300
g82
g83
ssg71
g3294
sg64
(lp3301
g294
asbag57
(g78
g59
NtRp3302
(dp3303
g62
(dp3304
g89
g90
ssg71
g3294
sg64
(lp3305
S':'
asbag57
(g78
g59
NtRp3306
(dp3307
g62
(dp3308
sg71
g3294
sg64
(lp3309
g57
(g58
g59
NtRp3310
(dp3311
g62
(dp3312
g70
I3
ssg71
g3306
sg64
(lp3313
S''
asbasbasbag57
(g73
g59
NtRp3314
(dp3315
g62
(dp3316
sg71
g3290
sg64
(lp3317
g57
(g78
g59
NtRp3318
(dp3319
g62
(dp3320
g82
g83
ssg71
g3314
sg64
(lp3321
g315
asbag57
(g78
g59
NtRp3322
(dp3323
g62
(dp3324
g89
g90
ssg71
g3314
sg64
(lp3325
S':'
asbag57
(g78
g59
NtRp3326
(dp3327
g62
(dp3328
sg71
g3314
sg64
(lp3329
g57
(g58
g59
NtRp3330
(dp3331
g62
(dp3332
g70
I3
ssg71
g3326
sg64
(lp3333
S''
asbasbasbag57
(g73
g59
NtRp3334
(dp3335
g62
(dp3336
sg71
g3290
sg64
(lp3337
g57
(g78
g59
NtRp3338
(dp3339
g62
(dp3340
g82
g83
ssg71
g3334
sg64
(lp3341
g336
asbag57
(g78
g59
NtRp3342
(dp3343
g62
(dp3344
g89
g90
ssg71
g3334
sg64
(lp3345
S':'
asbag57
(g78
g59
NtRp3346
(dp3347
g62
(dp3348
sg71
g3334
sg64
(lp3349
g57
(g58
g59
NtRp3350
(dp3351
g62
(dp3352
g70
I3
ssg71
g3346
sg64
(lp3353
S''
asbasbasbag57
(g73
g59
NtRp3354
(dp3355
g62
(dp3356
sg71
g3290
sg64
(lp3357
g57
(g78
g59
NtRp3358
(dp3359
g62
(dp3360
g82
g83
ssg71
g3354
sg64
(lp3361
g357
asbag57
(g78
g59
NtRp3362
(dp3363
g62
(dp3364
g89
g90
ssg71
g3354
sg64
(lp3365
S':'
asbag57
(g78
g59
NtRp3366
(dp3367
g62
(dp3368
sg71
g3354
sg64
(lp3369
g57
(g58
g59
NtRp3370
(dp3371
g62
(dp3372
g70
I3
ssg71
g3366
sg64
(lp3373
S''
asbasbasbag57
(g73
g59
NtRp3374
(dp3375
g62
(dp3376
sg71
g3290
sg64
(lp3377
g57
(g78
g59
NtRp3378
(dp3379
g62
(dp3380
g82
g83
ssg71
g3374
sg64
(lp3381
g378
asbag57
(g78
g59
NtRp3382
(dp3383
g62
(dp3384
g89
g90
ssg71
g3374
sg64
(lp3385
S':'
asbag57
(g78
g59
NtRp3386
(dp3387
g62
(dp3388
sg71
g3374
sg64
(lp3389
g57
(g58
g59
NtRp3390
(dp3391
g62
(dp3392
g70
I3
ssg71
g3386
sg64
(lp3393
S''
asbasbasbag57
(g73
g59
NtRp3394
(dp3395
g62
(dp3396
sg71
g3290
sg64
(lp3397
g57
(g78
g59
NtRp3398
(dp3399
g62
(dp3400
g82
g83
ssg71
g3394
sg64
(lp3401
g399
asbag57
(g78
g59
NtRp3402
(dp3403
g62
(dp3404
g89
g90
ssg71
g3394
sg64
(lp3405
S':'
asbag57
(g78
g59
NtRp3406
(dp3407
g62
(dp3408
sg71
g3394
sg64
(lp3409
g57
(g58
g59
NtRp3410
(dp3411
g62
(dp3412
g70
I3
ssg71
g3406
sg64
(lp3413
S'/'
asbasbasbag57
(g73
g59
NtRp3414
(dp3415
g62
(dp3416
sg71
g3290
sg64
(lp3417
g57
(g78
g59
NtRp3418
(dp3419
g62
(dp3420
g82
g83
ssg71
g3414
sg64
(lp3421
g420
asbag57
(g78
g59
NtRp3422
(dp3423
g62
(dp3424
g89
g90
ssg71
g3414
sg64
(lp3425
S':'
asbag57
(g78
g59
NtRp3426
(dp3427
g62
(dp3428
sg71
g3414
sg64
(lp3429
g57
(g58
g59
NtRp3430
(dp3431
g62
(dp3432
g70
I3
ssg71
g3426
sg64
(lp3433
S''
asbasbasbag57
(g73
g59
NtRp3434
(dp3435
g62
(dp3436
sg71
g3290
sg64
(lp3437
g57
(g78
g59
NtRp3438
(dp3439
g62
(dp3440
g82
g83
ssg71
g3434
sg64
(lp3441
g441
asbag57
(g78
g59
NtRp3442
(dp3443
g62
(dp3444
g89
g90
ssg71
g3434
sg64
(lp3445
S':'
asbag57
(g78
g59
NtRp3446
(dp3447
g62
(dp3448
sg71
g3434
sg64
(lp3449
g57
(g58
g59
NtRp3450
(dp3451
g62
(dp3452
g70
I3
ssg71
g3446
sg64
(lp3453
S''
asbasbasbasbasbasbasbasbasbasbasbag57
(g73
g59
NtRp3454
(dp3455
g62
(dp3456
sg71
g3220
sg64
(lp3457
g57
(g78
g59
NtRp3458
(dp3459
g62
(dp3460
g82
g83
ssg71
g3454
sg64
(lp3461
S'delimiters'
p3462
asbag57
(g78
g59
NtRp3463
(dp3464
g62
(dp3465
g89
g90
ssg71
g3454
sg64
(lp3466
S':'
asbag57
(g78
g59
NtRp3467
(dp3468
g62
(dp3469
sg71
g3454
sg64
(lp3470
g57
(g58
g59
NtRp3471
(dp3472
g62
(dp3473
g70
I5
ssg71
g3467
sg64
(lp3474
g57
(g66
g59
NtRp3475
(dp3476
g62
(dp3477
g70
I4
ssg71
Nsg64
(lp3478
g57
(g73
g59
NtRp3479
(dp3480
g62
(dp3481
sg71
g3475
sg64
(lp3482
g57
(g78
g59
NtRp3483
(dp3484
g62
(dp3485
sg71
g3479
sg64
(lp3486
g57
(g58
g59
NtRp3487
(dp3488
g62
(dp3489
g70
I4
ssg71
g3483
sg64
(lp3490
S'{{'
p3491
asbasbasbag57
(g73
g59
NtRp3492
(dp3493
g62
(dp3494
sg71
g3475
sg64
(lp3495
g57
(g78
g59
NtRp3496
(dp3497
g62
(dp3498
sg71
g3492
sg64
(lp3499
g57
(g58
g59
NtRp3500
(dp3501
g62
(dp3502
g70
I4
ssg71
g3496
sg64
(lp3503
S'}}'
p3504
asbasbasbasbasbasbasbag57
(g73
g59
NtRp3505
(dp3506
g62
(dp3507
sg71
g3220
sg64
(lp3508
g57
(g78
g59
NtRp3509
(dp3510
g62
(dp3511
g82
g83
ssg71
g3505
sg64
(lp3512
S'files'
p3513
asbag57
(g78
g59
NtRp3514
(dp3515
g62
(dp3516
g89
g90
ssg71
g3505
sg64
(lp3517
S':'
asbag57
(g78
g59
NtRp3518
(dp3519
g62
(dp3520
sg71
g3505
sg64
(lp3521
g57
(g58
g59
NtRp3522
(dp3523
g62
(dp3524
g70
I5
ssg71
g3518
sg64
(lp3525
g57
(g66
g59
NtRp3526
(dp3527
g62
(dp3528
g70
I4
ssg71
Nsg64
(lp3529
sbasbasbasbag57
(g73
g59
NtRp3530
(dp3531
g62
(dp3532
sg71
g3220
sg64
(lp3533
g57
(g78
g59
NtRp3534
(dp3535
g62
(dp3536
g82
g83
ssg71
g3530
sg64
(lp3537
S'flash'
p3538
asbag57
(g78
g59
NtRp3539
(dp3540
g62
(dp3541
g89
g90
ssg71
g3530
sg64
(lp3542
S':'
asbag57
(g78
g59
NtRp3543
(dp3544
g62
(dp3545
sg71
g3530
sg64
(lp3546
g57
(g58
g59
NtRp3547
(dp3548
g62
(dp3549
g70
I5
ssg71
g3543
sg64
(lp3550
S''
asbasbasbag57
(g73
g59
NtRp3551
(dp3552
g62
(dp3553
sg71
g3220
sg64
(lp3554
g57
(g78
g59
NtRp3555
(dp3556
g62
(dp3557
g82
g83
ssg71
g3551
sg64
(lp3558
S'generic_patterns'
p3559
asbag57
(g78
g59
NtRp3560
(dp3561
g62
(dp3562
g89
g90
ssg71
g3551
sg64
(lp3563
S':'
asbag57
(g78
g59
NtRp3564
(dp3565
g62
(dp3566
sg71
g3551
sg64
(lp3567
g57
(g58
g59
NtRp3568
(dp3569
g62
(dp3570
g70
I5
ssg71
g3564
sg64
(lp3571
g57
(g66
g59
NtRp3572
(dp3573
g62
(dp3574
g70
I4
ssg71
Nsg64
(lp3575
g57
(g73
g59
NtRp3576
(dp3577
g62
(dp3578
sg71
g3572
sg64
(lp3579
g57
(g78
g59
NtRp3580
(dp3581
g62
(dp3582
sg71
g3576
sg64
(lp3583
g57
(g58
g59
NtRp3584
(dp3585
g62
(dp3586
g70
I4
ssg71
g3580
sg64
(lp3587
S'*'
asbasbasbasbasbasbasbag57
(g73
g59
NtRp3588
(dp3589
g62
(dp3590
sg71
g3220
sg64
(lp3591
g57
(g78
g59
NtRp3592
(dp3593
g62
(dp3594
g82
g83
ssg71
g3588
sg64
(lp3595
S'google_analytics_id'
p3596
asbag57
(g78
g59
NtRp3597
(dp3598
g62
(dp3599
g89
g90
ssg71
g3588
sg64
(lp3600
S':'
asbag57
(g78
g59
NtRp3601
(dp3602
g62
(dp3603
sg71
g3588
sg64
(lp3604
g57
(g58
g59
NtRp3605
(dp3606
g62
(dp3607
g70
I5
ssg71
g3601
sg64
(lp3608
S'None'
p3609
asbasbasbag57
(g73
g59
NtRp3610
(dp3611
g62
(dp3612
sg71
g3220
sg64
(lp3613
g57
(g78
g59
NtRp3614
(dp3615
g62
(dp3616
g82
g83
ssg71
g3610
sg64
(lp3617
S'headers'
p3618
asbag57
(g78
g59
NtRp3619
(dp3620
g62
(dp3621
g89
g90
ssg71
g3610
sg64
(lp3622
S':'
asbag57
(g78
g59
NtRp3623
(dp3624
g62
(dp3625
sg71
g3610
sg64
(lp3626
g57
(g58
g59
NtRp3627
(dp3628
g62
(dp3629
g70
I5
ssg71
g3623
sg64
(lp3630
g57
(g66
g59
NtRp3631
(dp3632
g62
(dp3633
g70
I4
ssg71
Nsg64
(lp3634
g57
(g73
g59
NtRp3635
(dp3636
g62
(dp3637
sg71
g3631
sg64
(lp3638
g57
(g78
g59
NtRp3639
(dp3640
g62
(dp3641
g82
g83
ssg71
g3635
sg64
(lp3642
S'X-Powered-By'
p3643
asbag57
(g78
g59
NtRp3644
(dp3645
g62
(dp3646
g89
g90
ssg71
g3635
sg64
(lp3647
S':'
asbag57
(g78
g59
NtRp3648
(dp3649
g62
(dp3650
sg71
g3635
sg64
(lp3651
g57
(g58
g59
NtRp3652
(dp3653
g62
(dp3654
g70
I4
ssg71
g3648
sg64
(lp3655
S'web2py'
p3656
asbasbasbasbasbasbasbag57
(g73
g59
NtRp3657
(dp3658
g62
(dp3659
sg71
g3220
sg64
(lp3660
g57
(g78
g59
NtRp3661
(dp3662
g62
(dp3663
g82
g83
ssg71
g3657
sg64
(lp3664
S'menu'
p3665
asbag57
(g78
g59
NtRp3666
(dp3667
g62
(dp3668
g89
g90
ssg71
g3657
sg64
(lp3669
S':'
asbag57
(g78
g59
NtRp3670
(dp3671
g62
(dp3672
sg71
g3657
sg64
(lp3673
g57
(g58
g59
NtRp3674
(dp3675
g62
(dp3676
g70
I5
ssg71
g3670
sg64
(lp3677
g57
(g66
g59
NtRp3678
(dp3679
g62
(dp3680
g70
I4
ssg71
Nsg64
(lp3681
g57
(g73
g59
NtRp3682
(dp3683
g62
(dp3684
sg71
g3678
sg64
(lp3685
g57
(g78
g59
NtRp3686
(dp3687
g62
(dp3688
sg71
g3682
sg64
(lp3689
g57
(g58
g59
NtRp3690
(dp3691
g62
(dp3692
g70
I4
ssg71
g3686
sg64
(lp3693
g57
(g66
g59
NtRp3694
(dp3695
g62
(dp3696
g70
I3
ssg71
Nsg64
(lp3697
g57
(g73
g59
NtRp3698
(dp3699
g62
(dp3700
sg71
g3694
sg64
(lp3701
g57
(g78
g59
NtRp3702
(dp3703
g62
(dp3704
sg71
g3698
sg64
(lp3705
g57
(g58
g59
NtRp3706
(dp3707
g62
(dp3708
g70
I3
ssg71
g3702
sg64
(lp3709
cgluon.languages
lazyT_unpickle
p3710
(S's\x04\x00\x00\x00Home'
tRp3711
asbasbasbag57
(g73
g59
NtRp3712
(dp3713
g62
(dp3714
sg71
g3694
sg64
(lp3715
g57
(g78
g59
NtRp3716
(dp3717
g62
(dp3718
sg71
g3712
sg64
(lp3719
g57
(g58
g59
NtRp3720
(dp3721
g62
(dp3722
g70
I3
ssg71
g3716
sg64
(lp3723
g100
asbasbasbag57
(g73
g59
NtRp3724
(dp3725
g62
(dp3726
sg71
g3694
sg64
(lp3727
g57
(g78
g59
NtRp3728
(dp3729
g62
(dp3730
sg71
g3724
sg64
(lp3731
g57
(g58
g59
NtRp3732
(dp3733
g62
(dp3734
g70
I3
ssg71
g3728
sg64
(lp3735
S'/sueldos/default/index'
p3736
asbasbasbag57
(g73
g59
NtRp3737
(dp3738
g62
(dp3739
sg71
g3694
sg64
(lp3740
g57
(g78
g59
NtRp3741
(dp3742
g62
(dp3743
sg71
g3737
sg64
(lp3744
g57
(g58
g59
NtRp3745
(dp3746
g62
(dp3747
g70
I3
ssg71
g3741
sg64
(lp3748
g57
(g66
g59
NtRp3749
(dp3750
g62
(dp3751
g70
I2
ssg71
Nsg64
(lp3752
sbasbasbasbasbasbasbasbag57
(g73
g59
NtRp3753
(dp3754
g62
(dp3755
sg71
g3678
sg64
(lp3756
g57
(g78
g59
NtRp3757
(dp3758
g62
(dp3759
sg71
g3753
sg64
(lp3760
g57
(g58
g59
NtRp3761
(dp3762
g62
(dp3763
g70
I4
ssg71
g3757
sg64
(lp3764
g57
(g66
g59
NtRp3765
(dp3766
g62
(dp3767
g70
I3
ssg71
Nsg64
(lp3768
g57
(g73
g59
NtRp3769
(dp3770
g62
(dp3771
sg71
g3765
sg64
(lp3772
g57
(g78
g59
NtRp3773
(dp3774
g62
(dp3775
sg71
g3769
sg64
(lp3776
g57
(g58
g59
NtRp3777
(dp3778
g62
(dp3779
g70
I3
ssg71
g3773
sg64
(lp3780
g57
(cgluon.html
SPAN
p3781
g59
NtRp3782
(dp3783
g62
(dp3784
S'_class'
p3785
S'highlighted'
p3786
ssg71
Nsg64
(lp3787
g3656
asbasbasbasbag57
(g73
g59
NtRp3788
(dp3789
g62
(dp3790
sg71
g3765
sg64
(lp3791
g57
(g78
g59
NtRp3792
(dp3793
g62
(dp3794
sg71
g3788
sg64
(lp3795
g57
(g58
g59
NtRp3796
(dp3797
g62
(dp3798
g70
I3
ssg71
g3792
sg64
(lp3799
g100
asbasbasbag57
(g73
g59
NtRp3800
(dp3801
g62
(dp3802
sg71
g3765
sg64
(lp3803
g57
(g78
g59
NtRp3804
(dp3805
g62
(dp3806
sg71
g3800
sg64
(lp3807
g57
(g58
g59
NtRp3808
(dp3809
g62
(dp3810
g70
I3
ssg71
g3804
sg64
(lp3811
S'http://web2py.com'
p3812
asbasbasbag57
(g73
g59
NtRp3813
(dp3814
g62
(dp3815
sg71
g3765
sg64
(lp3816
g57
(g78
g59
NtRp3817
(dp3818
g62
(dp3819
sg71
g3813
sg64
(lp3820
g57
(g58
g59
NtRp3821
(dp3822
g62
(dp3823
g70
I3
ssg71
g3817
sg64
(lp3824
g57
(g66
g59
NtRp3825
(dp3826
g62
(dp3827
g70
I2
ssg71
Nsg64
(lp3828
g57
(g73
g59
NtRp3829
(dp3830
g62
(dp3831
sg71
g3825
sg64
(lp3832
g57
(g78
g59
NtRp3833
(dp3834
g62
(dp3835
sg71
g3829
sg64
(lp3836
g57
(g58
g59
NtRp3837
(dp3838
g62
(dp3839
g70
I2
ssg71
g3833
sg64
(lp3840
g57
(g66
g59
NtRp3841
(dp3842
g62
(dp3843
g70
I1
ssg71
Nsg64
(lp3844
g57
(g73
g59
NtRp3845
(dp3846
g62
(dp3847
sg71
g3841
sg64
(lp3848
g57
(g78
g59
NtRp3849
(dp3850
g62
(dp3851
sg71
g3845
sg64
(lp3852
g57
(g58
g59
NtRp3853
(dp3854
g62
(dp3855
g70
I1
ssg71
g3849
sg64
(lp3856
g3710
(S's\x08\x00\x00\x00My Sites'
tRp3857
asbasbasbag57
(g73
g59
NtRp3858
(dp3859
g62
(dp3860
sg71
g3841
sg64
(lp3861
g57
(g78
g59
NtRp3862
(dp3863
g62
(dp3864
sg71
g3858
sg64
(lp3865
g57
(g58
g59
NtRp3866
(dp3867
g62
(dp3868
g70
I1
ssg71
g3862
sg64
(lp3869
I00
asbasbasbag57
(g73
g59
NtRp3870
(dp3871
g62
(dp3872
sg71
g3841
sg64
(lp3873
g57
(g78
g59
NtRp3874
(dp3875
g62
(dp3876
sg71
g3870
sg64
(lp3877
g57
(g58
g59
NtRp3878
(dp3879
g62
(dp3880
g70
I1
ssg71
g3874
sg64
(lp3881
S'/admin/default/site'
p3882
asbasbasbasbasbasbasbag57
(g73
g59
NtRp3883
(dp3884
g62
(dp3885
sg71
g3825
sg64
(lp3886
g57
(g78
g59
NtRp3887
(dp3888
g62
(dp3889
sg71
g3883
sg64
(lp3890
g57
(g58
g59
NtRp3891
(dp3892
g62
(dp3893
g70
I2
ssg71
g3887
sg64
(lp3894
g57
(g66
g59
NtRp3895
(dp3896
g62
(dp3897
g70
I1
ssg71
Nsg64
(lp3898
g57
(g73
g59
NtRp3899
(dp3900
g62
(dp3901
sg71
g3895
sg64
(lp3902
g57
(g78
g59
NtRp3903
(dp3904
g62
(dp3905
sg71
g3899
sg64
(lp3906
g57
(g58
g59
NtRp3907
(dp3908
g62
(dp3909
g70
I1
ssg71
g3903
sg64
(lp3910
g3710
(S's\x08\x00\x00\x00This App'
tRp3911
asbasbasbag57
(g73
g59
NtRp3912
(dp3913
g62
(dp3914
sg71
g3895
sg64
(lp3915
g57
(g78
g59
NtRp3916
(dp3917
g62
(dp3918
sg71
g3912
sg64
(lp3919
g57
(g58
g59
NtRp3920
(dp3921
g62
(dp3922
g70
I1
ssg71
g3916
sg64
(lp3923
I00
asbasbasbag57
(g73
g59
NtRp3924
(dp3925
g62
(dp3926
sg71
g3895
sg64
(lp3927
g57
(g78
g59
NtRp3928
(dp3929
g62
(dp3930
sg71
g3924
sg64
(lp3931
g57
(g58
g59
NtRp3932
(dp3933
g62
(dp3934
g70
I1
ssg71
g3928
sg64
(lp3935
S'/admin/default/design/sueldos'
p3936
asbasbasbag57
(g73
g59
NtRp3937
(dp3938
g62
(dp3939
sg71
g3895
sg64
(lp3940
g57
(g78
g59
NtRp3941
(dp3942
g62
(dp3943
sg71
g3937
sg64
(lp3944
g57
(g58
g59
NtRp3945
(dp3946
g62
(dp3947
g70
I1
ssg71
g3941
sg64
(lp3948
(lp3949
(g3710
(S's\n\x00\x00\x00Controller'
tRp3950
I00
S'/admin/default/edit/sueldos/controllers/vistas.py'
tp3951
a(g3710
(S's\x04\x00\x00\x00View'
tRp3952
I00
S'/admin/default/edit/sueldos/views/vistas/importes.html'
tp3953
a(g3710
(S's\x06\x00\x00\x00Layout'
tRp3954
I00
S'/admin/default/edit/sueldos/views/layout.html'
tp3955
a(g3710
(S's\n\x00\x00\x00Stylesheet'
tRp3956
I00
S'/admin/default/edit/sueldos/static/css/web2py.css'
tp3957
a(g3710
(S's\x08\x00\x00\x00DB Model'
tRp3958
I00
S'/admin/default/edit/sueldos/models/db.py'
tp3959
a(g3710
(S's\n\x00\x00\x00Menu Model'
tRp3960
I00
S'/admin/default/edit/sueldos/models/menu.py'
tp3961
a(g3710
(S's\x08\x00\x00\x00Database'
tRp3962
I00
S'/sueldos/appadmin/index'
tp3963
a(g3710
(S's\x06\x00\x00\x00Errors'
tRp3964
I00
S'/admin/default/errors/sueldos'
tp3965
a(g3710
(S's\x05\x00\x00\x00About'
tRp3966
I00
S'/admin/default/about/sueldos'
tp3967
aasbasbasbasbasbasbasbag57
(g73
g59
NtRp3968
(dp3969
g62
(dp3970
sg71
g3825
sg64
(lp3971
g57
(g78
g59
NtRp3972
(dp3973
g62
(dp3974
sg71
g3968
sg64
(lp3975
g57
(g58
g59
NtRp3976
(dp3977
g62
(dp3978
g70
I2
ssg71
g3972
sg64
(lp3979
g57
(g66
g59
NtRp3980
(dp3981
g62
(dp3982
g70
I1
ssg71
Nsg64
(lp3983
g57
(g73
g59
NtRp3984
(dp3985
g62
(dp3986
sg71
g3980
sg64
(lp3987
g57
(g78
g59
NtRp3988
(dp3989
g62
(dp3990
sg71
g3984
sg64
(lp3991
g57
(g58
g59
NtRp3992
(dp3993
g62
(dp3994
g70
I1
ssg71
g3988
sg64
(lp3995
S'web2py.com'
p3996
asbasbasbag57
(g73
g59
NtRp3997
(dp3998
g62
(dp3999
sg71
g3980
sg64
(lp4000
g57
(g78
g59
NtRp4001
(dp4002
g62
(dp4003
sg71
g3997
sg64
(lp4004
g57
(g58
g59
NtRp4005
(dp4006
g62
(dp4007
g70
I1
ssg71
g4001
sg64
(lp4008
I00
asbasbasbag57
(g73
g59
NtRp4009
(dp4010
g62
(dp4011
sg71
g3980
sg64
(lp4012
g57
(g78
g59
NtRp4013
(dp4014
g62
(dp4015
sg71
g4009
sg64
(lp4016
g57
(g58
g59
NtRp4017
(dp4018
g62
(dp4019
g70
I1
ssg71
g4013
sg64
(lp4020
S'http://www.web2py.com'
p4021
asbasbasbag57
(g73
g59
NtRp4022
(dp4023
g62
(dp4024
sg71
g3980
sg64
(lp4025
g57
(g78
g59
NtRp4026
(dp4027
g62
(dp4028
sg71
g4022
sg64
(lp4029
g57
(g58
g59
NtRp4030
(dp4031
g62
(dp4032
g70
I1
ssg71
g4026
sg64
(lp4033
(lp4034
(g3710
(S's\x08\x00\x00\x00Download'
tRp4035
I00
S'http://www.web2py.com/examples/default/download'
p4036
tp4037
a(g3710
(S's\x07\x00\x00\x00Support'
tRp4038
I00
S'http://www.web2py.com/examples/default/support'
p4039
tp4040
a(g3710
(S's\x04\x00\x00\x00Demo'
tRp4041
I00
S'http://web2py.com/demo_admin'
p4042
tp4043
a(g3710
(S's\x0e\x00\x00\x00Quick Examples'
tRp4044
I00
S'http://web2py.com/examples/default/examples'
p4045
tp4046
a(g3710
(S's\x03\x00\x00\x00FAQ'
tRp4047
I00
S'http://web2py.com/AlterEgo'
p4048
tp4049
a(g3710
(S's\x06\x00\x00\x00Videos'
tRp4050
I00
S'http://www.web2py.com/examples/default/videos/'
p4051
tp4052
a(g3710
(S's\x11\x00\x00\x00Free Applications'
tRp4053
I00
S'http://web2py.com/appliances'
p4054
tp4055
a(g3710
(S's\x07\x00\x00\x00Plugins'
tRp4056
I00
S'http://web2py.com/plugins'
p4057
tp4058
a(g3710
(S's\x07\x00\x00\x00Layouts'
tRp4059
I00
S'http://web2py.com/layouts'
p4060
tp4061
a(g3710
(S's\x07\x00\x00\x00Recipes'
tRp4062
I00
S'http://web2pyslices.com/'
p4063
tp4064
a(g3710
(S's\x08\x00\x00\x00Semantic'
tRp4065
I00
S'http://web2py.com/semantic'
p4066
tp4067
aasbasbasbasbasbasbasbag57
(g73
g59
NtRp4068
(dp4069
g62
(dp4070
sg71
g3825
sg64
(lp4071
g57
(g78
g59
NtRp4072
(dp4073
g62
(dp4074
sg71
g4068
sg64
(lp4075
g57
(g58
g59
NtRp4076
(dp4077
g62
(dp4078
g70
I2
ssg71
g4072
sg64
(lp4079
g57
(g66
g59
NtRp4080
(dp4081
g62
(dp4082
g70
I1
ssg71
Nsg64
(lp4083
g57
(g73
g59
NtRp4084
(dp4085
g62
(dp4086
sg71
g4080
sg64
(lp4087
g57
(g78
g59
NtRp4088
(dp4089
g62
(dp4090
sg71
g4084
sg64
(lp4091
g57
(g58
g59
NtRp4092
(dp4093
g62
(dp4094
g70
I1
ssg71
g4088
sg64
(lp4095
g3710
(S's\r\x00\x00\x00Documentation'
tRp4096
asbasbasbag57
(g73
g59
NtRp4097
(dp4098
g62
(dp4099
sg71
g4080
sg64
(lp4100
g57
(g78
g59
NtRp4101
(dp4102
g62
(dp4103
sg71
g4097
sg64
(lp4104
g57
(g58
g59
NtRp4105
(dp4106
g62
(dp4107
g70
I1
ssg71
g4101
sg64
(lp4108
I00
asbasbasbag57
(g73
g59
NtRp4109
(dp4110
g62
(dp4111
sg71
g4080
sg64
(lp4112
g57
(g78
g59
NtRp4113
(dp4114
g62
(dp4115
sg71
g4109
sg64
(lp4116
g57
(g58
g59
NtRp4117
(dp4118
g62
(dp4119
g70
I1
ssg71
g4113
sg64
(lp4120
S'http://www.web2py.com/book'
p4121
asbasbasbag57
(g73
g59
NtRp4122
(dp4123
g62
(dp4124
sg71
g4080
sg64
(lp4125
g57
(g78
g59
NtRp4126
(dp4127
g62
(dp4128
sg71
g4122
sg64
(lp4129
g57
(g58
g59
NtRp4130
(dp4131
g62
(dp4132
g70
I1
ssg71
g4126
sg64
(lp4133
(lp4134
(g3710
(S's\x07\x00\x00\x00Preface'
tRp4135
I00
S'http://www.web2py.com/book/default/chapter/00'
p4136
tp4137
a(g3710
(S's\x0c\x00\x00\x00Introduction'
tRp4138
I00
S'http://www.web2py.com/book/default/chapter/01'
p4139
tp4140
a(g3710
(S's\x06\x00\x00\x00Python'
tRp4141
I00
S'http://www.web2py.com/book/default/chapter/02'
p4142
tp4143
a(g3710
(S's\x08\x00\x00\x00Overview'
tRp4144
I00
S'http://www.web2py.com/book/default/chapter/03'
p4145
tp4146
a(g3710
(S's\x08\x00\x00\x00The Core'
tRp4147
I00
S'http://www.web2py.com/book/default/chapter/04'
p4148
tp4149
a(g3710
(S's\t\x00\x00\x00The Views'
tRp4150
I00
S'http://www.web2py.com/book/default/chapter/05'
p4151
tp4152
a(g3710
(S's\x08\x00\x00\x00Database'
tRp4153
I00
S'http://www.web2py.com/book/default/chapter/06'
p4154
tp4155
a(g3710
(S's\x14\x00\x00\x00Forms and Validators'
tRp4156
I00
S'http://www.web2py.com/book/default/chapter/07'
p4157
tp4158
a(g3710
(S's\r\x00\x00\x00Email and SMS'
tRp4159
I00
S'http://www.web2py.com/book/default/chapter/08'
p4160
tp4161
a(g3710
(S's\x0e\x00\x00\x00Access Control'
tRp4162
I00
S'http://www.web2py.com/book/default/chapter/09'
p4163
tp4164
a(g3710
(S's\x08\x00\x00\x00Services'
tRp4165
I00
S'http://www.web2py.com/book/default/chapter/10'
p4166
tp4167
a(g3710
(S's\x0c\x00\x00\x00Ajax Recipes'
tRp4168
I00
S'http://www.web2py.com/book/default/chapter/11'
p4169
tp4170
a(g3710
(S's\x16\x00\x00\x00Components and Plugins'
tRp4171
I00
S'http://www.web2py.com/book/default/chapter/12'
p4172
tp4173
a(g3710
(S's\x12\x00\x00\x00Deployment Recipes'
tRp4174
I00
S'http://www.web2py.com/book/default/chapter/13'
p4175
tp4176
a(g3710
(S's\r\x00\x00\x00Other Recipes'
tRp4177
I00
S'http://www.web2py.com/book/default/chapter/14'
p4178
tp4179
a(g3710
(S's\r\x00\x00\x00Buy this book'
tRp4180
I00
S'http://stores.lulu.com/web2py'
p4181
tp4182
aasbasbasbasbasbasbasbag57
(g73
g59
NtRp4183
(dp4184
g62
(dp4185
sg71
g3825
sg64
(lp4186
g57
(g78
g59
NtRp4187
(dp4188
g62
(dp4189
sg71
g4183
sg64
(lp4190
g57
(g58
g59
NtRp4191
(dp4192
g62
(dp4193
g70
I2
ssg71
g4187
sg64
(lp4194
g57
(g66
g59
NtRp4195
(dp4196
g62
(dp4197
g70
I1
ssg71
Nsg64
(lp4198
g57
(g73
g59
NtRp4199
(dp4200
g62
(dp4201
sg71
g4195
sg64
(lp4202
g57
(g78
g59
NtRp4203
(dp4204
g62
(dp4205
sg71
g4199
sg64
(lp4206
g57
(g58
g59
NtRp4207
(dp4208
g62
(dp4209
g70
I1
ssg71
g4203
sg64
(lp4210
g3710
(S's\t\x00\x00\x00Community'
tRp4211
asbasbasbag57
(g73
g59
NtRp4212
(dp4213
g62
(dp4214
sg71
g4195
sg64
(lp4215
g57
(g78
g59
NtRp4216
(dp4217
g62
(dp4218
sg71
g4212
sg64
(lp4219
g57
(g58
g59
NtRp4220
(dp4221
g62
(dp4222
g70
I1
ssg71
g4216
sg64
(lp4223
I00
asbasbasbag57
(g73
g59
NtRp4224
(dp4225
g62
(dp4226
sg71
g4195
sg64
(lp4227
g57
(g78
g59
NtRp4228
(dp4229
g62
(dp4230
sg71
g4224
sg64
(lp4231
g57
(g58
g59
NtRp4232
(dp4233
g62
(dp4234
g70
I1
ssg71
g4228
sg64
(lp4235
Nasbasbasbag57
(g73
g59
NtRp4236
(dp4237
g62
(dp4238
sg71
g4195
sg64
(lp4239
g57
(g78
g59
NtRp4240
(dp4241
g62
(dp4242
sg71
g4236
sg64
(lp4243
g57
(g58
g59
NtRp4244
(dp4245
g62
(dp4246
g70
I1
ssg71
g4240
sg64
(lp4247
(lp4248
(g3710
(S's\x06\x00\x00\x00Groups'
tRp4249
I00
S'http://www.web2py.com/examples/default/usergroups'
p4250
tp4251
a(g3710
(S's\x07\x00\x00\x00Twitter'
tRp4252
I00
S'http://twitter.com/web2py'
p4253
tp4254
a(g3710
(S's\t\x00\x00\x00Live Chat'
tRp4255
I00
S'http://webchat.freenode.net/?channels=web2py'
p4256
tp4257
aasbasbasbasbasbasbasbag57
(g73
g59
NtRp4258
(dp4259
g62
(dp4260
sg71
g3825
sg64
(lp4261
g57
(g78
g59
NtRp4262
(dp4263
g62
(dp4264
sg71
g4258
sg64
(lp4265
g57
(g58
g59
NtRp4266
(dp4267
g62
(dp4268
g70
I2
ssg71
g4262
sg64
(lp4269
g57
(g66
g59
NtRp4270
(dp4271
g62
(dp4272
g70
I1
ssg71
Nsg64
(lp4273
g57
(g73
g59
NtRp4274
(dp4275
g62
(dp4276
sg71
g4270
sg64
(lp4277
g57
(g78
g59
NtRp4278
(dp4279
g62
(dp4280
sg71
g4274
sg64
(lp4281
g57
(g58
g59
NtRp4282
(dp4283
g62
(dp4284
g70
I1
ssg71
g4278
sg64
(lp4285
g3710
(S's\x07\x00\x00\x00Plugins'
tRp4286
asbasbasbag57
(g73
g59
NtRp4287
(dp4288
g62
(dp4289
sg71
g4270
sg64
(lp4290
g57
(g78
g59
NtRp4291
(dp4292
g62
(dp4293
sg71
g4287
sg64
(lp4294
g57
(g58
g59
NtRp4295
(dp4296
g62
(dp4297
g70
I1
ssg71
g4291
sg64
(lp4298
I00
asbasbasbag57
(g73
g59
NtRp4299
(dp4300
g62
(dp4301
sg71
g4270
sg64
(lp4302
g57
(g78
g59
NtRp4303
(dp4304
g62
(dp4305
sg71
g4299
sg64
(lp4306
g57
(g58
g59
NtRp4307
(dp4308
g62
(dp4309
g70
I1
ssg71
g4303
sg64
(lp4310
Nasbasbasbag57
(g73
g59
NtRp4311
(dp4312
g62
(dp4313
sg71
g4270
sg64
(lp4314
g57
(g78
g59
NtRp4315
(dp4316
g62
(dp4317
sg71
g4311
sg64
(lp4318
g57
(g58
g59
NtRp4319
(dp4320
g62
(dp4321
g70
I1
ssg71
g4315
sg64
(lp4322
(lp4323
(S'plugin_wiki'
p4324
I00
S'http://web2py.com/examples/default/download'
p4325
tp4326
a(g3710
(S's\r\x00\x00\x00Other Plugins'
tRp4327
I00
g4057
tp4328
a(g3710
(S's\x0e\x00\x00\x00Layout Plugins'
tRp4329
I00
g4060
tp4330
aasbasbasbasbasbasbasbasbasbasbasbasbasbasbasbasbasbasbasbag57
(g73
g59
NtRp4331
(dp4332
g62
(dp4333
sg71
g3220
sg64
(lp4334
g57
(g78
g59
NtRp4335
(dp4336
g62
(dp4337
g82
g83
ssg71
g4331
sg64
(lp4338
S'meta'
p4339
asbag57
(g78
g59
NtRp4340
(dp4341
g62
(dp4342
g89
g90
ssg71
g4331
sg64
(lp4343
S':'
asbag57
(g78
g59
NtRp4344
(dp4345
g62
(dp4346
sg71
g4331
sg64
(lp4347
g57
(g58
g59
NtRp4348
(dp4349
g62
(dp4350
g70
I5
ssg71
g4344
sg64
(lp4351
g57
(g66
g59
NtRp4352
(dp4353
g62
(dp4354
g70
I4
ssg71
Nsg64
(lp4355
g57
(g73
g59
NtRp4356
(dp4357
g62
(dp4358
sg71
g4352
sg64
(lp4359
g57
(g78
g59
NtRp4360
(dp4361
g62
(dp4362
g82
g83
ssg71
g4356
sg64
(lp4363
S'author'
p4364
asbag57
(g78
g59
NtRp4365
(dp4366
g62
(dp4367
g89
g90
ssg71
g4356
sg64
(lp4368
S':'
asbag57
(g78
g59
NtRp4369
(dp4370
g62
(dp4371
sg71
g4356
sg64
(lp4372
g57
(g58
g59
NtRp4373
(dp4374
g62
(dp4375
g70
I4
ssg71
g4369
sg64
(lp4376
S'Your Name <you@example.com>'
p4377
asbasbasbag57
(g73
g59
NtRp4378
(dp4379
g62
(dp4380
sg71
g4352
sg64
(lp4381
g57
(g78
g59
NtRp4382
(dp4383
g62
(dp4384
g82
g83
ssg71
g4378
sg64
(lp4385
S'description'
p4386
asbag57
(g78
g59
NtRp4387
(dp4388
g62
(dp4389
g89
g90
ssg71
g4378
sg64
(lp4390
S':'
asbag57
(g78
g59
NtRp4391
(dp4392
g62
(dp4393
sg71
g4378
sg64
(lp4394
g57
(g58
g59
NtRp4395
(dp4396
g62
(dp4397
g70
I4
ssg71
g4391
sg64
(lp4398
S'a cool new app'
p4399
asbasbasbag57
(g73
g59
NtRp4400
(dp4401
g62
(dp4402
sg71
g4352
sg64
(lp4403
g57
(g78
g59
NtRp4404
(dp4405
g62
(dp4406
g82
g83
ssg71
g4400
sg64
(lp4407
S'generator'
p4408
asbag57
(g78
g59
NtRp4409
(dp4410
g62
(dp4411
g89
g90
ssg71
g4400
sg64
(lp4412
S':'
asbag57
(g78
g59
NtRp4413
(dp4414
g62
(dp4415
sg71
g4400
sg64
(lp4416
g57
(g58
g59
NtRp4417
(dp4418
g62
(dp4419
g70
I4
ssg71
g4413
sg64
(lp4420
S'Web2py Web Framework'
p4421
asbasbasbag57
(g73
g59
NtRp4422
(dp4423
g62
(dp4424
sg71
g4352
sg64
(lp4425
g57
(g78
g59
NtRp4426
(dp4427
g62
(dp4428
g82
g83
ssg71
g4422
sg64
(lp4429
S'keywords'
p4430
asbag57
(g78
g59
NtRp4431
(dp4432
g62
(dp4433
g89
g90
ssg71
g4422
sg64
(lp4434
S':'
asbag57
(g78
g59
NtRp4435
(dp4436
g62
(dp4437
sg71
g4422
sg64
(lp4438
g57
(g58
g59
NtRp4439
(dp4440
g62
(dp4441
g70
I4
ssg71
g4435
sg64
(lp4442
S'web2py, python, framework'
p4443
asbasbasbasbasbasbasbag57
(g73
g59
NtRp4444
(dp4445
g62
(dp4446
sg71
g3220
sg64
(lp4447
g57
(g78
g59
NtRp4448
(dp4449
g62
(dp4450
g82
g83
ssg71
g4444
sg64
(lp4451
S'models_to_run'
p4452
asbag57
(g78
g59
NtRp4453
(dp4454
g62
(dp4455
g89
g90
ssg71
g4444
sg64
(lp4456
S':'
asbag57
(g78
g59
NtRp4457
(dp4458
g62
(dp4459
sg71
g4444
sg64
(lp4460
g57
(g58
g59
NtRp4461
(dp4462
g62
(dp4463
g70
I5
ssg71
g4457
sg64
(lp4464
g57
(g66
g59
NtRp4465
(dp4466
g62
(dp4467
g70
I4
ssg71
Nsg64
(lp4468
g57
(g73
g59
NtRp4469
(dp4470
g62
(dp4471
sg71
g4465
sg64
(lp4472
g57
(g78
g59
NtRp4473
(dp4474
g62
(dp4475
sg71
g4469
sg64
(lp4476
g57
(g58
g59
NtRp4477
(dp4478
g62
(dp4479
g70
I4
ssg71
g4473
sg64
(lp4480
S'^\\w+\\.py$'
p4481
asbasbasbag57
(g73
g59
NtRp4482
(dp4483
g62
(dp4484
sg71
g4465
sg64
(lp4485
g57
(g78
g59
NtRp4486
(dp4487
g62
(dp4488
sg71
g4482
sg64
(lp4489
g57
(g58
g59
NtRp4490
(dp4491
g62
(dp4492
g70
I4
ssg71
g4486
sg64
(lp4493
S'^vistas/\\w+\\.py$'
p4494
asbasbasbag57
(g73
g59
NtRp4495
(dp4496
g62
(dp4497
sg71
g4465
sg64
(lp4498
g57
(g78
g59
NtRp4499
(dp4500
g62
(dp4501
sg71
g4495
sg64
(lp4502
g57
(g58
g59
NtRp4503
(dp4504
g62
(dp4505
g70
I4
ssg71
g4499
sg64
(lp4506
S'^vistas/importes/\\w+\\.py$'
p4507
asbasbasbasbasbasbasbag57
(g73
g59
NtRp4508
(dp4509
g62
(dp4510
sg71
g3220
sg64
(lp4511
g57
(g78
g59
NtRp4512
(dp4513
g62
(dp4514
g82
g83
ssg71
g4508
sg64
(lp4515
S'postprocessing'
p4516
asbag57
(g78
g59
NtRp4517
(dp4518
g62
(dp4519
g89
g90
ssg71
g4508
sg64
(lp4520
S':'
asbag57
(g78
g59
NtRp4521
(dp4522
g62
(dp4523
sg71
g4508
sg64
(lp4524
g57
(g58
g59
NtRp4525
(dp4526
g62
(dp4527
g70
I5
ssg71
g4521
sg64
(lp4528
g57
(g66
g59
NtRp4529
(dp4530
g62
(dp4531
g70
I4
ssg71
Nsg64
(lp4532
sbasbasbasbag57
(g73
g59
NtRp4533
(dp4534
g62
(dp4535
sg71
g3220
sg64
(lp4536
g57
(g78
g59
NtRp4537
(dp4538
g62
(dp4539
g82
g83
ssg71
g4533
sg64
(lp4540
S'session_cookie_expires'
p4541
asbag57
(g78
g59
NtRp4542
(dp4543
g62
(dp4544
g89
g90
ssg71
g4533
sg64
(lp4545
S':'
asbag57
(g78
g59
NtRp4546
(dp4547
g62
(dp4548
sg71
g4533
sg64
(lp4549
g57
(g58
g59
NtRp4550
(dp4551
g62
(dp4552
g70
I5
ssg71
g4546
sg64
(lp4553
S'None'
p4554
asbasbasbag57
(g73
g59
NtRp4555
(dp4556
g62
(dp4557
sg71
g3220
sg64
(lp4558
g57
(g78
g59
NtRp4559
(dp4560
g62
(dp4561
g82
g83
ssg71
g4555
sg64
(lp4562
S'session_data_name'
p4563
asbag57
(g78
g59
NtRp4564
(dp4565
g62
(dp4566
g89
g90
ssg71
g4555
sg64
(lp4567
S':'
asbag57
(g78
g59
NtRp4568
(dp4569
g62
(dp4570
sg71
g4555
sg64
(lp4571
g57
(g58
g59
NtRp4572
(dp4573
g62
(dp4574
g70
I5
ssg71
g4568
sg64
(lp4575
S'session_data_sueldos'
p4576
asbasbasbag57
(g73
g59
NtRp4577
(dp4578
g62
(dp4579
sg71
g3220
sg64
(lp4580
g57
(g78
g59
NtRp4581
(dp4582
g62
(dp4583
g82
g83
ssg71
g4577
sg64
(lp4584
S'session_file'
p4585
asbag57
(g78
g59
NtRp4586
(dp4587
g62
(dp4588
g89
g90
ssg71
g4577
sg64
(lp4589
S':'
asbag57
(g78
g59
NtRp4590
(dp4591
g62
(dp4592
sg71
g4577
sg64
(lp4593
g57
(g58
g59
NtRp4594
(dp4595
g62
(dp4596
g70
I5
ssg71
g4590
sg64
(lp4597
S"<open file '/home/marco/projects/contabilidad/web2py/applications/sueldos/sessions/127.0.0.1-05ce4365-dc54-4394-bd3e-60890d75bc96', mode 'rb+' at 0x3841930>"
p4598
asbasbasbag57
(g73
g59
NtRp4599
(dp4600
g62
(dp4601
sg71
g3220
sg64
(lp4602
g57
(g78
g59
NtRp4603
(dp4604
g62
(dp4605
g82
g83
ssg71
g4599
sg64
(lp4606
S'session_filename'
p4607
asbag57
(g78
g59
NtRp4608
(dp4609
g62
(dp4610
g89
g90
ssg71
g4599
sg64
(lp4611
S':'
asbag57
(g78
g59
NtRp4612
(dp4613
g62
(dp4614
sg71
g4599
sg64
(lp4615
g57
(g58
g59
NtRp4616
(dp4617
g62
(dp4618
g70
I5
ssg71
g4612
sg64
(lp4619
S'/home/marco/projects/contabilidad/web2py/applications/sueldos/sessions/127.0.0.1-05ce4365-dc54-4394-bd3e-60890d75bc96'
p4620
asbasbasbag57
(g73
g59
NtRp4621
(dp4622
g62
(dp4623
sg71
g3220
sg64
(lp4624
g57
(g78
g59
NtRp4625
(dp4626
g62
(dp4627
g82
g83
ssg71
g4621
sg64
(lp4628
S'session_id'
p4629
asbag57
(g78
g59
NtRp4630
(dp4631
g62
(dp4632
g89
g90
ssg71
g4621
sg64
(lp4633
S':'
asbag57
(g78
g59
NtRp4634
(dp4635
g62
(dp4636
sg71
g4621
sg64
(lp4637
g57
(g58
g59
NtRp4638
(dp4639
g62
(dp4640
g70
I5
ssg71
g4634
sg64
(lp4641
g475
asbasbasbag57
(g73
g59
NtRp4642
(dp4643
g62
(dp4644
sg71
g3220
sg64
(lp4645
g57
(g78
g59
NtRp4646
(dp4647
g62
(dp4648
g82
g83
ssg71
g4642
sg64
(lp4649
S'session_id_name'
p4650
asbag57
(g78
g59
NtRp4651
(dp4652
g62
(dp4653
g89
g90
ssg71
g4642
sg64
(lp4654
S':'
asbag57
(g78
g59
NtRp4655
(dp4656
g62
(dp4657
sg71
g4642
sg64
(lp4658
g57
(g58
g59
NtRp4659
(dp4660
g62
(dp4661
g70
I5
ssg71
g4655
sg64
(lp4662
g3277
asbasbasbag57
(g73
g59
NtRp4663
(dp4664
g62
(dp4665
sg71
g3220
sg64
(lp4666
g57
(g78
g59
NtRp4667
(dp4668
g62
(dp4669
g82
g83
ssg71
g4663
sg64
(lp4670
S'session_locked'
p4671
asbag57
(g78
g59
NtRp4672
(dp4673
g62
(dp4674
g89
g90
ssg71
g4663
sg64
(lp4675
S':'
asbag57
(g78
g59
NtRp4676
(dp4677
g62
(dp4678
sg71
g4663
sg64
(lp4679
g57
(g58
g59
NtRp4680
(dp4681
g62
(dp4682
g70
I5
ssg71
g4676
sg64
(lp4683
g1585
asbasbasbag57
(g73
g59
NtRp4684
(dp4685
g62
(dp4686
sg71
g3220
sg64
(lp4687
g57
(g78
g59
NtRp4688
(dp4689
g62
(dp4690
g82
g83
ssg71
g4684
sg64
(lp4691
S'session_new'
p4692
asbag57
(g78
g59
NtRp4693
(dp4694
g62
(dp4695
g89
g90
ssg71
g4684
sg64
(lp4696
S':'
asbag57
(g78
g59
NtRp4697
(dp4698
g62
(dp4699
sg71
g4684
sg64
(lp4700
g57
(g58
g59
NtRp4701
(dp4702
g62
(dp4703
g70
I5
ssg71
g4697
sg64
(lp4704
g100
asbasbasbag57
(g73
g59
NtRp4705
(dp4706
g62
(dp4707
sg71
g3220
sg64
(lp4708
g57
(g78
g59
NtRp4709
(dp4710
g62
(dp4711
g82
g83
ssg71
g4705
sg64
(lp4712
S'session_storage_type'
p4713
asbag57
(g78
g59
NtRp4714
(dp4715
g62
(dp4716
g89
g90
ssg71
g4705
sg64
(lp4717
S':'
asbag57
(g78
g59
NtRp4718
(dp4719
g62
(dp4720
sg71
g4705
sg64
(lp4721
g57
(g58
g59
NtRp4722
(dp4723
g62
(dp4724
g70
I5
ssg71
g4718
sg64
(lp4725
g3099
asbasbasbag57
(g73
g59
NtRp4726
(dp4727
g62
(dp4728
sg71
g3220
sg64
(lp4729
g57
(g78
g59
NtRp4730
(dp4731
g62
(dp4732
g82
g83
ssg71
g4726
sg64
(lp4733
S'status'
p4734
asbag57
(g78
g59
NtRp4735
(dp4736
g62
(dp4737
g89
g90
ssg71
g4726
sg64
(lp4738
S':'
asbag57
(g78
g59
NtRp4739
(dp4740
g62
(dp4741
sg71
g4726
sg64
(lp4742
g57
(g58
g59
NtRp4743
(dp4744
g62
(dp4745
g70
I5
ssg71
g4739
sg64
(lp4746
S'200'
p4747
asbasbasbag57
(g73
g59
NtRp4748
(dp4749
g62
(dp4750
sg71
g3220
sg64
(lp4751
g57
(g78
g59
NtRp4752
(dp4753
g62
(dp4754
g82
g83
ssg71
g4748
sg64
(lp4755
S'subtitle'
p4756
asbag57
(g78
g59
NtRp4757
(dp4758
g62
(dp4759
g89
g90
ssg71
g4748
sg64
(lp4760
S':'
asbag57
(g78
g59
NtRp4761
(dp4762
g62
(dp4763
sg71
g4748
sg64
(lp4764
g57
(g58
g59
NtRp4765
(dp4766
g62
(dp4767
g70
I5
ssg71
g4761
sg64
(lp4768
g3710
(S's,\x00\x00\x00Sistema de liquidacion de sueldos y jornales'
tRp4769
asbasbasbag57
(g73
g59
NtRp4770
(dp4771
g62
(dp4772
sg71
g3220
sg64
(lp4773
g57
(g78
g59
NtRp4774
(dp4775
g62
(dp4776
g82
g83
ssg71
g4770
sg64
(lp4777
S'title'
p4778
asbag57
(g78
g59
NtRp4779
(dp4780
g62
(dp4781
g89
g90
ssg71
g4770
sg64
(lp4782
S':'
asbag57
(g78
g59
NtRp4783
(dp4784
g62
(dp4785
sg71
g4770
sg64
(lp4786
g57
(g58
g59
NtRp4787
(dp4788
g62
(dp4789
g70
I5
ssg71
g4783
sg64
(lp4790
S'Sueldos'
p4791
asbasbasbag57
(g73
g59
NtRp4792
(dp4793
g62
(dp4794
sg71
g3220
sg64
(lp4795
g57
(g78
g59
NtRp4796
(dp4797
g62
(dp4798
g82
g83
ssg71
g4792
sg64
(lp4799
S'view'
p4800
asbag57
(g78
g59
NtRp4801
(dp4802
g62
(dp4803
g89
g90
ssg71
g4792
sg64
(lp4804
S':'
asbag57
(g78
g59
NtRp4805
(dp4806
g62
(dp4807
sg71
g4792
sg64
(lp4808
g57
(g58
g59
NtRp4809
(dp4810
g62
(dp4811
g70
I5
ssg71
g4805
sg64
(lp4812
S'vistas/importes.html'
p4813
asbasbasbasbasbsS'locals'
p4814
(dp4815
ssS'traceback'
p4816
S'Traceback (most recent call last):\n  File "/home/marco/projects/contabilidad/web2py/gluon/restricted.py", line 212, in restricted\n    exec ccode in environment\n  File "/home/marco/projects/contabilidad/web2py/applications/sueldos/controllers/vistas.py", line 36, in <module>\n  File "/home/marco/projects/contabilidad/web2py/gluon/globals.py", line 193, in <lambda>\n    self._caller = lambda f: f()\n  File "/home/marco/projects/contabilidad/web2py/applications/sueldos/controllers/vistas.py", line 22, in importes\n    if IS_INTEGER(request.vars.gremio):\nNameError: global name \'IS_INTEGER\' is not defined\n'
p4817
s.